; Listing generated by Microsoft (R) Optimizing Compiler Version 16.00.30319.01 

	TITLE	C:\Users\Дмитрий\Documents\Visual Studio 2010\Projects\Scanner\Scanner\LL_Optimizer.cpp
	.686P
	.XMM
	include listing.inc
	.model	flat

INCLUDELIB LIBCMTD
INCLUDELIB OLDNAMES

PUBLIC	?has_denorm@_Num_base@std@@2W4float_denorm_style@2@B ; std::_Num_base::has_denorm
PUBLIC	?has_denorm_loss@_Num_base@std@@2_NB		; std::_Num_base::has_denorm_loss
PUBLIC	?has_infinity@_Num_base@std@@2_NB		; std::_Num_base::has_infinity
PUBLIC	?has_quiet_NaN@_Num_base@std@@2_NB		; std::_Num_base::has_quiet_NaN
PUBLIC	?has_signaling_NaN@_Num_base@std@@2_NB		; std::_Num_base::has_signaling_NaN
PUBLIC	?is_bounded@_Num_base@std@@2_NB			; std::_Num_base::is_bounded
PUBLIC	?is_exact@_Num_base@std@@2_NB			; std::_Num_base::is_exact
PUBLIC	?is_iec559@_Num_base@std@@2_NB			; std::_Num_base::is_iec559
PUBLIC	?is_integer@_Num_base@std@@2_NB			; std::_Num_base::is_integer
PUBLIC	?is_modulo@_Num_base@std@@2_NB			; std::_Num_base::is_modulo
PUBLIC	?is_signed@_Num_base@std@@2_NB			; std::_Num_base::is_signed
PUBLIC	?is_specialized@_Num_base@std@@2_NB		; std::_Num_base::is_specialized
PUBLIC	?tinyness_before@_Num_base@std@@2_NB		; std::_Num_base::tinyness_before
PUBLIC	?traps@_Num_base@std@@2_NB			; std::_Num_base::traps
PUBLIC	?round_style@_Num_base@std@@2W4float_round_style@2@B ; std::_Num_base::round_style
PUBLIC	?digits@_Num_base@std@@2HB			; std::_Num_base::digits
PUBLIC	?digits10@_Num_base@std@@2HB			; std::_Num_base::digits10
PUBLIC	?max_digits10@_Num_base@std@@2HB		; std::_Num_base::max_digits10
PUBLIC	?max_exponent@_Num_base@std@@2HB		; std::_Num_base::max_exponent
PUBLIC	?max_exponent10@_Num_base@std@@2HB		; std::_Num_base::max_exponent10
PUBLIC	?min_exponent@_Num_base@std@@2HB		; std::_Num_base::min_exponent
PUBLIC	?min_exponent10@_Num_base@std@@2HB		; std::_Num_base::min_exponent10
PUBLIC	?radix@_Num_base@std@@2HB			; std::_Num_base::radix
PUBLIC	?is_bounded@_Num_int_base@std@@2_NB		; std::_Num_int_base::is_bounded
PUBLIC	?is_exact@_Num_int_base@std@@2_NB		; std::_Num_int_base::is_exact
PUBLIC	?is_integer@_Num_int_base@std@@2_NB		; std::_Num_int_base::is_integer
PUBLIC	?is_modulo@_Num_int_base@std@@2_NB		; std::_Num_int_base::is_modulo
PUBLIC	?is_specialized@_Num_int_base@std@@2_NB		; std::_Num_int_base::is_specialized
PUBLIC	?radix@_Num_int_base@std@@2HB			; std::_Num_int_base::radix
PUBLIC	?has_denorm@_Num_float_base@std@@2W4float_denorm_style@2@B ; std::_Num_float_base::has_denorm
PUBLIC	?has_denorm_loss@_Num_float_base@std@@2_NB	; std::_Num_float_base::has_denorm_loss
PUBLIC	?has_infinity@_Num_float_base@std@@2_NB		; std::_Num_float_base::has_infinity
PUBLIC	?has_quiet_NaN@_Num_float_base@std@@2_NB	; std::_Num_float_base::has_quiet_NaN
PUBLIC	?has_signaling_NaN@_Num_float_base@std@@2_NB	; std::_Num_float_base::has_signaling_NaN
PUBLIC	?is_bounded@_Num_float_base@std@@2_NB		; std::_Num_float_base::is_bounded
PUBLIC	?is_exact@_Num_float_base@std@@2_NB		; std::_Num_float_base::is_exact
PUBLIC	?is_iec559@_Num_float_base@std@@2_NB		; std::_Num_float_base::is_iec559
PUBLIC	?is_integer@_Num_float_base@std@@2_NB		; std::_Num_float_base::is_integer
PUBLIC	?is_modulo@_Num_float_base@std@@2_NB		; std::_Num_float_base::is_modulo
PUBLIC	?is_signed@_Num_float_base@std@@2_NB		; std::_Num_float_base::is_signed
PUBLIC	?is_specialized@_Num_float_base@std@@2_NB	; std::_Num_float_base::is_specialized
PUBLIC	?tinyness_before@_Num_float_base@std@@2_NB	; std::_Num_float_base::tinyness_before
PUBLIC	?traps@_Num_float_base@std@@2_NB		; std::_Num_float_base::traps
PUBLIC	?round_style@_Num_float_base@std@@2W4float_round_style@2@B ; std::_Num_float_base::round_style
PUBLIC	?radix@_Num_float_base@std@@2HB			; std::_Num_float_base::radix
PUBLIC	?is_signed@?$numeric_limits@D@std@@2_NB		; std::numeric_limits<char>::is_signed
PUBLIC	?digits@?$numeric_limits@D@std@@2HB		; std::numeric_limits<char>::digits
PUBLIC	?digits10@?$numeric_limits@D@std@@2HB		; std::numeric_limits<char>::digits10
PUBLIC	?max_digits10@?$numeric_limits@D@std@@2HB	; std::numeric_limits<char>::max_digits10
PUBLIC	?is_signed@?$numeric_limits@_W@std@@2_NB	; std::numeric_limits<wchar_t>::is_signed
PUBLIC	?digits@?$numeric_limits@_W@std@@2HB		; std::numeric_limits<wchar_t>::digits
PUBLIC	?digits10@?$numeric_limits@_W@std@@2HB		; std::numeric_limits<wchar_t>::digits10
PUBLIC	?max_digits10@?$numeric_limits@_W@std@@2HB	; std::numeric_limits<wchar_t>::max_digits10
PUBLIC	?is_modulo@?$numeric_limits@_N@std@@2_NB	; std::numeric_limits<bool>::is_modulo
PUBLIC	?is_signed@?$numeric_limits@_N@std@@2_NB	; std::numeric_limits<bool>::is_signed
PUBLIC	?digits@?$numeric_limits@_N@std@@2HB		; std::numeric_limits<bool>::digits
PUBLIC	?digits10@?$numeric_limits@_N@std@@2HB		; std::numeric_limits<bool>::digits10
PUBLIC	?max_digits10@?$numeric_limits@_N@std@@2HB	; std::numeric_limits<bool>::max_digits10
PUBLIC	?is_signed@?$numeric_limits@C@std@@2_NB		; std::numeric_limits<signed char>::is_signed
PUBLIC	?digits@?$numeric_limits@C@std@@2HB		; std::numeric_limits<signed char>::digits
PUBLIC	?digits10@?$numeric_limits@C@std@@2HB		; std::numeric_limits<signed char>::digits10
PUBLIC	?max_digits10@?$numeric_limits@C@std@@2HB	; std::numeric_limits<signed char>::max_digits10
PUBLIC	?is_signed@?$numeric_limits@E@std@@2_NB		; std::numeric_limits<unsigned char>::is_signed
PUBLIC	?digits@?$numeric_limits@E@std@@2HB		; std::numeric_limits<unsigned char>::digits
PUBLIC	?digits10@?$numeric_limits@E@std@@2HB		; std::numeric_limits<unsigned char>::digits10
PUBLIC	?max_digits10@?$numeric_limits@E@std@@2HB	; std::numeric_limits<unsigned char>::max_digits10
PUBLIC	?is_signed@?$numeric_limits@F@std@@2_NB		; std::numeric_limits<short>::is_signed
PUBLIC	?digits@?$numeric_limits@F@std@@2HB		; std::numeric_limits<short>::digits
PUBLIC	?digits10@?$numeric_limits@F@std@@2HB		; std::numeric_limits<short>::digits10
PUBLIC	?max_digits10@?$numeric_limits@F@std@@2HB	; std::numeric_limits<short>::max_digits10
PUBLIC	?is_signed@?$numeric_limits@G@std@@2_NB		; std::numeric_limits<unsigned short>::is_signed
PUBLIC	?digits@?$numeric_limits@G@std@@2HB		; std::numeric_limits<unsigned short>::digits
PUBLIC	?digits10@?$numeric_limits@G@std@@2HB		; std::numeric_limits<unsigned short>::digits10
PUBLIC	?max_digits10@?$numeric_limits@G@std@@2HB	; std::numeric_limits<unsigned short>::max_digits10
PUBLIC	?is_signed@?$numeric_limits@H@std@@2_NB		; std::numeric_limits<int>::is_signed
PUBLIC	?digits@?$numeric_limits@H@std@@2HB		; std::numeric_limits<int>::digits
PUBLIC	?digits10@?$numeric_limits@H@std@@2HB		; std::numeric_limits<int>::digits10
PUBLIC	?max_digits10@?$numeric_limits@H@std@@2HB	; std::numeric_limits<int>::max_digits10
PUBLIC	?is_signed@?$numeric_limits@I@std@@2_NB		; std::numeric_limits<unsigned int>::is_signed
PUBLIC	?digits@?$numeric_limits@I@std@@2HB		; std::numeric_limits<unsigned int>::digits
PUBLIC	?digits10@?$numeric_limits@I@std@@2HB		; std::numeric_limits<unsigned int>::digits10
PUBLIC	?max_digits10@?$numeric_limits@I@std@@2HB	; std::numeric_limits<unsigned int>::max_digits10
PUBLIC	?is_signed@?$numeric_limits@J@std@@2_NB		; std::numeric_limits<long>::is_signed
PUBLIC	?digits@?$numeric_limits@J@std@@2HB		; std::numeric_limits<long>::digits
PUBLIC	?digits10@?$numeric_limits@J@std@@2HB		; std::numeric_limits<long>::digits10
PUBLIC	?max_digits10@?$numeric_limits@J@std@@2HB	; std::numeric_limits<long>::max_digits10
PUBLIC	?is_signed@?$numeric_limits@K@std@@2_NB		; std::numeric_limits<unsigned long>::is_signed
PUBLIC	?digits@?$numeric_limits@K@std@@2HB		; std::numeric_limits<unsigned long>::digits
PUBLIC	?digits10@?$numeric_limits@K@std@@2HB		; std::numeric_limits<unsigned long>::digits10
PUBLIC	?max_digits10@?$numeric_limits@K@std@@2HB	; std::numeric_limits<unsigned long>::max_digits10
PUBLIC	?is_signed@?$numeric_limits@_J@std@@2_NB	; std::numeric_limits<__int64>::is_signed
PUBLIC	?digits@?$numeric_limits@_J@std@@2HB		; std::numeric_limits<__int64>::digits
PUBLIC	?digits10@?$numeric_limits@_J@std@@2HB		; std::numeric_limits<__int64>::digits10
PUBLIC	?max_digits10@?$numeric_limits@_J@std@@2HB	; std::numeric_limits<__int64>::max_digits10
PUBLIC	?is_signed@?$numeric_limits@_K@std@@2_NB	; std::numeric_limits<unsigned __int64>::is_signed
PUBLIC	?digits@?$numeric_limits@_K@std@@2HB		; std::numeric_limits<unsigned __int64>::digits
PUBLIC	?digits10@?$numeric_limits@_K@std@@2HB		; std::numeric_limits<unsigned __int64>::digits10
PUBLIC	?max_digits10@?$numeric_limits@_K@std@@2HB	; std::numeric_limits<unsigned __int64>::max_digits10
PUBLIC	?digits@?$numeric_limits@M@std@@2HB		; std::numeric_limits<float>::digits
PUBLIC	?digits10@?$numeric_limits@M@std@@2HB		; std::numeric_limits<float>::digits10
PUBLIC	?max_digits10@?$numeric_limits@M@std@@2HB	; std::numeric_limits<float>::max_digits10
PUBLIC	?max_exponent@?$numeric_limits@M@std@@2HB	; std::numeric_limits<float>::max_exponent
PUBLIC	?max_exponent10@?$numeric_limits@M@std@@2HB	; std::numeric_limits<float>::max_exponent10
PUBLIC	?min_exponent@?$numeric_limits@M@std@@2HB	; std::numeric_limits<float>::min_exponent
PUBLIC	?min_exponent10@?$numeric_limits@M@std@@2HB	; std::numeric_limits<float>::min_exponent10
PUBLIC	?digits@?$numeric_limits@N@std@@2HB		; std::numeric_limits<double>::digits
PUBLIC	?digits10@?$numeric_limits@N@std@@2HB		; std::numeric_limits<double>::digits10
PUBLIC	?max_digits10@?$numeric_limits@N@std@@2HB	; std::numeric_limits<double>::max_digits10
PUBLIC	?max_exponent@?$numeric_limits@N@std@@2HB	; std::numeric_limits<double>::max_exponent
PUBLIC	?max_exponent10@?$numeric_limits@N@std@@2HB	; std::numeric_limits<double>::max_exponent10
PUBLIC	?min_exponent@?$numeric_limits@N@std@@2HB	; std::numeric_limits<double>::min_exponent
PUBLIC	?min_exponent10@?$numeric_limits@N@std@@2HB	; std::numeric_limits<double>::min_exponent10
PUBLIC	?digits@?$numeric_limits@O@std@@2HB		; std::numeric_limits<long double>::digits
PUBLIC	?digits10@?$numeric_limits@O@std@@2HB		; std::numeric_limits<long double>::digits10
PUBLIC	?max_digits10@?$numeric_limits@O@std@@2HB	; std::numeric_limits<long double>::max_digits10
PUBLIC	?max_exponent@?$numeric_limits@O@std@@2HB	; std::numeric_limits<long double>::max_exponent
PUBLIC	?max_exponent10@?$numeric_limits@O@std@@2HB	; std::numeric_limits<long double>::max_exponent10
PUBLIC	?min_exponent@?$numeric_limits@O@std@@2HB	; std::numeric_limits<long double>::min_exponent
PUBLIC	?min_exponent10@?$numeric_limits@O@std@@2HB	; std::numeric_limits<long double>::min_exponent10
PUBLIC	?value@?$integral_constant@_N$0A@@tr1@std@@2_NB	; std::tr1::integral_constant<bool,0>::value
PUBLIC	?value@?$integral_constant@_N$00@tr1@std@@2_NB	; std::tr1::integral_constant<bool,1>::value
PUBLIC	?value@?$integral_constant@I$0A@@tr1@std@@2IB	; std::tr1::integral_constant<unsigned int,0>::value
PUBLIC	?_Rank@?$_Arithmetic_traits@_N@std@@2HB		; std::_Arithmetic_traits<bool>::_Rank
PUBLIC	?_Rank@?$_Arithmetic_traits@D@std@@2HB		; std::_Arithmetic_traits<char>::_Rank
PUBLIC	?_Rank@?$_Arithmetic_traits@C@std@@2HB		; std::_Arithmetic_traits<signed char>::_Rank
PUBLIC	?_Rank@?$_Arithmetic_traits@E@std@@2HB		; std::_Arithmetic_traits<unsigned char>::_Rank
PUBLIC	?_Rank@?$_Arithmetic_traits@F@std@@2HB		; std::_Arithmetic_traits<short>::_Rank
PUBLIC	?_Rank@?$_Arithmetic_traits@G@std@@2HB		; std::_Arithmetic_traits<unsigned short>::_Rank
PUBLIC	?_Rank@?$_Arithmetic_traits@H@std@@2HB		; std::_Arithmetic_traits<int>::_Rank
PUBLIC	?_Rank@?$_Arithmetic_traits@I@std@@2HB		; std::_Arithmetic_traits<unsigned int>::_Rank
PUBLIC	?_Rank@?$_Arithmetic_traits@J@std@@2HB		; std::_Arithmetic_traits<long>::_Rank
PUBLIC	?_Rank@?$_Arithmetic_traits@K@std@@2HB		; std::_Arithmetic_traits<unsigned long>::_Rank
PUBLIC	?_Rank@?$_Arithmetic_traits@_J@std@@2HB		; std::_Arithmetic_traits<__int64>::_Rank
PUBLIC	?_Rank@?$_Arithmetic_traits@_K@std@@2HB		; std::_Arithmetic_traits<unsigned __int64>::_Rank
PUBLIC	?_Rank@?$_Arithmetic_traits@M@std@@2HB		; std::_Arithmetic_traits<float>::_Rank
PUBLIC	?_Rank@?$_Arithmetic_traits@N@std@@2HB		; std::_Arithmetic_traits<double>::_Rank
PUBLIC	?_Rank@?$_Arithmetic_traits@O@std@@2HB		; std::_Arithmetic_traits<long double>::_Rank
PUBLIC	?collate@?$_Locbase@H@std@@2HB			; std::_Locbase<int>::collate
PUBLIC	?ctype@?$_Locbase@H@std@@2HB			; std::_Locbase<int>::ctype
PUBLIC	?monetary@?$_Locbase@H@std@@2HB			; std::_Locbase<int>::monetary
PUBLIC	?numeric@?$_Locbase@H@std@@2HB			; std::_Locbase<int>::numeric
PUBLIC	?time@?$_Locbase@H@std@@2HB			; std::_Locbase<int>::time
PUBLIC	?messages@?$_Locbase@H@std@@2HB			; std::_Locbase<int>::messages
PUBLIC	?all@?$_Locbase@H@std@@2HB			; std::_Locbase<int>::all
PUBLIC	?none@?$_Locbase@H@std@@2HB			; std::_Locbase<int>::none
PUBLIC	?table_size@?$ctype@D@std@@2IB			; std::ctype<char>::table_size
PUBLIC	?skipws@?$_Iosb@H@std@@2W4_Fmtflags@12@B	; std::_Iosb<int>::skipws
PUBLIC	?unitbuf@?$_Iosb@H@std@@2W4_Fmtflags@12@B	; std::_Iosb<int>::unitbuf
PUBLIC	?uppercase@?$_Iosb@H@std@@2W4_Fmtflags@12@B	; std::_Iosb<int>::uppercase
PUBLIC	?showbase@?$_Iosb@H@std@@2W4_Fmtflags@12@B	; std::_Iosb<int>::showbase
PUBLIC	?showpoint@?$_Iosb@H@std@@2W4_Fmtflags@12@B	; std::_Iosb<int>::showpoint
PUBLIC	?showpos@?$_Iosb@H@std@@2W4_Fmtflags@12@B	; std::_Iosb<int>::showpos
PUBLIC	?left@?$_Iosb@H@std@@2W4_Fmtflags@12@B		; std::_Iosb<int>::left
PUBLIC	?right@?$_Iosb@H@std@@2W4_Fmtflags@12@B		; std::_Iosb<int>::right
PUBLIC	?internal@?$_Iosb@H@std@@2W4_Fmtflags@12@B	; std::_Iosb<int>::internal
PUBLIC	?dec@?$_Iosb@H@std@@2W4_Fmtflags@12@B		; std::_Iosb<int>::dec
PUBLIC	?oct@?$_Iosb@H@std@@2W4_Fmtflags@12@B		; std::_Iosb<int>::oct
PUBLIC	?hex@?$_Iosb@H@std@@2W4_Fmtflags@12@B		; std::_Iosb<int>::hex
PUBLIC	?scientific@?$_Iosb@H@std@@2W4_Fmtflags@12@B	; std::_Iosb<int>::scientific
PUBLIC	?fixed@?$_Iosb@H@std@@2W4_Fmtflags@12@B		; std::_Iosb<int>::fixed
PUBLIC	?hexfloat@?$_Iosb@H@std@@2W4_Fmtflags@12@B	; std::_Iosb<int>::hexfloat
PUBLIC	?boolalpha@?$_Iosb@H@std@@2W4_Fmtflags@12@B	; std::_Iosb<int>::boolalpha
PUBLIC	?_Stdio@?$_Iosb@H@std@@2W4_Fmtflags@12@B	; std::_Iosb<int>::_Stdio
PUBLIC	?adjustfield@?$_Iosb@H@std@@2W4_Fmtflags@12@B	; std::_Iosb<int>::adjustfield
PUBLIC	?basefield@?$_Iosb@H@std@@2W4_Fmtflags@12@B	; std::_Iosb<int>::basefield
PUBLIC	?floatfield@?$_Iosb@H@std@@2W4_Fmtflags@12@B	; std::_Iosb<int>::floatfield
PUBLIC	?goodbit@?$_Iosb@H@std@@2W4_Iostate@12@B	; std::_Iosb<int>::goodbit
PUBLIC	?eofbit@?$_Iosb@H@std@@2W4_Iostate@12@B		; std::_Iosb<int>::eofbit
PUBLIC	?failbit@?$_Iosb@H@std@@2W4_Iostate@12@B	; std::_Iosb<int>::failbit
PUBLIC	?badbit@?$_Iosb@H@std@@2W4_Iostate@12@B		; std::_Iosb<int>::badbit
PUBLIC	?_Hardfail@?$_Iosb@H@std@@2W4_Iostate@12@B	; std::_Iosb<int>::_Hardfail
PUBLIC	?in@?$_Iosb@H@std@@2W4_Openmode@12@B		; std::_Iosb<int>::in
PUBLIC	?out@?$_Iosb@H@std@@2W4_Openmode@12@B		; std::_Iosb<int>::out
PUBLIC	?ate@?$_Iosb@H@std@@2W4_Openmode@12@B		; std::_Iosb<int>::ate
PUBLIC	?app@?$_Iosb@H@std@@2W4_Openmode@12@B		; std::_Iosb<int>::app
PUBLIC	?trunc@?$_Iosb@H@std@@2W4_Openmode@12@B		; std::_Iosb<int>::trunc
PUBLIC	?_Nocreate@?$_Iosb@H@std@@2W4_Openmode@12@B	; std::_Iosb<int>::_Nocreate
PUBLIC	?_Noreplace@?$_Iosb@H@std@@2W4_Openmode@12@B	; std::_Iosb<int>::_Noreplace
PUBLIC	?binary@?$_Iosb@H@std@@2W4_Openmode@12@B	; std::_Iosb<int>::binary
PUBLIC	?beg@?$_Iosb@H@std@@2W4_Seekdir@12@B		; std::_Iosb<int>::beg
PUBLIC	?cur@?$_Iosb@H@std@@2W4_Seekdir@12@B		; std::_Iosb<int>::cur
PUBLIC	?end@?$_Iosb@H@std@@2W4_Seekdir@12@B		; std::_Iosb<int>::end
PUBLIC	?_EEM_DS@?$deque@DV?$allocator@D@std@@@std@@2HB	; std::deque<char,std::allocator<char> >::_EEM_DS
PUBLIC	?_EEM_DS@?$deque@V?$map@V?$basic_string@DU?$char_traits@D@std@@V?$allocator@D@2@@std@@UVAR_TO_DUPLICATE@@U?$less@V?$basic_string@DU?$char_traits@D@std@@V?$allocator@D@2@@std@@@2@V?$allocator@U?$pair@$$CBV?$basic_string@DU?$char_traits@D@std@@V?$allocator@D@2@@std@@UVAR_TO_DUPLICATE@@@std@@@2@@std@@V?$allocator@V?$map@V?$basic_string@DU?$char_traits@D@std@@V?$allocator@D@2@@std@@UVAR_TO_DUPLICATE@@U?$less@V?$basic_string@DU?$char_traits@D@std@@V?$allocator@D@2@@std@@@2@V?$allocator@U?$pair@$$CBV?$basic_string@DU?$char_traits@D@std@@V?$allocator@D@2@@std@@UVAR_TO_DUPLICATE@@@std@@@2@@std@@@2@@std@@2HB ; std::deque<std::map<std::basic_string<char,std::char_traits<char>,std::allocator<char> >,VAR_TO_DUPLICATE,std::less<std::basic_string<char,std::char_traits<char>,std::allocator<char> > >,std::allocator<std::pair<std::basic_string<char,std::char_traits<char>,std::allocator<char> > const ,VAR_TO_DUPLICATE> > >,std::allocator<std::map<std::basic_string<char,std::char_traits<char>,std::allocator<char> >,VAR_TO_DUPLICATE,std::less<std::basic_string<char,std::char_traits<char>,std::allocator<char> > >,std::allocator<std::pair<std::basic_string<char,std::char_traits<char>,std::allocator<char> > const ,VAR_TO_DUPLICATE> > > > >::_EEM_DS
PUBLIC	?_EEM_DS@?$deque@V?$basic_string@DU?$char_traits@D@std@@V?$allocator@D@2@@std@@V?$allocator@V?$basic_string@DU?$char_traits@D@std@@V?$allocator@D@2@@std@@@2@@std@@2HB ; std::deque<std::basic_string<char,std::char_traits<char>,std::allocator<char> >,std::allocator<std::basic_string<char,std::char_traits<char>,std::allocator<char> > > >::_EEM_DS
;	COMDAT ?_EEM_DS@?$deque@V?$basic_string@DU?$char_traits@D@std@@V?$allocator@D@2@@std@@V?$allocator@V?$basic_string@DU?$char_traits@D@std@@V?$allocator@D@2@@std@@@2@@std@@2HB
CONST	SEGMENT
?_EEM_DS@?$deque@V?$basic_string@DU?$char_traits@D@std@@V?$allocator@D@2@@std@@V?$allocator@V?$basic_string@DU?$char_traits@D@std@@V?$allocator@D@2@@std@@@2@@std@@2HB DD 01H ; std::deque<std::basic_string<char,std::char_traits<char>,std::allocator<char> >,std::allocator<std::basic_string<char,std::char_traits<char>,std::allocator<char> > > >::_EEM_DS
CONST	ENDS
;	COMDAT ?_EEM_DS@?$deque@V?$map@V?$basic_string@DU?$char_traits@D@std@@V?$allocator@D@2@@std@@UVAR_TO_DUPLICATE@@U?$less@V?$basic_string@DU?$char_traits@D@std@@V?$allocator@D@2@@std@@@2@V?$allocator@U?$pair@$$CBV?$basic_string@DU?$char_traits@D@std@@V?$allocator@D@2@@std@@UVAR_TO_DUPLICATE@@@std@@@2@@std@@V?$allocator@V?$map@V?$basic_string@DU?$char_traits@D@std@@V?$allocator@D@2@@std@@UVAR_TO_DUPLICATE@@U?$less@V?$basic_string@DU?$char_traits@D@std@@V?$allocator@D@2@@std@@@2@V?$allocator@U?$pair@$$CBV?$basic_string@DU?$char_traits@D@std@@V?$allocator@D@2@@std@@UVAR_TO_DUPLICATE@@@std@@@2@@std@@@2@@std@@2HB
CONST	SEGMENT
?_EEM_DS@?$deque@V?$map@V?$basic_string@DU?$char_traits@D@std@@V?$allocator@D@2@@std@@UVAR_TO_DUPLICATE@@U?$less@V?$basic_string@DU?$char_traits@D@std@@V?$allocator@D@2@@std@@@2@V?$allocator@U?$pair@$$CBV?$basic_string@DU?$char_traits@D@std@@V?$allocator@D@2@@std@@UVAR_TO_DUPLICATE@@@std@@@2@@std@@V?$allocator@V?$map@V?$basic_string@DU?$char_traits@D@std@@V?$allocator@D@2@@std@@UVAR_TO_DUPLICATE@@U?$less@V?$basic_string@DU?$char_traits@D@std@@V?$allocator@D@2@@std@@@2@V?$allocator@U?$pair@$$CBV?$basic_string@DU?$char_traits@D@std@@V?$allocator@D@2@@std@@UVAR_TO_DUPLICATE@@@std@@@2@@std@@@2@@std@@2HB DD 01H ; std::deque<std::map<std::basic_string<char,std::char_traits<char>,std::allocator<char> >,VAR_TO_DUPLICATE,std::less<std::basic_string<char,std::char_traits<char>,std::allocator<char> > >,std::allocator<std::pair<std::basic_string<char,std::char_traits<char>,std::allocator<char> > const ,VAR_TO_DUPLICATE> > >,std::allocator<std::map<std::basic_string<char,std::char_traits<char>,std::allocator<char> >,VAR_TO_DUPLICATE,std::less<std::basic_string<char,std::char_traits<char>,std::allocator<char> > >,std::allocator<std::pair<std::basic_string<char,std::char_traits<char>,std::allocator<char> > const ,VAR_TO_DUPLICATE> > > > >::_EEM_DS
CONST	ENDS
;	COMDAT ?_EEM_DS@?$deque@DV?$allocator@D@std@@@std@@2HB
CONST	SEGMENT
?_EEM_DS@?$deque@DV?$allocator@D@std@@@std@@2HB DD 010H	; std::deque<char,std::allocator<char> >::_EEM_DS
CONST	ENDS
;	COMDAT ?end@?$_Iosb@H@std@@2W4_Seekdir@12@B
CONST	SEGMENT
?end@?$_Iosb@H@std@@2W4_Seekdir@12@B DD 02H		; std::_Iosb<int>::end
CONST	ENDS
;	COMDAT ?cur@?$_Iosb@H@std@@2W4_Seekdir@12@B
CONST	SEGMENT
?cur@?$_Iosb@H@std@@2W4_Seekdir@12@B DD 01H		; std::_Iosb<int>::cur
CONST	ENDS
;	COMDAT ?beg@?$_Iosb@H@std@@2W4_Seekdir@12@B
CONST	SEGMENT
?beg@?$_Iosb@H@std@@2W4_Seekdir@12@B DD 00H		; std::_Iosb<int>::beg
CONST	ENDS
;	COMDAT ?binary@?$_Iosb@H@std@@2W4_Openmode@12@B
CONST	SEGMENT
?binary@?$_Iosb@H@std@@2W4_Openmode@12@B DD 020H	; std::_Iosb<int>::binary
CONST	ENDS
;	COMDAT ?_Noreplace@?$_Iosb@H@std@@2W4_Openmode@12@B
CONST	SEGMENT
?_Noreplace@?$_Iosb@H@std@@2W4_Openmode@12@B DD 080H	; std::_Iosb<int>::_Noreplace
CONST	ENDS
;	COMDAT ?_Nocreate@?$_Iosb@H@std@@2W4_Openmode@12@B
CONST	SEGMENT
?_Nocreate@?$_Iosb@H@std@@2W4_Openmode@12@B DD 040H	; std::_Iosb<int>::_Nocreate
CONST	ENDS
;	COMDAT ?trunc@?$_Iosb@H@std@@2W4_Openmode@12@B
CONST	SEGMENT
?trunc@?$_Iosb@H@std@@2W4_Openmode@12@B DD 010H		; std::_Iosb<int>::trunc
CONST	ENDS
;	COMDAT ?app@?$_Iosb@H@std@@2W4_Openmode@12@B
CONST	SEGMENT
?app@?$_Iosb@H@std@@2W4_Openmode@12@B DD 08H		; std::_Iosb<int>::app
CONST	ENDS
;	COMDAT ?ate@?$_Iosb@H@std@@2W4_Openmode@12@B
CONST	SEGMENT
?ate@?$_Iosb@H@std@@2W4_Openmode@12@B DD 04H		; std::_Iosb<int>::ate
CONST	ENDS
;	COMDAT ?out@?$_Iosb@H@std@@2W4_Openmode@12@B
CONST	SEGMENT
?out@?$_Iosb@H@std@@2W4_Openmode@12@B DD 02H		; std::_Iosb<int>::out
CONST	ENDS
;	COMDAT ?in@?$_Iosb@H@std@@2W4_Openmode@12@B
CONST	SEGMENT
?in@?$_Iosb@H@std@@2W4_Openmode@12@B DD 01H		; std::_Iosb<int>::in
CONST	ENDS
;	COMDAT ?_Hardfail@?$_Iosb@H@std@@2W4_Iostate@12@B
CONST	SEGMENT
?_Hardfail@?$_Iosb@H@std@@2W4_Iostate@12@B DD 010H	; std::_Iosb<int>::_Hardfail
CONST	ENDS
;	COMDAT ?badbit@?$_Iosb@H@std@@2W4_Iostate@12@B
CONST	SEGMENT
?badbit@?$_Iosb@H@std@@2W4_Iostate@12@B DD 04H		; std::_Iosb<int>::badbit
CONST	ENDS
;	COMDAT ?failbit@?$_Iosb@H@std@@2W4_Iostate@12@B
CONST	SEGMENT
?failbit@?$_Iosb@H@std@@2W4_Iostate@12@B DD 02H		; std::_Iosb<int>::failbit
CONST	ENDS
;	COMDAT ?eofbit@?$_Iosb@H@std@@2W4_Iostate@12@B
CONST	SEGMENT
?eofbit@?$_Iosb@H@std@@2W4_Iostate@12@B DD 01H		; std::_Iosb<int>::eofbit
CONST	ENDS
;	COMDAT ?goodbit@?$_Iosb@H@std@@2W4_Iostate@12@B
CONST	SEGMENT
?goodbit@?$_Iosb@H@std@@2W4_Iostate@12@B DD 00H		; std::_Iosb<int>::goodbit
CONST	ENDS
;	COMDAT ?floatfield@?$_Iosb@H@std@@2W4_Fmtflags@12@B
CONST	SEGMENT
?floatfield@?$_Iosb@H@std@@2W4_Fmtflags@12@B DD 03000H	; std::_Iosb<int>::floatfield
CONST	ENDS
;	COMDAT ?basefield@?$_Iosb@H@std@@2W4_Fmtflags@12@B
CONST	SEGMENT
?basefield@?$_Iosb@H@std@@2W4_Fmtflags@12@B DD 0e00H	; std::_Iosb<int>::basefield
CONST	ENDS
;	COMDAT ?adjustfield@?$_Iosb@H@std@@2W4_Fmtflags@12@B
CONST	SEGMENT
?adjustfield@?$_Iosb@H@std@@2W4_Fmtflags@12@B DD 01c0H	; std::_Iosb<int>::adjustfield
CONST	ENDS
;	COMDAT ?_Stdio@?$_Iosb@H@std@@2W4_Fmtflags@12@B
CONST	SEGMENT
?_Stdio@?$_Iosb@H@std@@2W4_Fmtflags@12@B DD 08000H	; std::_Iosb<int>::_Stdio
CONST	ENDS
;	COMDAT ?boolalpha@?$_Iosb@H@std@@2W4_Fmtflags@12@B
CONST	SEGMENT
?boolalpha@?$_Iosb@H@std@@2W4_Fmtflags@12@B DD 04000H	; std::_Iosb<int>::boolalpha
CONST	ENDS
;	COMDAT ?hexfloat@?$_Iosb@H@std@@2W4_Fmtflags@12@B
CONST	SEGMENT
?hexfloat@?$_Iosb@H@std@@2W4_Fmtflags@12@B DD 03000H	; std::_Iosb<int>::hexfloat
CONST	ENDS
;	COMDAT ?fixed@?$_Iosb@H@std@@2W4_Fmtflags@12@B
CONST	SEGMENT
?fixed@?$_Iosb@H@std@@2W4_Fmtflags@12@B DD 02000H	; std::_Iosb<int>::fixed
CONST	ENDS
;	COMDAT ?scientific@?$_Iosb@H@std@@2W4_Fmtflags@12@B
CONST	SEGMENT
?scientific@?$_Iosb@H@std@@2W4_Fmtflags@12@B DD 01000H	; std::_Iosb<int>::scientific
CONST	ENDS
;	COMDAT ?hex@?$_Iosb@H@std@@2W4_Fmtflags@12@B
CONST	SEGMENT
?hex@?$_Iosb@H@std@@2W4_Fmtflags@12@B DD 0800H		; std::_Iosb<int>::hex
CONST	ENDS
;	COMDAT ?oct@?$_Iosb@H@std@@2W4_Fmtflags@12@B
CONST	SEGMENT
?oct@?$_Iosb@H@std@@2W4_Fmtflags@12@B DD 0400H		; std::_Iosb<int>::oct
CONST	ENDS
;	COMDAT ?dec@?$_Iosb@H@std@@2W4_Fmtflags@12@B
CONST	SEGMENT
?dec@?$_Iosb@H@std@@2W4_Fmtflags@12@B DD 0200H		; std::_Iosb<int>::dec
CONST	ENDS
;	COMDAT ?internal@?$_Iosb@H@std@@2W4_Fmtflags@12@B
CONST	SEGMENT
?internal@?$_Iosb@H@std@@2W4_Fmtflags@12@B DD 0100H	; std::_Iosb<int>::internal
CONST	ENDS
;	COMDAT ?right@?$_Iosb@H@std@@2W4_Fmtflags@12@B
CONST	SEGMENT
?right@?$_Iosb@H@std@@2W4_Fmtflags@12@B DD 080H		; std::_Iosb<int>::right
CONST	ENDS
;	COMDAT ?left@?$_Iosb@H@std@@2W4_Fmtflags@12@B
CONST	SEGMENT
?left@?$_Iosb@H@std@@2W4_Fmtflags@12@B DD 040H		; std::_Iosb<int>::left
CONST	ENDS
;	COMDAT ?showpos@?$_Iosb@H@std@@2W4_Fmtflags@12@B
CONST	SEGMENT
?showpos@?$_Iosb@H@std@@2W4_Fmtflags@12@B DD 020H	; std::_Iosb<int>::showpos
CONST	ENDS
;	COMDAT ?showpoint@?$_Iosb@H@std@@2W4_Fmtflags@12@B
CONST	SEGMENT
?showpoint@?$_Iosb@H@std@@2W4_Fmtflags@12@B DD 010H	; std::_Iosb<int>::showpoint
CONST	ENDS
;	COMDAT ?showbase@?$_Iosb@H@std@@2W4_Fmtflags@12@B
CONST	SEGMENT
?showbase@?$_Iosb@H@std@@2W4_Fmtflags@12@B DD 08H	; std::_Iosb<int>::showbase
CONST	ENDS
;	COMDAT ?uppercase@?$_Iosb@H@std@@2W4_Fmtflags@12@B
CONST	SEGMENT
?uppercase@?$_Iosb@H@std@@2W4_Fmtflags@12@B DD 04H	; std::_Iosb<int>::uppercase
CONST	ENDS
;	COMDAT ?unitbuf@?$_Iosb@H@std@@2W4_Fmtflags@12@B
CONST	SEGMENT
?unitbuf@?$_Iosb@H@std@@2W4_Fmtflags@12@B DD 02H	; std::_Iosb<int>::unitbuf
CONST	ENDS
;	COMDAT ?skipws@?$_Iosb@H@std@@2W4_Fmtflags@12@B
CONST	SEGMENT
?skipws@?$_Iosb@H@std@@2W4_Fmtflags@12@B DD 01H		; std::_Iosb<int>::skipws
CONST	ENDS
;	COMDAT ?table_size@?$ctype@D@std@@2IB
CONST	SEGMENT
?table_size@?$ctype@D@std@@2IB DD 0100H			; std::ctype<char>::table_size
CONST	ENDS
;	COMDAT ?none@?$_Locbase@H@std@@2HB
CONST	SEGMENT
?none@?$_Locbase@H@std@@2HB DD 00H			; std::_Locbase<int>::none
CONST	ENDS
;	COMDAT ?all@?$_Locbase@H@std@@2HB
CONST	SEGMENT
?all@?$_Locbase@H@std@@2HB DD 03fH			; std::_Locbase<int>::all
CONST	ENDS
;	COMDAT ?messages@?$_Locbase@H@std@@2HB
CONST	SEGMENT
?messages@?$_Locbase@H@std@@2HB DD 020H			; std::_Locbase<int>::messages
CONST	ENDS
;	COMDAT ?time@?$_Locbase@H@std@@2HB
CONST	SEGMENT
?time@?$_Locbase@H@std@@2HB DD 010H			; std::_Locbase<int>::time
CONST	ENDS
;	COMDAT ?numeric@?$_Locbase@H@std@@2HB
CONST	SEGMENT
?numeric@?$_Locbase@H@std@@2HB DD 08H			; std::_Locbase<int>::numeric
CONST	ENDS
;	COMDAT ?monetary@?$_Locbase@H@std@@2HB
CONST	SEGMENT
?monetary@?$_Locbase@H@std@@2HB DD 04H			; std::_Locbase<int>::monetary
CONST	ENDS
;	COMDAT ?ctype@?$_Locbase@H@std@@2HB
CONST	SEGMENT
?ctype@?$_Locbase@H@std@@2HB DD 02H			; std::_Locbase<int>::ctype
CONST	ENDS
;	COMDAT ?collate@?$_Locbase@H@std@@2HB
CONST	SEGMENT
?collate@?$_Locbase@H@std@@2HB DD 01H			; std::_Locbase<int>::collate
CONST	ENDS
;	COMDAT ?_Rank@?$_Arithmetic_traits@O@std@@2HB
CONST	SEGMENT
?_Rank@?$_Arithmetic_traits@O@std@@2HB DD 09H		; std::_Arithmetic_traits<long double>::_Rank
CONST	ENDS
;	COMDAT ?_Rank@?$_Arithmetic_traits@N@std@@2HB
CONST	SEGMENT
?_Rank@?$_Arithmetic_traits@N@std@@2HB DD 08H		; std::_Arithmetic_traits<double>::_Rank
CONST	ENDS
;	COMDAT ?_Rank@?$_Arithmetic_traits@M@std@@2HB
CONST	SEGMENT
?_Rank@?$_Arithmetic_traits@M@std@@2HB DD 07H		; std::_Arithmetic_traits<float>::_Rank
CONST	ENDS
;	COMDAT ?_Rank@?$_Arithmetic_traits@_K@std@@2HB
CONST	SEGMENT
?_Rank@?$_Arithmetic_traits@_K@std@@2HB DD 06H		; std::_Arithmetic_traits<unsigned __int64>::_Rank
CONST	ENDS
;	COMDAT ?_Rank@?$_Arithmetic_traits@_J@std@@2HB
CONST	SEGMENT
?_Rank@?$_Arithmetic_traits@_J@std@@2HB DD 06H		; std::_Arithmetic_traits<__int64>::_Rank
CONST	ENDS
;	COMDAT ?_Rank@?$_Arithmetic_traits@K@std@@2HB
CONST	SEGMENT
?_Rank@?$_Arithmetic_traits@K@std@@2HB DD 05H		; std::_Arithmetic_traits<unsigned long>::_Rank
CONST	ENDS
;	COMDAT ?_Rank@?$_Arithmetic_traits@J@std@@2HB
CONST	SEGMENT
?_Rank@?$_Arithmetic_traits@J@std@@2HB DD 05H		; std::_Arithmetic_traits<long>::_Rank
CONST	ENDS
;	COMDAT ?_Rank@?$_Arithmetic_traits@I@std@@2HB
CONST	SEGMENT
?_Rank@?$_Arithmetic_traits@I@std@@2HB DD 04H		; std::_Arithmetic_traits<unsigned int>::_Rank
CONST	ENDS
;	COMDAT ?_Rank@?$_Arithmetic_traits@H@std@@2HB
CONST	SEGMENT
?_Rank@?$_Arithmetic_traits@H@std@@2HB DD 04H		; std::_Arithmetic_traits<int>::_Rank
CONST	ENDS
;	COMDAT ?_Rank@?$_Arithmetic_traits@G@std@@2HB
CONST	SEGMENT
?_Rank@?$_Arithmetic_traits@G@std@@2HB DD 03H		; std::_Arithmetic_traits<unsigned short>::_Rank
CONST	ENDS
;	COMDAT ?_Rank@?$_Arithmetic_traits@F@std@@2HB
CONST	SEGMENT
?_Rank@?$_Arithmetic_traits@F@std@@2HB DD 03H		; std::_Arithmetic_traits<short>::_Rank
CONST	ENDS
;	COMDAT ?_Rank@?$_Arithmetic_traits@E@std@@2HB
CONST	SEGMENT
?_Rank@?$_Arithmetic_traits@E@std@@2HB DD 02H		; std::_Arithmetic_traits<unsigned char>::_Rank
CONST	ENDS
;	COMDAT ?_Rank@?$_Arithmetic_traits@C@std@@2HB
CONST	SEGMENT
?_Rank@?$_Arithmetic_traits@C@std@@2HB DD 02H		; std::_Arithmetic_traits<signed char>::_Rank
CONST	ENDS
;	COMDAT ?_Rank@?$_Arithmetic_traits@D@std@@2HB
CONST	SEGMENT
?_Rank@?$_Arithmetic_traits@D@std@@2HB DD 02H		; std::_Arithmetic_traits<char>::_Rank
CONST	ENDS
;	COMDAT ?_Rank@?$_Arithmetic_traits@_N@std@@2HB
CONST	SEGMENT
?_Rank@?$_Arithmetic_traits@_N@std@@2HB DD 01H		; std::_Arithmetic_traits<bool>::_Rank
CONST	ENDS
;	COMDAT ?value@?$integral_constant@I$0A@@tr1@std@@2IB
CONST	SEGMENT
?value@?$integral_constant@I$0A@@tr1@std@@2IB DD 00H	; std::tr1::integral_constant<unsigned int,0>::value
CONST	ENDS
;	COMDAT ?value@?$integral_constant@_N$00@tr1@std@@2_NB
CONST	SEGMENT
?value@?$integral_constant@_N$00@tr1@std@@2_NB DB 01H	; std::tr1::integral_constant<bool,1>::value
CONST	ENDS
;	COMDAT ?value@?$integral_constant@_N$0A@@tr1@std@@2_NB
CONST	SEGMENT
?value@?$integral_constant@_N$0A@@tr1@std@@2_NB DB 00H	; std::tr1::integral_constant<bool,0>::value
CONST	ENDS
;	COMDAT ?min_exponent10@?$numeric_limits@O@std@@2HB
CONST	SEGMENT
?min_exponent10@?$numeric_limits@O@std@@2HB DD 0fffffecdH ; std::numeric_limits<long double>::min_exponent10
CONST	ENDS
;	COMDAT ?min_exponent@?$numeric_limits@O@std@@2HB
CONST	SEGMENT
?min_exponent@?$numeric_limits@O@std@@2HB DD 0fffffc03H	; std::numeric_limits<long double>::min_exponent
CONST	ENDS
;	COMDAT ?max_exponent10@?$numeric_limits@O@std@@2HB
CONST	SEGMENT
?max_exponent10@?$numeric_limits@O@std@@2HB DD 0134H	; std::numeric_limits<long double>::max_exponent10
CONST	ENDS
;	COMDAT ?max_exponent@?$numeric_limits@O@std@@2HB
CONST	SEGMENT
?max_exponent@?$numeric_limits@O@std@@2HB DD 0400H	; std::numeric_limits<long double>::max_exponent
CONST	ENDS
;	COMDAT ?max_digits10@?$numeric_limits@O@std@@2HB
CONST	SEGMENT
?max_digits10@?$numeric_limits@O@std@@2HB DD 011H	; std::numeric_limits<long double>::max_digits10
CONST	ENDS
;	COMDAT ?digits10@?$numeric_limits@O@std@@2HB
CONST	SEGMENT
?digits10@?$numeric_limits@O@std@@2HB DD 0fH		; std::numeric_limits<long double>::digits10
CONST	ENDS
;	COMDAT ?digits@?$numeric_limits@O@std@@2HB
CONST	SEGMENT
?digits@?$numeric_limits@O@std@@2HB DD 035H		; std::numeric_limits<long double>::digits
CONST	ENDS
;	COMDAT ?min_exponent10@?$numeric_limits@N@std@@2HB
CONST	SEGMENT
?min_exponent10@?$numeric_limits@N@std@@2HB DD 0fffffecdH ; std::numeric_limits<double>::min_exponent10
CONST	ENDS
;	COMDAT ?min_exponent@?$numeric_limits@N@std@@2HB
CONST	SEGMENT
?min_exponent@?$numeric_limits@N@std@@2HB DD 0fffffc03H	; std::numeric_limits<double>::min_exponent
CONST	ENDS
;	COMDAT ?max_exponent10@?$numeric_limits@N@std@@2HB
CONST	SEGMENT
?max_exponent10@?$numeric_limits@N@std@@2HB DD 0134H	; std::numeric_limits<double>::max_exponent10
CONST	ENDS
;	COMDAT ?max_exponent@?$numeric_limits@N@std@@2HB
CONST	SEGMENT
?max_exponent@?$numeric_limits@N@std@@2HB DD 0400H	; std::numeric_limits<double>::max_exponent
CONST	ENDS
;	COMDAT ?max_digits10@?$numeric_limits@N@std@@2HB
CONST	SEGMENT
?max_digits10@?$numeric_limits@N@std@@2HB DD 011H	; std::numeric_limits<double>::max_digits10
CONST	ENDS
;	COMDAT ?digits10@?$numeric_limits@N@std@@2HB
CONST	SEGMENT
?digits10@?$numeric_limits@N@std@@2HB DD 0fH		; std::numeric_limits<double>::digits10
CONST	ENDS
;	COMDAT ?digits@?$numeric_limits@N@std@@2HB
CONST	SEGMENT
?digits@?$numeric_limits@N@std@@2HB DD 035H		; std::numeric_limits<double>::digits
CONST	ENDS
;	COMDAT ?min_exponent10@?$numeric_limits@M@std@@2HB
CONST	SEGMENT
?min_exponent10@?$numeric_limits@M@std@@2HB DD 0ffffffdbH ; std::numeric_limits<float>::min_exponent10
CONST	ENDS
;	COMDAT ?min_exponent@?$numeric_limits@M@std@@2HB
CONST	SEGMENT
?min_exponent@?$numeric_limits@M@std@@2HB DD 0ffffff83H	; std::numeric_limits<float>::min_exponent
CONST	ENDS
;	COMDAT ?max_exponent10@?$numeric_limits@M@std@@2HB
CONST	SEGMENT
?max_exponent10@?$numeric_limits@M@std@@2HB DD 026H	; std::numeric_limits<float>::max_exponent10
CONST	ENDS
;	COMDAT ?max_exponent@?$numeric_limits@M@std@@2HB
CONST	SEGMENT
?max_exponent@?$numeric_limits@M@std@@2HB DD 080H	; std::numeric_limits<float>::max_exponent
CONST	ENDS
;	COMDAT ?max_digits10@?$numeric_limits@M@std@@2HB
CONST	SEGMENT
?max_digits10@?$numeric_limits@M@std@@2HB DD 08H	; std::numeric_limits<float>::max_digits10
CONST	ENDS
;	COMDAT ?digits10@?$numeric_limits@M@std@@2HB
CONST	SEGMENT
?digits10@?$numeric_limits@M@std@@2HB DD 06H		; std::numeric_limits<float>::digits10
CONST	ENDS
;	COMDAT ?digits@?$numeric_limits@M@std@@2HB
CONST	SEGMENT
?digits@?$numeric_limits@M@std@@2HB DD 018H		; std::numeric_limits<float>::digits
CONST	ENDS
;	COMDAT ?max_digits10@?$numeric_limits@_K@std@@2HB
CONST	SEGMENT
?max_digits10@?$numeric_limits@_K@std@@2HB DD 015H	; std::numeric_limits<unsigned __int64>::max_digits10
CONST	ENDS
;	COMDAT ?digits10@?$numeric_limits@_K@std@@2HB
CONST	SEGMENT
?digits10@?$numeric_limits@_K@std@@2HB DD 013H		; std::numeric_limits<unsigned __int64>::digits10
CONST	ENDS
;	COMDAT ?digits@?$numeric_limits@_K@std@@2HB
CONST	SEGMENT
?digits@?$numeric_limits@_K@std@@2HB DD 040H		; std::numeric_limits<unsigned __int64>::digits
CONST	ENDS
;	COMDAT ?is_signed@?$numeric_limits@_K@std@@2_NB
CONST	SEGMENT
?is_signed@?$numeric_limits@_K@std@@2_NB DB 00H		; std::numeric_limits<unsigned __int64>::is_signed
CONST	ENDS
;	COMDAT ?max_digits10@?$numeric_limits@_J@std@@2HB
CONST	SEGMENT
?max_digits10@?$numeric_limits@_J@std@@2HB DD 014H	; std::numeric_limits<__int64>::max_digits10
CONST	ENDS
;	COMDAT ?digits10@?$numeric_limits@_J@std@@2HB
CONST	SEGMENT
?digits10@?$numeric_limits@_J@std@@2HB DD 012H		; std::numeric_limits<__int64>::digits10
CONST	ENDS
;	COMDAT ?digits@?$numeric_limits@_J@std@@2HB
CONST	SEGMENT
?digits@?$numeric_limits@_J@std@@2HB DD 03fH		; std::numeric_limits<__int64>::digits
CONST	ENDS
;	COMDAT ?is_signed@?$numeric_limits@_J@std@@2_NB
CONST	SEGMENT
?is_signed@?$numeric_limits@_J@std@@2_NB DB 01H		; std::numeric_limits<__int64>::is_signed
CONST	ENDS
;	COMDAT ?max_digits10@?$numeric_limits@K@std@@2HB
CONST	SEGMENT
?max_digits10@?$numeric_limits@K@std@@2HB DD 0bH	; std::numeric_limits<unsigned long>::max_digits10
CONST	ENDS
;	COMDAT ?digits10@?$numeric_limits@K@std@@2HB
CONST	SEGMENT
?digits10@?$numeric_limits@K@std@@2HB DD 09H		; std::numeric_limits<unsigned long>::digits10
CONST	ENDS
;	COMDAT ?digits@?$numeric_limits@K@std@@2HB
CONST	SEGMENT
?digits@?$numeric_limits@K@std@@2HB DD 020H		; std::numeric_limits<unsigned long>::digits
CONST	ENDS
;	COMDAT ?is_signed@?$numeric_limits@K@std@@2_NB
CONST	SEGMENT
?is_signed@?$numeric_limits@K@std@@2_NB DB 00H		; std::numeric_limits<unsigned long>::is_signed
CONST	ENDS
;	COMDAT ?max_digits10@?$numeric_limits@J@std@@2HB
CONST	SEGMENT
?max_digits10@?$numeric_limits@J@std@@2HB DD 0bH	; std::numeric_limits<long>::max_digits10
CONST	ENDS
;	COMDAT ?digits10@?$numeric_limits@J@std@@2HB
CONST	SEGMENT
?digits10@?$numeric_limits@J@std@@2HB DD 09H		; std::numeric_limits<long>::digits10
CONST	ENDS
;	COMDAT ?digits@?$numeric_limits@J@std@@2HB
CONST	SEGMENT
?digits@?$numeric_limits@J@std@@2HB DD 01fH		; std::numeric_limits<long>::digits
CONST	ENDS
;	COMDAT ?is_signed@?$numeric_limits@J@std@@2_NB
CONST	SEGMENT
?is_signed@?$numeric_limits@J@std@@2_NB DB 01H		; std::numeric_limits<long>::is_signed
CONST	ENDS
;	COMDAT ?max_digits10@?$numeric_limits@I@std@@2HB
CONST	SEGMENT
?max_digits10@?$numeric_limits@I@std@@2HB DD 0bH	; std::numeric_limits<unsigned int>::max_digits10
CONST	ENDS
;	COMDAT ?digits10@?$numeric_limits@I@std@@2HB
CONST	SEGMENT
?digits10@?$numeric_limits@I@std@@2HB DD 09H		; std::numeric_limits<unsigned int>::digits10
CONST	ENDS
;	COMDAT ?digits@?$numeric_limits@I@std@@2HB
CONST	SEGMENT
?digits@?$numeric_limits@I@std@@2HB DD 020H		; std::numeric_limits<unsigned int>::digits
CONST	ENDS
;	COMDAT ?is_signed@?$numeric_limits@I@std@@2_NB
CONST	SEGMENT
?is_signed@?$numeric_limits@I@std@@2_NB DB 00H		; std::numeric_limits<unsigned int>::is_signed
CONST	ENDS
;	COMDAT ?max_digits10@?$numeric_limits@H@std@@2HB
CONST	SEGMENT
?max_digits10@?$numeric_limits@H@std@@2HB DD 0bH	; std::numeric_limits<int>::max_digits10
CONST	ENDS
;	COMDAT ?digits10@?$numeric_limits@H@std@@2HB
CONST	SEGMENT
?digits10@?$numeric_limits@H@std@@2HB DD 09H		; std::numeric_limits<int>::digits10
CONST	ENDS
;	COMDAT ?digits@?$numeric_limits@H@std@@2HB
CONST	SEGMENT
?digits@?$numeric_limits@H@std@@2HB DD 01fH		; std::numeric_limits<int>::digits
CONST	ENDS
;	COMDAT ?is_signed@?$numeric_limits@H@std@@2_NB
CONST	SEGMENT
?is_signed@?$numeric_limits@H@std@@2_NB DB 01H		; std::numeric_limits<int>::is_signed
CONST	ENDS
;	COMDAT ?max_digits10@?$numeric_limits@G@std@@2HB
CONST	SEGMENT
?max_digits10@?$numeric_limits@G@std@@2HB DD 06H	; std::numeric_limits<unsigned short>::max_digits10
CONST	ENDS
;	COMDAT ?digits10@?$numeric_limits@G@std@@2HB
CONST	SEGMENT
?digits10@?$numeric_limits@G@std@@2HB DD 04H		; std::numeric_limits<unsigned short>::digits10
CONST	ENDS
;	COMDAT ?digits@?$numeric_limits@G@std@@2HB
CONST	SEGMENT
?digits@?$numeric_limits@G@std@@2HB DD 010H		; std::numeric_limits<unsigned short>::digits
CONST	ENDS
;	COMDAT ?is_signed@?$numeric_limits@G@std@@2_NB
CONST	SEGMENT
?is_signed@?$numeric_limits@G@std@@2_NB DB 00H		; std::numeric_limits<unsigned short>::is_signed
CONST	ENDS
;	COMDAT ?max_digits10@?$numeric_limits@F@std@@2HB
CONST	SEGMENT
?max_digits10@?$numeric_limits@F@std@@2HB DD 06H	; std::numeric_limits<short>::max_digits10
CONST	ENDS
;	COMDAT ?digits10@?$numeric_limits@F@std@@2HB
CONST	SEGMENT
?digits10@?$numeric_limits@F@std@@2HB DD 04H		; std::numeric_limits<short>::digits10
CONST	ENDS
;	COMDAT ?digits@?$numeric_limits@F@std@@2HB
CONST	SEGMENT
?digits@?$numeric_limits@F@std@@2HB DD 0fH		; std::numeric_limits<short>::digits
CONST	ENDS
;	COMDAT ?is_signed@?$numeric_limits@F@std@@2_NB
CONST	SEGMENT
?is_signed@?$numeric_limits@F@std@@2_NB DB 01H		; std::numeric_limits<short>::is_signed
CONST	ENDS
;	COMDAT ?max_digits10@?$numeric_limits@E@std@@2HB
CONST	SEGMENT
?max_digits10@?$numeric_limits@E@std@@2HB DD 04H	; std::numeric_limits<unsigned char>::max_digits10
CONST	ENDS
;	COMDAT ?digits10@?$numeric_limits@E@std@@2HB
CONST	SEGMENT
?digits10@?$numeric_limits@E@std@@2HB DD 02H		; std::numeric_limits<unsigned char>::digits10
CONST	ENDS
;	COMDAT ?digits@?$numeric_limits@E@std@@2HB
CONST	SEGMENT
?digits@?$numeric_limits@E@std@@2HB DD 08H		; std::numeric_limits<unsigned char>::digits
CONST	ENDS
;	COMDAT ?is_signed@?$numeric_limits@E@std@@2_NB
CONST	SEGMENT
?is_signed@?$numeric_limits@E@std@@2_NB DB 00H		; std::numeric_limits<unsigned char>::is_signed
CONST	ENDS
;	COMDAT ?max_digits10@?$numeric_limits@C@std@@2HB
CONST	SEGMENT
?max_digits10@?$numeric_limits@C@std@@2HB DD 04H	; std::numeric_limits<signed char>::max_digits10
CONST	ENDS
;	COMDAT ?digits10@?$numeric_limits@C@std@@2HB
CONST	SEGMENT
?digits10@?$numeric_limits@C@std@@2HB DD 02H		; std::numeric_limits<signed char>::digits10
CONST	ENDS
;	COMDAT ?digits@?$numeric_limits@C@std@@2HB
CONST	SEGMENT
?digits@?$numeric_limits@C@std@@2HB DD 07H		; std::numeric_limits<signed char>::digits
CONST	ENDS
;	COMDAT ?is_signed@?$numeric_limits@C@std@@2_NB
CONST	SEGMENT
?is_signed@?$numeric_limits@C@std@@2_NB DB 01H		; std::numeric_limits<signed char>::is_signed
CONST	ENDS
;	COMDAT ?max_digits10@?$numeric_limits@_N@std@@2HB
CONST	SEGMENT
?max_digits10@?$numeric_limits@_N@std@@2HB DD 00H	; std::numeric_limits<bool>::max_digits10
CONST	ENDS
;	COMDAT ?digits10@?$numeric_limits@_N@std@@2HB
CONST	SEGMENT
?digits10@?$numeric_limits@_N@std@@2HB DD 00H		; std::numeric_limits<bool>::digits10
CONST	ENDS
;	COMDAT ?digits@?$numeric_limits@_N@std@@2HB
CONST	SEGMENT
?digits@?$numeric_limits@_N@std@@2HB DD 01H		; std::numeric_limits<bool>::digits
CONST	ENDS
;	COMDAT ?is_signed@?$numeric_limits@_N@std@@2_NB
CONST	SEGMENT
?is_signed@?$numeric_limits@_N@std@@2_NB DB 00H		; std::numeric_limits<bool>::is_signed
CONST	ENDS
;	COMDAT ?is_modulo@?$numeric_limits@_N@std@@2_NB
CONST	SEGMENT
?is_modulo@?$numeric_limits@_N@std@@2_NB DB 00H		; std::numeric_limits<bool>::is_modulo
CONST	ENDS
;	COMDAT ?max_digits10@?$numeric_limits@_W@std@@2HB
CONST	SEGMENT
?max_digits10@?$numeric_limits@_W@std@@2HB DD 06H	; std::numeric_limits<wchar_t>::max_digits10
CONST	ENDS
;	COMDAT ?digits10@?$numeric_limits@_W@std@@2HB
CONST	SEGMENT
?digits10@?$numeric_limits@_W@std@@2HB DD 04H		; std::numeric_limits<wchar_t>::digits10
CONST	ENDS
;	COMDAT ?digits@?$numeric_limits@_W@std@@2HB
CONST	SEGMENT
?digits@?$numeric_limits@_W@std@@2HB DD 010H		; std::numeric_limits<wchar_t>::digits
CONST	ENDS
;	COMDAT ?is_signed@?$numeric_limits@_W@std@@2_NB
CONST	SEGMENT
?is_signed@?$numeric_limits@_W@std@@2_NB DB 00H		; std::numeric_limits<wchar_t>::is_signed
CONST	ENDS
;	COMDAT ?max_digits10@?$numeric_limits@D@std@@2HB
CONST	SEGMENT
?max_digits10@?$numeric_limits@D@std@@2HB DD 04H	; std::numeric_limits<char>::max_digits10
CONST	ENDS
;	COMDAT ?digits10@?$numeric_limits@D@std@@2HB
CONST	SEGMENT
?digits10@?$numeric_limits@D@std@@2HB DD 02H		; std::numeric_limits<char>::digits10
CONST	ENDS
;	COMDAT ?digits@?$numeric_limits@D@std@@2HB
CONST	SEGMENT
?digits@?$numeric_limits@D@std@@2HB DD 07H		; std::numeric_limits<char>::digits
CONST	ENDS
;	COMDAT ?is_signed@?$numeric_limits@D@std@@2_NB
CONST	SEGMENT
?is_signed@?$numeric_limits@D@std@@2_NB DB 01H		; std::numeric_limits<char>::is_signed
CONST	ENDS
;	COMDAT ?radix@_Num_float_base@std@@2HB
CONST	SEGMENT
?radix@_Num_float_base@std@@2HB DD 02H			; std::_Num_float_base::radix
CONST	ENDS
;	COMDAT ?round_style@_Num_float_base@std@@2W4float_round_style@2@B
CONST	SEGMENT
?round_style@_Num_float_base@std@@2W4float_round_style@2@B DD 01H ; std::_Num_float_base::round_style
CONST	ENDS
;	COMDAT ?traps@_Num_float_base@std@@2_NB
CONST	SEGMENT
?traps@_Num_float_base@std@@2_NB DB 01H			; std::_Num_float_base::traps
CONST	ENDS
;	COMDAT ?tinyness_before@_Num_float_base@std@@2_NB
CONST	SEGMENT
?tinyness_before@_Num_float_base@std@@2_NB DB 01H	; std::_Num_float_base::tinyness_before
CONST	ENDS
;	COMDAT ?is_specialized@_Num_float_base@std@@2_NB
CONST	SEGMENT
?is_specialized@_Num_float_base@std@@2_NB DB 01H	; std::_Num_float_base::is_specialized
CONST	ENDS
;	COMDAT ?is_signed@_Num_float_base@std@@2_NB
CONST	SEGMENT
?is_signed@_Num_float_base@std@@2_NB DB 01H		; std::_Num_float_base::is_signed
CONST	ENDS
;	COMDAT ?is_modulo@_Num_float_base@std@@2_NB
CONST	SEGMENT
?is_modulo@_Num_float_base@std@@2_NB DB 00H		; std::_Num_float_base::is_modulo
CONST	ENDS
;	COMDAT ?is_integer@_Num_float_base@std@@2_NB
CONST	SEGMENT
?is_integer@_Num_float_base@std@@2_NB DB 00H		; std::_Num_float_base::is_integer
CONST	ENDS
;	COMDAT ?is_iec559@_Num_float_base@std@@2_NB
CONST	SEGMENT
?is_iec559@_Num_float_base@std@@2_NB DB 01H		; std::_Num_float_base::is_iec559
CONST	ENDS
;	COMDAT ?is_exact@_Num_float_base@std@@2_NB
CONST	SEGMENT
?is_exact@_Num_float_base@std@@2_NB DB 00H		; std::_Num_float_base::is_exact
CONST	ENDS
;	COMDAT ?is_bounded@_Num_float_base@std@@2_NB
CONST	SEGMENT
?is_bounded@_Num_float_base@std@@2_NB DB 01H		; std::_Num_float_base::is_bounded
CONST	ENDS
;	COMDAT ?has_signaling_NaN@_Num_float_base@std@@2_NB
CONST	SEGMENT
?has_signaling_NaN@_Num_float_base@std@@2_NB DB 01H	; std::_Num_float_base::has_signaling_NaN
CONST	ENDS
;	COMDAT ?has_quiet_NaN@_Num_float_base@std@@2_NB
CONST	SEGMENT
?has_quiet_NaN@_Num_float_base@std@@2_NB DB 01H		; std::_Num_float_base::has_quiet_NaN
CONST	ENDS
;	COMDAT ?has_infinity@_Num_float_base@std@@2_NB
CONST	SEGMENT
?has_infinity@_Num_float_base@std@@2_NB DB 01H		; std::_Num_float_base::has_infinity
CONST	ENDS
;	COMDAT ?has_denorm_loss@_Num_float_base@std@@2_NB
CONST	SEGMENT
?has_denorm_loss@_Num_float_base@std@@2_NB DB 01H	; std::_Num_float_base::has_denorm_loss
CONST	ENDS
;	COMDAT ?has_denorm@_Num_float_base@std@@2W4float_denorm_style@2@B
CONST	SEGMENT
?has_denorm@_Num_float_base@std@@2W4float_denorm_style@2@B DD 01H ; std::_Num_float_base::has_denorm
CONST	ENDS
;	COMDAT ?radix@_Num_int_base@std@@2HB
CONST	SEGMENT
?radix@_Num_int_base@std@@2HB DD 02H			; std::_Num_int_base::radix
CONST	ENDS
;	COMDAT ?is_specialized@_Num_int_base@std@@2_NB
CONST	SEGMENT
?is_specialized@_Num_int_base@std@@2_NB DB 01H		; std::_Num_int_base::is_specialized
CONST	ENDS
;	COMDAT ?is_modulo@_Num_int_base@std@@2_NB
CONST	SEGMENT
?is_modulo@_Num_int_base@std@@2_NB DB 01H		; std::_Num_int_base::is_modulo
CONST	ENDS
;	COMDAT ?is_integer@_Num_int_base@std@@2_NB
CONST	SEGMENT
?is_integer@_Num_int_base@std@@2_NB DB 01H		; std::_Num_int_base::is_integer
CONST	ENDS
;	COMDAT ?is_exact@_Num_int_base@std@@2_NB
CONST	SEGMENT
?is_exact@_Num_int_base@std@@2_NB DB 01H		; std::_Num_int_base::is_exact
CONST	ENDS
;	COMDAT ?is_bounded@_Num_int_base@std@@2_NB
CONST	SEGMENT
?is_bounded@_Num_int_base@std@@2_NB DB 01H		; std::_Num_int_base::is_bounded
CONST	ENDS
;	COMDAT ?radix@_Num_base@std@@2HB
CONST	SEGMENT
?radix@_Num_base@std@@2HB DD 00H			; std::_Num_base::radix
CONST	ENDS
;	COMDAT ?min_exponent10@_Num_base@std@@2HB
CONST	SEGMENT
?min_exponent10@_Num_base@std@@2HB DD 00H		; std::_Num_base::min_exponent10
CONST	ENDS
;	COMDAT ?min_exponent@_Num_base@std@@2HB
CONST	SEGMENT
?min_exponent@_Num_base@std@@2HB DD 00H			; std::_Num_base::min_exponent
CONST	ENDS
;	COMDAT ?max_exponent10@_Num_base@std@@2HB
CONST	SEGMENT
?max_exponent10@_Num_base@std@@2HB DD 00H		; std::_Num_base::max_exponent10
CONST	ENDS
;	COMDAT ?max_exponent@_Num_base@std@@2HB
CONST	SEGMENT
?max_exponent@_Num_base@std@@2HB DD 00H			; std::_Num_base::max_exponent
CONST	ENDS
;	COMDAT ?max_digits10@_Num_base@std@@2HB
CONST	SEGMENT
?max_digits10@_Num_base@std@@2HB DD 00H			; std::_Num_base::max_digits10
CONST	ENDS
;	COMDAT ?digits10@_Num_base@std@@2HB
CONST	SEGMENT
?digits10@_Num_base@std@@2HB DD 00H			; std::_Num_base::digits10
CONST	ENDS
;	COMDAT ?digits@_Num_base@std@@2HB
CONST	SEGMENT
?digits@_Num_base@std@@2HB DD 00H			; std::_Num_base::digits
CONST	ENDS
;	COMDAT ?round_style@_Num_base@std@@2W4float_round_style@2@B
CONST	SEGMENT
?round_style@_Num_base@std@@2W4float_round_style@2@B DD 00H ; std::_Num_base::round_style
CONST	ENDS
;	COMDAT ?traps@_Num_base@std@@2_NB
CONST	SEGMENT
?traps@_Num_base@std@@2_NB DB 00H			; std::_Num_base::traps
CONST	ENDS
;	COMDAT ?tinyness_before@_Num_base@std@@2_NB
CONST	SEGMENT
?tinyness_before@_Num_base@std@@2_NB DB 00H		; std::_Num_base::tinyness_before
CONST	ENDS
;	COMDAT ?is_specialized@_Num_base@std@@2_NB
CONST	SEGMENT
?is_specialized@_Num_base@std@@2_NB DB 00H		; std::_Num_base::is_specialized
CONST	ENDS
;	COMDAT ?is_signed@_Num_base@std@@2_NB
CONST	SEGMENT
?is_signed@_Num_base@std@@2_NB DB 00H			; std::_Num_base::is_signed
CONST	ENDS
;	COMDAT ?is_modulo@_Num_base@std@@2_NB
CONST	SEGMENT
?is_modulo@_Num_base@std@@2_NB DB 00H			; std::_Num_base::is_modulo
CONST	ENDS
;	COMDAT ?is_integer@_Num_base@std@@2_NB
CONST	SEGMENT
?is_integer@_Num_base@std@@2_NB DB 00H			; std::_Num_base::is_integer
CONST	ENDS
;	COMDAT ?is_iec559@_Num_base@std@@2_NB
CONST	SEGMENT
?is_iec559@_Num_base@std@@2_NB DB 00H			; std::_Num_base::is_iec559
CONST	ENDS
;	COMDAT ?is_exact@_Num_base@std@@2_NB
CONST	SEGMENT
?is_exact@_Num_base@std@@2_NB DB 00H			; std::_Num_base::is_exact
CONST	ENDS
;	COMDAT ?is_bounded@_Num_base@std@@2_NB
CONST	SEGMENT
?is_bounded@_Num_base@std@@2_NB DB 00H			; std::_Num_base::is_bounded
CONST	ENDS
;	COMDAT ?has_signaling_NaN@_Num_base@std@@2_NB
CONST	SEGMENT
?has_signaling_NaN@_Num_base@std@@2_NB DB 00H		; std::_Num_base::has_signaling_NaN
CONST	ENDS
;	COMDAT ?has_quiet_NaN@_Num_base@std@@2_NB
CONST	SEGMENT
?has_quiet_NaN@_Num_base@std@@2_NB DB 00H		; std::_Num_base::has_quiet_NaN
CONST	ENDS
;	COMDAT ?has_infinity@_Num_base@std@@2_NB
CONST	SEGMENT
?has_infinity@_Num_base@std@@2_NB DB 00H		; std::_Num_base::has_infinity
CONST	ENDS
;	COMDAT ?has_denorm_loss@_Num_base@std@@2_NB
CONST	SEGMENT
?has_denorm_loss@_Num_base@std@@2_NB DB 00H		; std::_Num_base::has_denorm_loss
CONST	ENDS
;	COMDAT ?has_denorm@_Num_base@std@@2W4float_denorm_style@2@B
CONST	SEGMENT
?has_denorm@_Num_base@std@@2W4float_denorm_style@2@B DD 00H ; std::_Num_base::has_denorm
CONST	ENDS
PUBLIC	??1?$vector@PAVOptimization@@V?$allocator@PAVOptimization@@@std@@@std@@QAE@XZ ; std::vector<Optimization *,std::allocator<Optimization *> >::~vector<Optimization *,std::allocator<Optimization *> >
PUBLIC	??1?$vector@PAVAsmCmd@@V?$allocator@PAVAsmCmd@@@std@@@std@@QAE@XZ ; std::vector<AsmCmd *,std::allocator<AsmCmd *> >::~vector<AsmCmd *,std::allocator<AsmCmd *> >
PUBLIC	??0ReplaceMovPushWithPush@@QAE@XZ		; ReplaceMovPushWithPush::ReplaceMovPushWithPush
PUBLIC	??0ReplacePushPopWithMov@@QAE@XZ		; ReplacePushPopWithMov::ReplacePushPopWithMov
PUBLIC	??0DeletePushPop@@QAE@XZ			; DeletePushPop::DeletePushPop
PUBLIC	??0ReplaceIMUL@@QAE@XZ				; ReplaceIMUL::ReplaceIMUL
PUBLIC	??0ReplaceMulToZero@@QAE@XZ			; ReplaceMulToZero::ReplaceMulToZero
PUBLIC	??0ReplaceCmpWithZero@@QAE@XZ			; ReplaceCmpWithZero::ReplaceCmpWithZero
PUBLIC	??0ReplaceMovConst@@QAE@XZ			; ReplaceMovConst::ReplaceMovConst
PUBLIC	??0ReplaceSubWithOne@@QAE@XZ			; ReplaceSubWithOne::ReplaceSubWithOne
PUBLIC	??0ReplaceAddWithOne@@QAE@XZ			; ReplaceAddWithOne::ReplaceAddWithOne
PUBLIC	??0ReplaceNEG@@QAE@XZ				; ReplaceNEG::ReplaceNEG
PUBLIC	??0ReplaceCDQ@@QAE@XZ				; ReplaceCDQ::ReplaceCDQ
PUBLIC	??0DeleteMultWithOne@@QAE@XZ			; DeleteMultWithOne::DeleteMultWithOne
PUBLIC	??0DeleteSubWithZero@@QAE@XZ			; DeleteSubWithZero::DeleteSubWithZero
PUBLIC	?push_back@?$vector@PAVOptimization@@V?$allocator@PAVOptimization@@@std@@@std@@QAEX$$QAPAVOptimization@@@Z ; std::vector<Optimization *,std::allocator<Optimization *> >::push_back
PUBLIC	??0DeleteAddWithZero@@QAE@XZ			; DeleteAddWithZero::DeleteAddWithZero
PUBLIC	??0?$vector@PAVOptimization@@V?$allocator@PAVOptimization@@@std@@@std@@QAE@XZ ; std::vector<Optimization *,std::allocator<Optimization *> >::vector<Optimization *,std::allocator<Optimization *> >
PUBLIC	??0?$vector@PAVAsmCmd@@V?$allocator@PAVAsmCmd@@@std@@@std@@QAE@XZ ; std::vector<AsmCmd *,std::allocator<AsmCmd *> >::vector<AsmCmd *,std::allocator<AsmCmd *> >
PUBLIC	??0Peephole@@QAE@PAVAsmCode@@@Z			; Peephole::Peephole
EXTRN	??2@YAPAXI@Z:PROC				; operator new
EXTRN	___security_cookie:DWORD
EXTRN	___CxxFrameHandler3:PROC
EXTRN	@__security_check_cookie@4:PROC
EXTRN	__RTC_CheckEsp:PROC
EXTRN	__RTC_Shutdown:PROC
EXTRN	__RTC_InitBase:PROC
;	COMDAT xdata$x
; File c:\users\дмитрий\documents\visual studio 2010\projects\scanner\scanner\ll_optimizer.cpp
xdata$x	SEGMENT
__unwindtable$??0Peephole@@QAE@PAVAsmCode@@@Z DD 0ffffffffH
	DD	FLAT:__unwindfunclet$??0Peephole@@QAE@PAVAsmCode@@@Z$0
	DD	00H
	DD	FLAT:__unwindfunclet$??0Peephole@@QAE@PAVAsmCode@@@Z$1
__ehfuncinfo$??0Peephole@@QAE@PAVAsmCode@@@Z DD 019930522H
	DD	02H
	DD	FLAT:__unwindtable$??0Peephole@@QAE@PAVAsmCode@@@Z
	DD	2 DUP(00H)
	DD	2 DUP(00H)
	DD	00H
	DD	01H
xdata$x	ENDS
;	COMDAT rtc$TMZ
rtc$TMZ	SEGMENT
__RTC_Shutdown.rtc$TMZ DD FLAT:__RTC_Shutdown
rtc$TMZ	ENDS
;	COMDAT rtc$IMZ
rtc$IMZ	SEGMENT
__RTC_InitBase.rtc$IMZ DD FLAT:__RTC_InitBase
; Function compile flags: /Odtp /RTCsu /ZI
rtc$IMZ	ENDS
;	COMDAT ??0Peephole@@QAE@PAVAsmCode@@@Z
_TEXT	SEGMENT
tv284 = -556						; size = 4
tv271 = -556						; size = 4
tv258 = -556						; size = 4
tv245 = -556						; size = 4
tv232 = -556						; size = 4
tv219 = -556						; size = 4
tv206 = -556						; size = 4
tv193 = -556						; size = 4
tv180 = -556						; size = 4
tv167 = -556						; size = 4
tv154 = -556						; size = 4
tv141 = -556						; size = 4
tv128 = -556						; size = 4
tv83 = -556						; size = 4
$T64776 = -548						; size = 4
$T64777 = -536						; size = 4
$T64780 = -524						; size = 4
$T64781 = -512						; size = 4
$T64784 = -500						; size = 4
$T64785 = -488						; size = 4
$T64788 = -476						; size = 4
$T64789 = -464						; size = 4
$T64792 = -452						; size = 4
$T64793 = -440						; size = 4
$T64796 = -428						; size = 4
$T64797 = -416						; size = 4
$T64800 = -404						; size = 4
$T64801 = -392						; size = 4
$T64804 = -380						; size = 4
$T64805 = -368						; size = 4
$T64808 = -356						; size = 4
$T64809 = -344						; size = 4
$T64812 = -332						; size = 4
$T64813 = -320						; size = 4
$T64816 = -308						; size = 4
$T64817 = -296						; size = 4
$T64820 = -284						; size = 4
$T64821 = -272						; size = 4
$T64824 = -260						; size = 4
$T64825 = -248						; size = 4
$T64828 = -236						; size = 4
$T64829 = -224						; size = 4
_this$ = -20						; size = 4
__$EHRec$ = -12						; size = 12
_gen_$ = 8						; size = 4
??0Peephole@@QAE@PAVAsmCode@@@Z PROC			; Peephole::Peephole, COMDAT
; _this$ = ecx
; Line 4
	push	ebp
	mov	ebp, esp
	push	-1
	push	__ehhandler$??0Peephole@@QAE@PAVAsmCode@@@Z
	mov	eax, DWORD PTR fs:0
	push	eax
	sub	esp, 544				; 00000220H
	push	ebx
	push	esi
	push	edi
	push	ecx
	lea	edi, DWORD PTR [ebp-556]
	mov	ecx, 136				; 00000088H
	mov	eax, -858993460				; ccccccccH
	rep stosd
	pop	ecx
	mov	eax, DWORD PTR ___security_cookie
	xor	eax, ebp
	push	eax
	lea	eax, DWORD PTR __$EHRec$[ebp]
	mov	DWORD PTR fs:0, eax
	mov	DWORD PTR _this$[ebp], ecx
	mov	ecx, DWORD PTR _this$[ebp]
	call	??0?$vector@PAVAsmCmd@@V?$allocator@PAVAsmCmd@@@std@@@std@@QAE@XZ ; std::vector<AsmCmd *,std::allocator<AsmCmd *> >::vector<AsmCmd *,std::allocator<AsmCmd *> >
	mov	DWORD PTR __$EHRec$[ebp+8], 0
	mov	ecx, DWORD PTR _this$[ebp]
	add	ecx, 32					; 00000020H
	call	??0?$vector@PAVOptimization@@V?$allocator@PAVOptimization@@@std@@@std@@QAE@XZ ; std::vector<Optimization *,std::allocator<Optimization *> >::vector<Optimization *,std::allocator<Optimization *> >
	mov	BYTE PTR __$EHRec$[ebp+8], 1
; Line 5
	mov	eax, DWORD PTR _this$[ebp]
	mov	ecx, DWORD PTR _gen_$[ebp]
	mov	DWORD PTR [eax+20], ecx
; Line 6
	push	4
	call	??2@YAPAXI@Z				; operator new
	add	esp, 4
	mov	DWORD PTR $T64777[ebp], eax
	cmp	DWORD PTR $T64777[ebp], 0
	je	SHORT $LN3@Peephole
	mov	ecx, DWORD PTR $T64777[ebp]
	call	??0DeleteAddWithZero@@QAE@XZ
	mov	DWORD PTR tv83[ebp], eax
	jmp	SHORT $LN4@Peephole
$LN3@Peephole:
	mov	DWORD PTR tv83[ebp], 0
$LN4@Peephole:
	mov	eax, DWORD PTR tv83[ebp]
	mov	DWORD PTR $T64776[ebp], eax
	lea	ecx, DWORD PTR $T64776[ebp]
	push	ecx
	mov	ecx, DWORD PTR _this$[ebp]
	add	ecx, 32					; 00000020H
	call	?push_back@?$vector@PAVOptimization@@V?$allocator@PAVOptimization@@@std@@@std@@QAEX$$QAPAVOptimization@@@Z ; std::vector<Optimization *,std::allocator<Optimization *> >::push_back
; Line 7
	push	4
	call	??2@YAPAXI@Z				; operator new
	add	esp, 4
	mov	DWORD PTR $T64781[ebp], eax
	cmp	DWORD PTR $T64781[ebp], 0
	je	SHORT $LN5@Peephole
	mov	ecx, DWORD PTR $T64781[ebp]
	call	??0DeleteSubWithZero@@QAE@XZ
	mov	DWORD PTR tv128[ebp], eax
	jmp	SHORT $LN6@Peephole
$LN5@Peephole:
	mov	DWORD PTR tv128[ebp], 0
$LN6@Peephole:
	mov	eax, DWORD PTR tv128[ebp]
	mov	DWORD PTR $T64780[ebp], eax
	lea	ecx, DWORD PTR $T64780[ebp]
	push	ecx
	mov	ecx, DWORD PTR _this$[ebp]
	add	ecx, 32					; 00000020H
	call	?push_back@?$vector@PAVOptimization@@V?$allocator@PAVOptimization@@@std@@@std@@QAEX$$QAPAVOptimization@@@Z ; std::vector<Optimization *,std::allocator<Optimization *> >::push_back
; Line 8
	push	4
	call	??2@YAPAXI@Z				; operator new
	add	esp, 4
	mov	DWORD PTR $T64785[ebp], eax
	cmp	DWORD PTR $T64785[ebp], 0
	je	SHORT $LN7@Peephole
	mov	ecx, DWORD PTR $T64785[ebp]
	call	??0DeleteMultWithOne@@QAE@XZ
	mov	DWORD PTR tv141[ebp], eax
	jmp	SHORT $LN8@Peephole
$LN7@Peephole:
	mov	DWORD PTR tv141[ebp], 0
$LN8@Peephole:
	mov	eax, DWORD PTR tv141[ebp]
	mov	DWORD PTR $T64784[ebp], eax
	lea	ecx, DWORD PTR $T64784[ebp]
	push	ecx
	mov	ecx, DWORD PTR _this$[ebp]
	add	ecx, 32					; 00000020H
	call	?push_back@?$vector@PAVOptimization@@V?$allocator@PAVOptimization@@@std@@@std@@QAEX$$QAPAVOptimization@@@Z ; std::vector<Optimization *,std::allocator<Optimization *> >::push_back
; Line 9
	push	4
	call	??2@YAPAXI@Z				; operator new
	add	esp, 4
	mov	DWORD PTR $T64789[ebp], eax
	cmp	DWORD PTR $T64789[ebp], 0
	je	SHORT $LN9@Peephole
	mov	ecx, DWORD PTR $T64789[ebp]
	call	??0ReplaceCDQ@@QAE@XZ
	mov	DWORD PTR tv154[ebp], eax
	jmp	SHORT $LN10@Peephole
$LN9@Peephole:
	mov	DWORD PTR tv154[ebp], 0
$LN10@Peephole:
	mov	eax, DWORD PTR tv154[ebp]
	mov	DWORD PTR $T64788[ebp], eax
	lea	ecx, DWORD PTR $T64788[ebp]
	push	ecx
	mov	ecx, DWORD PTR _this$[ebp]
	add	ecx, 32					; 00000020H
	call	?push_back@?$vector@PAVOptimization@@V?$allocator@PAVOptimization@@@std@@@std@@QAEX$$QAPAVOptimization@@@Z ; std::vector<Optimization *,std::allocator<Optimization *> >::push_back
; Line 10
	push	4
	call	??2@YAPAXI@Z				; operator new
	add	esp, 4
	mov	DWORD PTR $T64793[ebp], eax
	cmp	DWORD PTR $T64793[ebp], 0
	je	SHORT $LN11@Peephole
	mov	ecx, DWORD PTR $T64793[ebp]
	call	??0ReplaceNEG@@QAE@XZ
	mov	DWORD PTR tv167[ebp], eax
	jmp	SHORT $LN12@Peephole
$LN11@Peephole:
	mov	DWORD PTR tv167[ebp], 0
$LN12@Peephole:
	mov	eax, DWORD PTR tv167[ebp]
	mov	DWORD PTR $T64792[ebp], eax
	lea	ecx, DWORD PTR $T64792[ebp]
	push	ecx
	mov	ecx, DWORD PTR _this$[ebp]
	add	ecx, 32					; 00000020H
	call	?push_back@?$vector@PAVOptimization@@V?$allocator@PAVOptimization@@@std@@@std@@QAEX$$QAPAVOptimization@@@Z ; std::vector<Optimization *,std::allocator<Optimization *> >::push_back
; Line 11
	push	4
	call	??2@YAPAXI@Z				; operator new
	add	esp, 4
	mov	DWORD PTR $T64797[ebp], eax
	cmp	DWORD PTR $T64797[ebp], 0
	je	SHORT $LN13@Peephole
	mov	ecx, DWORD PTR $T64797[ebp]
	call	??0ReplaceAddWithOne@@QAE@XZ
	mov	DWORD PTR tv180[ebp], eax
	jmp	SHORT $LN14@Peephole
$LN13@Peephole:
	mov	DWORD PTR tv180[ebp], 0
$LN14@Peephole:
	mov	eax, DWORD PTR tv180[ebp]
	mov	DWORD PTR $T64796[ebp], eax
	lea	ecx, DWORD PTR $T64796[ebp]
	push	ecx
	mov	ecx, DWORD PTR _this$[ebp]
	add	ecx, 32					; 00000020H
	call	?push_back@?$vector@PAVOptimization@@V?$allocator@PAVOptimization@@@std@@@std@@QAEX$$QAPAVOptimization@@@Z ; std::vector<Optimization *,std::allocator<Optimization *> >::push_back
; Line 12
	push	4
	call	??2@YAPAXI@Z				; operator new
	add	esp, 4
	mov	DWORD PTR $T64801[ebp], eax
	cmp	DWORD PTR $T64801[ebp], 0
	je	SHORT $LN15@Peephole
	mov	ecx, DWORD PTR $T64801[ebp]
	call	??0ReplaceSubWithOne@@QAE@XZ
	mov	DWORD PTR tv193[ebp], eax
	jmp	SHORT $LN16@Peephole
$LN15@Peephole:
	mov	DWORD PTR tv193[ebp], 0
$LN16@Peephole:
	mov	eax, DWORD PTR tv193[ebp]
	mov	DWORD PTR $T64800[ebp], eax
	lea	ecx, DWORD PTR $T64800[ebp]
	push	ecx
	mov	ecx, DWORD PTR _this$[ebp]
	add	ecx, 32					; 00000020H
	call	?push_back@?$vector@PAVOptimization@@V?$allocator@PAVOptimization@@@std@@@std@@QAEX$$QAPAVOptimization@@@Z ; std::vector<Optimization *,std::allocator<Optimization *> >::push_back
; Line 13
	push	4
	call	??2@YAPAXI@Z				; operator new
	add	esp, 4
	mov	DWORD PTR $T64805[ebp], eax
	cmp	DWORD PTR $T64805[ebp], 0
	je	SHORT $LN17@Peephole
	mov	ecx, DWORD PTR $T64805[ebp]
	call	??0ReplaceMovConst@@QAE@XZ
	mov	DWORD PTR tv206[ebp], eax
	jmp	SHORT $LN18@Peephole
$LN17@Peephole:
	mov	DWORD PTR tv206[ebp], 0
$LN18@Peephole:
	mov	eax, DWORD PTR tv206[ebp]
	mov	DWORD PTR $T64804[ebp], eax
	lea	ecx, DWORD PTR $T64804[ebp]
	push	ecx
	mov	ecx, DWORD PTR _this$[ebp]
	add	ecx, 32					; 00000020H
	call	?push_back@?$vector@PAVOptimization@@V?$allocator@PAVOptimization@@@std@@@std@@QAEX$$QAPAVOptimization@@@Z ; std::vector<Optimization *,std::allocator<Optimization *> >::push_back
; Line 14
	push	4
	call	??2@YAPAXI@Z				; operator new
	add	esp, 4
	mov	DWORD PTR $T64809[ebp], eax
	cmp	DWORD PTR $T64809[ebp], 0
	je	SHORT $LN19@Peephole
	mov	ecx, DWORD PTR $T64809[ebp]
	call	??0ReplaceCmpWithZero@@QAE@XZ
	mov	DWORD PTR tv219[ebp], eax
	jmp	SHORT $LN20@Peephole
$LN19@Peephole:
	mov	DWORD PTR tv219[ebp], 0
$LN20@Peephole:
	mov	eax, DWORD PTR tv219[ebp]
	mov	DWORD PTR $T64808[ebp], eax
	lea	ecx, DWORD PTR $T64808[ebp]
	push	ecx
	mov	ecx, DWORD PTR _this$[ebp]
	add	ecx, 32					; 00000020H
	call	?push_back@?$vector@PAVOptimization@@V?$allocator@PAVOptimization@@@std@@@std@@QAEX$$QAPAVOptimization@@@Z ; std::vector<Optimization *,std::allocator<Optimization *> >::push_back
; Line 15
	push	4
	call	??2@YAPAXI@Z				; operator new
	add	esp, 4
	mov	DWORD PTR $T64813[ebp], eax
	cmp	DWORD PTR $T64813[ebp], 0
	je	SHORT $LN21@Peephole
	mov	ecx, DWORD PTR $T64813[ebp]
	call	??0ReplaceMulToZero@@QAE@XZ
	mov	DWORD PTR tv232[ebp], eax
	jmp	SHORT $LN22@Peephole
$LN21@Peephole:
	mov	DWORD PTR tv232[ebp], 0
$LN22@Peephole:
	mov	eax, DWORD PTR tv232[ebp]
	mov	DWORD PTR $T64812[ebp], eax
	lea	ecx, DWORD PTR $T64812[ebp]
	push	ecx
	mov	ecx, DWORD PTR _this$[ebp]
	add	ecx, 32					; 00000020H
	call	?push_back@?$vector@PAVOptimization@@V?$allocator@PAVOptimization@@@std@@@std@@QAEX$$QAPAVOptimization@@@Z ; std::vector<Optimization *,std::allocator<Optimization *> >::push_back
; Line 16
	push	4
	call	??2@YAPAXI@Z				; operator new
	add	esp, 4
	mov	DWORD PTR $T64817[ebp], eax
	cmp	DWORD PTR $T64817[ebp], 0
	je	SHORT $LN23@Peephole
	mov	ecx, DWORD PTR $T64817[ebp]
	call	??0ReplaceIMUL@@QAE@XZ
	mov	DWORD PTR tv245[ebp], eax
	jmp	SHORT $LN24@Peephole
$LN23@Peephole:
	mov	DWORD PTR tv245[ebp], 0
$LN24@Peephole:
	mov	eax, DWORD PTR tv245[ebp]
	mov	DWORD PTR $T64816[ebp], eax
	lea	ecx, DWORD PTR $T64816[ebp]
	push	ecx
	mov	ecx, DWORD PTR _this$[ebp]
	add	ecx, 32					; 00000020H
	call	?push_back@?$vector@PAVOptimization@@V?$allocator@PAVOptimization@@@std@@@std@@QAEX$$QAPAVOptimization@@@Z ; std::vector<Optimization *,std::allocator<Optimization *> >::push_back
; Line 17
	push	4
	call	??2@YAPAXI@Z				; operator new
	add	esp, 4
	mov	DWORD PTR $T64821[ebp], eax
	cmp	DWORD PTR $T64821[ebp], 0
	je	SHORT $LN25@Peephole
	mov	ecx, DWORD PTR $T64821[ebp]
	call	??0DeletePushPop@@QAE@XZ
	mov	DWORD PTR tv258[ebp], eax
	jmp	SHORT $LN26@Peephole
$LN25@Peephole:
	mov	DWORD PTR tv258[ebp], 0
$LN26@Peephole:
	mov	eax, DWORD PTR tv258[ebp]
	mov	DWORD PTR $T64820[ebp], eax
	lea	ecx, DWORD PTR $T64820[ebp]
	push	ecx
	mov	ecx, DWORD PTR _this$[ebp]
	add	ecx, 32					; 00000020H
	call	?push_back@?$vector@PAVOptimization@@V?$allocator@PAVOptimization@@@std@@@std@@QAEX$$QAPAVOptimization@@@Z ; std::vector<Optimization *,std::allocator<Optimization *> >::push_back
; Line 18
	push	4
	call	??2@YAPAXI@Z				; operator new
	add	esp, 4
	mov	DWORD PTR $T64825[ebp], eax
	cmp	DWORD PTR $T64825[ebp], 0
	je	SHORT $LN27@Peephole
	mov	ecx, DWORD PTR $T64825[ebp]
	call	??0ReplacePushPopWithMov@@QAE@XZ
	mov	DWORD PTR tv271[ebp], eax
	jmp	SHORT $LN28@Peephole
$LN27@Peephole:
	mov	DWORD PTR tv271[ebp], 0
$LN28@Peephole:
	mov	eax, DWORD PTR tv271[ebp]
	mov	DWORD PTR $T64824[ebp], eax
	lea	ecx, DWORD PTR $T64824[ebp]
	push	ecx
	mov	ecx, DWORD PTR _this$[ebp]
	add	ecx, 32					; 00000020H
	call	?push_back@?$vector@PAVOptimization@@V?$allocator@PAVOptimization@@@std@@@std@@QAEX$$QAPAVOptimization@@@Z ; std::vector<Optimization *,std::allocator<Optimization *> >::push_back
; Line 19
	push	4
	call	??2@YAPAXI@Z				; operator new
	add	esp, 4
	mov	DWORD PTR $T64829[ebp], eax
	cmp	DWORD PTR $T64829[ebp], 0
	je	SHORT $LN29@Peephole
	mov	ecx, DWORD PTR $T64829[ebp]
	call	??0ReplaceMovPushWithPush@@QAE@XZ
	mov	DWORD PTR tv284[ebp], eax
	jmp	SHORT $LN30@Peephole
$LN29@Peephole:
	mov	DWORD PTR tv284[ebp], 0
$LN30@Peephole:
	mov	eax, DWORD PTR tv284[ebp]
	mov	DWORD PTR $T64828[ebp], eax
	lea	ecx, DWORD PTR $T64828[ebp]
	push	ecx
	mov	ecx, DWORD PTR _this$[ebp]
	add	ecx, 32					; 00000020H
	call	?push_back@?$vector@PAVOptimization@@V?$allocator@PAVOptimization@@@std@@@std@@QAEX$$QAPAVOptimization@@@Z ; std::vector<Optimization *,std::allocator<Optimization *> >::push_back
; Line 20
	mov	DWORD PTR __$EHRec$[ebp+8], -1
	mov	eax, DWORD PTR _this$[ebp]
	mov	ecx, DWORD PTR __$EHRec$[ebp]
	mov	DWORD PTR fs:0, ecx
	pop	ecx
	pop	edi
	pop	esi
	pop	ebx
	add	esp, 556				; 0000022cH
	cmp	ebp, esp
	call	__RTC_CheckEsp
	mov	esp, ebp
	pop	ebp
	ret	4
_TEXT	ENDS
;	COMDAT text$x
text$x	SEGMENT
__unwindfunclet$??0Peephole@@QAE@PAVAsmCode@@@Z$0:
	mov	ecx, DWORD PTR _this$[ebp]
	jmp	??1?$vector@PAVAsmCmd@@V?$allocator@PAVAsmCmd@@@std@@@std@@QAE@XZ ; std::vector<AsmCmd *,std::allocator<AsmCmd *> >::~vector<AsmCmd *,std::allocator<AsmCmd *> >
__unwindfunclet$??0Peephole@@QAE@PAVAsmCode@@@Z$1:
	mov	ecx, DWORD PTR _this$[ebp]
	add	ecx, 32					; 00000020H
	jmp	??1?$vector@PAVOptimization@@V?$allocator@PAVOptimization@@@std@@@std@@QAE@XZ ; std::vector<Optimization *,std::allocator<Optimization *> >::~vector<Optimization *,std::allocator<Optimization *> >
__ehhandler$??0Peephole@@QAE@PAVAsmCode@@@Z:
	mov	edx, DWORD PTR [esp+8]
	lea	eax, DWORD PTR [edx+12]
	mov	ecx, DWORD PTR [edx-560]
	xor	ecx, eax
	call	@__security_check_cookie@4
	mov	eax, OFFSET __ehfuncinfo$??0Peephole@@QAE@PAVAsmCode@@@Z
	jmp	___CxxFrameHandler3
text$x	ENDS
??0Peephole@@QAE@PAVAsmCode@@@Z ENDP			; Peephole::Peephole
PUBLIC	??_7DeleteAddWithZero@@6B@			; DeleteAddWithZero::`vftable'
PUBLIC	??0OneLineOpt@@QAE@XZ				; OneLineOpt::OneLineOpt
PUBLIC	??_R4DeleteAddWithZero@@6B@			; DeleteAddWithZero::`RTTI Complete Object Locator'
PUBLIC	??_R0?AVDeleteAddWithZero@@@8			; DeleteAddWithZero `RTTI Type Descriptor'
PUBLIC	??_R3DeleteAddWithZero@@8			; DeleteAddWithZero::`RTTI Class Hierarchy Descriptor'
PUBLIC	??_R2DeleteAddWithZero@@8			; DeleteAddWithZero::`RTTI Base Class Array'
PUBLIC	??_R1A@?0A@EA@DeleteAddWithZero@@8		; DeleteAddWithZero::`RTTI Base Class Descriptor at (0,-1,0,64)'
PUBLIC	??_R1A@?0A@EA@OneLineOpt@@8			; OneLineOpt::`RTTI Base Class Descriptor at (0,-1,0,64)'
PUBLIC	??_R0?AVOneLineOpt@@@8				; OneLineOpt `RTTI Type Descriptor'
PUBLIC	??_R3OneLineOpt@@8				; OneLineOpt::`RTTI Class Hierarchy Descriptor'
PUBLIC	??_R2OneLineOpt@@8				; OneLineOpt::`RTTI Base Class Array'
PUBLIC	??_R1A@?0A@EA@Optimization@@8			; Optimization::`RTTI Base Class Descriptor at (0,-1,0,64)'
PUBLIC	??_R0?AVOptimization@@@8			; Optimization `RTTI Type Descriptor'
PUBLIC	??_R3Optimization@@8				; Optimization::`RTTI Class Hierarchy Descriptor'
PUBLIC	??_R2Optimization@@8				; Optimization::`RTTI Base Class Array'
PUBLIC	?MakeOptimization@DeleteAddWithZero@@UAEXPAV?$vector@PAVAsmCmd@@V?$allocator@PAVAsmCmd@@@std@@@std@@AAI@Z ; DeleteAddWithZero::MakeOptimization
PUBLIC	?CanBeApplied@Optimization@@UAE_NQAPAVAsmCmd@@@Z ; Optimization::CanBeApplied
PUBLIC	?CanBeApplied@DeleteAddWithZero@@UAE_NPAVAsmCmd@@@Z ; DeleteAddWithZero::CanBeApplied
PUBLIC	?OneLine@OneLineOpt@@UAE_NXZ			; OneLineOpt::OneLine
PUBLIC	?TwoLines@Optimization@@UAE_NXZ			; Optimization::TwoLines
EXTRN	??_7type_info@@6B@:QWORD			; type_info::`vftable'
;	COMDAT ??_R2Optimization@@8
rdata$r	SEGMENT
??_R2Optimization@@8 DD FLAT:??_R1A@?0A@EA@Optimization@@8 ; Optimization::`RTTI Base Class Array'
rdata$r	ENDS
;	COMDAT ??_R3Optimization@@8
rdata$r	SEGMENT
??_R3Optimization@@8 DD 00H				; Optimization::`RTTI Class Hierarchy Descriptor'
	DD	00H
	DD	01H
	DD	FLAT:??_R2Optimization@@8
rdata$r	ENDS
;	COMDAT ??_R0?AVOptimization@@@8
_DATA	SEGMENT
??_R0?AVOptimization@@@8 DD FLAT:??_7type_info@@6B@	; Optimization `RTTI Type Descriptor'
	DD	00H
	DB	'.?AVOptimization@@', 00H
_DATA	ENDS
;	COMDAT ??_R1A@?0A@EA@Optimization@@8
rdata$r	SEGMENT
??_R1A@?0A@EA@Optimization@@8 DD FLAT:??_R0?AVOptimization@@@8 ; Optimization::`RTTI Base Class Descriptor at (0,-1,0,64)'
	DD	00H
	DD	00H
	DD	0ffffffffH
	DD	00H
	DD	040H
	DD	FLAT:??_R3Optimization@@8
rdata$r	ENDS
;	COMDAT ??_R2OneLineOpt@@8
rdata$r	SEGMENT
??_R2OneLineOpt@@8 DD FLAT:??_R1A@?0A@EA@OneLineOpt@@8	; OneLineOpt::`RTTI Base Class Array'
	DD	FLAT:??_R1A@?0A@EA@Optimization@@8
rdata$r	ENDS
;	COMDAT ??_R3OneLineOpt@@8
rdata$r	SEGMENT
??_R3OneLineOpt@@8 DD 00H				; OneLineOpt::`RTTI Class Hierarchy Descriptor'
	DD	00H
	DD	02H
	DD	FLAT:??_R2OneLineOpt@@8
rdata$r	ENDS
;	COMDAT ??_R0?AVOneLineOpt@@@8
_DATA	SEGMENT
??_R0?AVOneLineOpt@@@8 DD FLAT:??_7type_info@@6B@	; OneLineOpt `RTTI Type Descriptor'
	DD	00H
	DB	'.?AVOneLineOpt@@', 00H
_DATA	ENDS
;	COMDAT ??_R1A@?0A@EA@OneLineOpt@@8
rdata$r	SEGMENT
??_R1A@?0A@EA@OneLineOpt@@8 DD FLAT:??_R0?AVOneLineOpt@@@8 ; OneLineOpt::`RTTI Base Class Descriptor at (0,-1,0,64)'
	DD	01H
	DD	00H
	DD	0ffffffffH
	DD	00H
	DD	040H
	DD	FLAT:??_R3OneLineOpt@@8
rdata$r	ENDS
;	COMDAT ??_R1A@?0A@EA@DeleteAddWithZero@@8
rdata$r	SEGMENT
??_R1A@?0A@EA@DeleteAddWithZero@@8 DD FLAT:??_R0?AVDeleteAddWithZero@@@8 ; DeleteAddWithZero::`RTTI Base Class Descriptor at (0,-1,0,64)'
	DD	02H
	DD	00H
	DD	0ffffffffH
	DD	00H
	DD	040H
	DD	FLAT:??_R3DeleteAddWithZero@@8
rdata$r	ENDS
;	COMDAT ??_R2DeleteAddWithZero@@8
rdata$r	SEGMENT
??_R2DeleteAddWithZero@@8 DD FLAT:??_R1A@?0A@EA@DeleteAddWithZero@@8 ; DeleteAddWithZero::`RTTI Base Class Array'
	DD	FLAT:??_R1A@?0A@EA@OneLineOpt@@8
	DD	FLAT:??_R1A@?0A@EA@Optimization@@8
rdata$r	ENDS
;	COMDAT ??_R3DeleteAddWithZero@@8
rdata$r	SEGMENT
??_R3DeleteAddWithZero@@8 DD 00H			; DeleteAddWithZero::`RTTI Class Hierarchy Descriptor'
	DD	00H
	DD	03H
	DD	FLAT:??_R2DeleteAddWithZero@@8
rdata$r	ENDS
;	COMDAT ??_R0?AVDeleteAddWithZero@@@8
_DATA	SEGMENT
??_R0?AVDeleteAddWithZero@@@8 DD FLAT:??_7type_info@@6B@ ; DeleteAddWithZero `RTTI Type Descriptor'
	DD	00H
	DB	'.?AVDeleteAddWithZero@@', 00H
_DATA	ENDS
;	COMDAT ??_R4DeleteAddWithZero@@6B@
rdata$r	SEGMENT
??_R4DeleteAddWithZero@@6B@ DD 00H			; DeleteAddWithZero::`RTTI Complete Object Locator'
	DD	00H
	DD	00H
	DD	FLAT:??_R0?AVDeleteAddWithZero@@@8
	DD	FLAT:??_R3DeleteAddWithZero@@8
rdata$r	ENDS
;	COMDAT ??_7DeleteAddWithZero@@6B@
CONST	SEGMENT
??_7DeleteAddWithZero@@6B@ DD FLAT:??_R4DeleteAddWithZero@@6B@ ; DeleteAddWithZero::`vftable'
	DD	FLAT:?MakeOptimization@DeleteAddWithZero@@UAEXPAV?$vector@PAVAsmCmd@@V?$allocator@PAVAsmCmd@@@std@@@std@@AAI@Z
	DD	FLAT:?CanBeApplied@Optimization@@UAE_NQAPAVAsmCmd@@@Z
	DD	FLAT:?CanBeApplied@DeleteAddWithZero@@UAE_NPAVAsmCmd@@@Z
	DD	FLAT:?OneLine@OneLineOpt@@UAE_NXZ
	DD	FLAT:?TwoLines@Optimization@@UAE_NXZ
; Function compile flags: /Odtp /RTCsu /ZI
CONST	ENDS
;	COMDAT ??0DeleteAddWithZero@@QAE@XZ
_TEXT	SEGMENT
_this$ = -8						; size = 4
??0DeleteAddWithZero@@QAE@XZ PROC			; DeleteAddWithZero::DeleteAddWithZero, COMDAT
; _this$ = ecx
	push	ebp
	mov	ebp, esp
	sub	esp, 204				; 000000ccH
	push	ebx
	push	esi
	push	edi
	push	ecx
	lea	edi, DWORD PTR [ebp-204]
	mov	ecx, 51					; 00000033H
	mov	eax, -858993460				; ccccccccH
	rep stosd
	pop	ecx
	mov	DWORD PTR _this$[ebp], ecx
	mov	ecx, DWORD PTR _this$[ebp]
	call	??0OneLineOpt@@QAE@XZ
	mov	eax, DWORD PTR _this$[ebp]
	mov	DWORD PTR [eax], OFFSET ??_7DeleteAddWithZero@@6B@
	mov	eax, DWORD PTR _this$[ebp]
	pop	edi
	pop	esi
	pop	ebx
	add	esp, 204				; 000000ccH
	cmp	ebp, esp
	call	__RTC_CheckEsp
	mov	esp, ebp
	pop	ebp
	ret	0
??0DeleteAddWithZero@@QAE@XZ ENDP			; DeleteAddWithZero::DeleteAddWithZero
; Function compile flags: /Odtp /RTCsu /ZI
_TEXT	ENDS
;	COMDAT ?CanBeApplied@Optimization@@UAE_NQAPAVAsmCmd@@@Z
_TEXT	SEGMENT
_this$ = -8						; size = 4
_lines$ = 8						; size = 4
?CanBeApplied@Optimization@@UAE_NQAPAVAsmCmd@@@Z PROC	; Optimization::CanBeApplied, COMDAT
; _this$ = ecx
; File c:\users\дмитрий\documents\visual studio 2010\projects\scanner\scanner\ll_optimizer.h
; Line 8
	push	ebp
	mov	ebp, esp
	sub	esp, 204				; 000000ccH
	push	ebx
	push	esi
	push	edi
	push	ecx
	lea	edi, DWORD PTR [ebp-204]
	mov	ecx, 51					; 00000033H
	mov	eax, -858993460				; ccccccccH
	rep stosd
	pop	ecx
	mov	DWORD PTR _this$[ebp], ecx
	xor	al, al
	pop	edi
	pop	esi
	pop	ebx
	mov	esp, ebp
	pop	ebp
	ret	4
?CanBeApplied@Optimization@@UAE_NQAPAVAsmCmd@@@Z ENDP	; Optimization::CanBeApplied
; Function compile flags: /Odtp /RTCsu /ZI
_TEXT	ENDS
;	COMDAT ?TwoLines@Optimization@@UAE_NXZ
_TEXT	SEGMENT
_this$ = -8						; size = 4
?TwoLines@Optimization@@UAE_NXZ PROC			; Optimization::TwoLines, COMDAT
; _this$ = ecx
; Line 10
	push	ebp
	mov	ebp, esp
	sub	esp, 204				; 000000ccH
	push	ebx
	push	esi
	push	edi
	push	ecx
	lea	edi, DWORD PTR [ebp-204]
	mov	ecx, 51					; 00000033H
	mov	eax, -858993460				; ccccccccH
	rep stosd
	pop	ecx
	mov	DWORD PTR _this$[ebp], ecx
	xor	al, al
	pop	edi
	pop	esi
	pop	ebx
	mov	esp, ebp
	pop	ebp
	ret	0
?TwoLines@Optimization@@UAE_NXZ ENDP			; Optimization::TwoLines
; Function compile flags: /Odtp /RTCsu /ZI
_TEXT	ENDS
;	COMDAT ?OneLine@OneLineOpt@@UAE_NXZ
_TEXT	SEGMENT
_this$ = -8						; size = 4
?OneLine@OneLineOpt@@UAE_NXZ PROC			; OneLineOpt::OneLine, COMDAT
; _this$ = ecx
; Line 17
	push	ebp
	mov	ebp, esp
	sub	esp, 204				; 000000ccH
	push	ebx
	push	esi
	push	edi
	push	ecx
	lea	edi, DWORD PTR [ebp-204]
	mov	ecx, 51					; 00000033H
	mov	eax, -858993460				; ccccccccH
	rep stosd
	pop	ecx
	mov	DWORD PTR _this$[ebp], ecx
	mov	al, 1
	pop	edi
	pop	esi
	pop	ebx
	mov	esp, ebp
	pop	ebp
	ret	0
?OneLine@OneLineOpt@@UAE_NXZ ENDP			; OneLineOpt::OneLine
_TEXT	ENDS
PUBLIC	??_7DeleteSubWithZero@@6B@			; DeleteSubWithZero::`vftable'
PUBLIC	??_R4DeleteSubWithZero@@6B@			; DeleteSubWithZero::`RTTI Complete Object Locator'
PUBLIC	??_R0?AVDeleteSubWithZero@@@8			; DeleteSubWithZero `RTTI Type Descriptor'
PUBLIC	??_R3DeleteSubWithZero@@8			; DeleteSubWithZero::`RTTI Class Hierarchy Descriptor'
PUBLIC	??_R2DeleteSubWithZero@@8			; DeleteSubWithZero::`RTTI Base Class Array'
PUBLIC	??_R1A@?0A@EA@DeleteSubWithZero@@8		; DeleteSubWithZero::`RTTI Base Class Descriptor at (0,-1,0,64)'
PUBLIC	?MakeOptimization@DeleteSubWithZero@@UAEXPAV?$vector@PAVAsmCmd@@V?$allocator@PAVAsmCmd@@@std@@@std@@AAI@Z ; DeleteSubWithZero::MakeOptimization
PUBLIC	?CanBeApplied@DeleteSubWithZero@@UAE_NPAVAsmCmd@@@Z ; DeleteSubWithZero::CanBeApplied
;	COMDAT ??_R1A@?0A@EA@DeleteSubWithZero@@8
rdata$r	SEGMENT
??_R1A@?0A@EA@DeleteSubWithZero@@8 DD FLAT:??_R0?AVDeleteSubWithZero@@@8 ; DeleteSubWithZero::`RTTI Base Class Descriptor at (0,-1,0,64)'
	DD	02H
	DD	00H
	DD	0ffffffffH
	DD	00H
	DD	040H
	DD	FLAT:??_R3DeleteSubWithZero@@8
rdata$r	ENDS
;	COMDAT ??_R2DeleteSubWithZero@@8
rdata$r	SEGMENT
??_R2DeleteSubWithZero@@8 DD FLAT:??_R1A@?0A@EA@DeleteSubWithZero@@8 ; DeleteSubWithZero::`RTTI Base Class Array'
	DD	FLAT:??_R1A@?0A@EA@OneLineOpt@@8
	DD	FLAT:??_R1A@?0A@EA@Optimization@@8
rdata$r	ENDS
;	COMDAT ??_R3DeleteSubWithZero@@8
rdata$r	SEGMENT
??_R3DeleteSubWithZero@@8 DD 00H			; DeleteSubWithZero::`RTTI Class Hierarchy Descriptor'
	DD	00H
	DD	03H
	DD	FLAT:??_R2DeleteSubWithZero@@8
rdata$r	ENDS
;	COMDAT ??_R0?AVDeleteSubWithZero@@@8
_DATA	SEGMENT
??_R0?AVDeleteSubWithZero@@@8 DD FLAT:??_7type_info@@6B@ ; DeleteSubWithZero `RTTI Type Descriptor'
	DD	00H
	DB	'.?AVDeleteSubWithZero@@', 00H
_DATA	ENDS
;	COMDAT ??_R4DeleteSubWithZero@@6B@
rdata$r	SEGMENT
??_R4DeleteSubWithZero@@6B@ DD 00H			; DeleteSubWithZero::`RTTI Complete Object Locator'
	DD	00H
	DD	00H
	DD	FLAT:??_R0?AVDeleteSubWithZero@@@8
	DD	FLAT:??_R3DeleteSubWithZero@@8
rdata$r	ENDS
;	COMDAT ??_7DeleteSubWithZero@@6B@
CONST	SEGMENT
??_7DeleteSubWithZero@@6B@ DD FLAT:??_R4DeleteSubWithZero@@6B@ ; DeleteSubWithZero::`vftable'
	DD	FLAT:?MakeOptimization@DeleteSubWithZero@@UAEXPAV?$vector@PAVAsmCmd@@V?$allocator@PAVAsmCmd@@@std@@@std@@AAI@Z
	DD	FLAT:?CanBeApplied@Optimization@@UAE_NQAPAVAsmCmd@@@Z
	DD	FLAT:?CanBeApplied@DeleteSubWithZero@@UAE_NPAVAsmCmd@@@Z
	DD	FLAT:?OneLine@OneLineOpt@@UAE_NXZ
	DD	FLAT:?TwoLines@Optimization@@UAE_NXZ
; Function compile flags: /Odtp /RTCsu /ZI
CONST	ENDS
;	COMDAT ??0DeleteSubWithZero@@QAE@XZ
_TEXT	SEGMENT
_this$ = -8						; size = 4
??0DeleteSubWithZero@@QAE@XZ PROC			; DeleteSubWithZero::DeleteSubWithZero, COMDAT
; _this$ = ecx
	push	ebp
	mov	ebp, esp
	sub	esp, 204				; 000000ccH
	push	ebx
	push	esi
	push	edi
	push	ecx
	lea	edi, DWORD PTR [ebp-204]
	mov	ecx, 51					; 00000033H
	mov	eax, -858993460				; ccccccccH
	rep stosd
	pop	ecx
	mov	DWORD PTR _this$[ebp], ecx
	mov	ecx, DWORD PTR _this$[ebp]
	call	??0OneLineOpt@@QAE@XZ
	mov	eax, DWORD PTR _this$[ebp]
	mov	DWORD PTR [eax], OFFSET ??_7DeleteSubWithZero@@6B@
	mov	eax, DWORD PTR _this$[ebp]
	pop	edi
	pop	esi
	pop	ebx
	add	esp, 204				; 000000ccH
	cmp	ebp, esp
	call	__RTC_CheckEsp
	mov	esp, ebp
	pop	ebp
	ret	0
??0DeleteSubWithZero@@QAE@XZ ENDP			; DeleteSubWithZero::DeleteSubWithZero
_TEXT	ENDS
PUBLIC	??_7DeleteMultWithOne@@6B@			; DeleteMultWithOne::`vftable'
PUBLIC	??_R4DeleteMultWithOne@@6B@			; DeleteMultWithOne::`RTTI Complete Object Locator'
PUBLIC	??_R0?AVDeleteMultWithOne@@@8			; DeleteMultWithOne `RTTI Type Descriptor'
PUBLIC	??_R3DeleteMultWithOne@@8			; DeleteMultWithOne::`RTTI Class Hierarchy Descriptor'
PUBLIC	??_R2DeleteMultWithOne@@8			; DeleteMultWithOne::`RTTI Base Class Array'
PUBLIC	??_R1A@?0A@EA@DeleteMultWithOne@@8		; DeleteMultWithOne::`RTTI Base Class Descriptor at (0,-1,0,64)'
PUBLIC	?MakeOptimization@DeleteMultWithOne@@UAEXPAV?$vector@PAVAsmCmd@@V?$allocator@PAVAsmCmd@@@std@@@std@@AAI@Z ; DeleteMultWithOne::MakeOptimization
PUBLIC	?CanBeApplied@DeleteMultWithOne@@UAE_NPAVAsmCmd@@@Z ; DeleteMultWithOne::CanBeApplied
;	COMDAT ??_R1A@?0A@EA@DeleteMultWithOne@@8
rdata$r	SEGMENT
??_R1A@?0A@EA@DeleteMultWithOne@@8 DD FLAT:??_R0?AVDeleteMultWithOne@@@8 ; DeleteMultWithOne::`RTTI Base Class Descriptor at (0,-1,0,64)'
	DD	02H
	DD	00H
	DD	0ffffffffH
	DD	00H
	DD	040H
	DD	FLAT:??_R3DeleteMultWithOne@@8
rdata$r	ENDS
;	COMDAT ??_R2DeleteMultWithOne@@8
rdata$r	SEGMENT
??_R2DeleteMultWithOne@@8 DD FLAT:??_R1A@?0A@EA@DeleteMultWithOne@@8 ; DeleteMultWithOne::`RTTI Base Class Array'
	DD	FLAT:??_R1A@?0A@EA@OneLineOpt@@8
	DD	FLAT:??_R1A@?0A@EA@Optimization@@8
rdata$r	ENDS
;	COMDAT ??_R3DeleteMultWithOne@@8
rdata$r	SEGMENT
??_R3DeleteMultWithOne@@8 DD 00H			; DeleteMultWithOne::`RTTI Class Hierarchy Descriptor'
	DD	00H
	DD	03H
	DD	FLAT:??_R2DeleteMultWithOne@@8
rdata$r	ENDS
;	COMDAT ??_R0?AVDeleteMultWithOne@@@8
_DATA	SEGMENT
??_R0?AVDeleteMultWithOne@@@8 DD FLAT:??_7type_info@@6B@ ; DeleteMultWithOne `RTTI Type Descriptor'
	DD	00H
	DB	'.?AVDeleteMultWithOne@@', 00H
_DATA	ENDS
;	COMDAT ??_R4DeleteMultWithOne@@6B@
rdata$r	SEGMENT
??_R4DeleteMultWithOne@@6B@ DD 00H			; DeleteMultWithOne::`RTTI Complete Object Locator'
	DD	00H
	DD	00H
	DD	FLAT:??_R0?AVDeleteMultWithOne@@@8
	DD	FLAT:??_R3DeleteMultWithOne@@8
rdata$r	ENDS
;	COMDAT ??_7DeleteMultWithOne@@6B@
CONST	SEGMENT
??_7DeleteMultWithOne@@6B@ DD FLAT:??_R4DeleteMultWithOne@@6B@ ; DeleteMultWithOne::`vftable'
	DD	FLAT:?MakeOptimization@DeleteMultWithOne@@UAEXPAV?$vector@PAVAsmCmd@@V?$allocator@PAVAsmCmd@@@std@@@std@@AAI@Z
	DD	FLAT:?CanBeApplied@Optimization@@UAE_NQAPAVAsmCmd@@@Z
	DD	FLAT:?CanBeApplied@DeleteMultWithOne@@UAE_NPAVAsmCmd@@@Z
	DD	FLAT:?OneLine@OneLineOpt@@UAE_NXZ
	DD	FLAT:?TwoLines@Optimization@@UAE_NXZ
; Function compile flags: /Odtp /RTCsu /ZI
CONST	ENDS
;	COMDAT ??0DeleteMultWithOne@@QAE@XZ
_TEXT	SEGMENT
_this$ = -8						; size = 4
??0DeleteMultWithOne@@QAE@XZ PROC			; DeleteMultWithOne::DeleteMultWithOne, COMDAT
; _this$ = ecx
	push	ebp
	mov	ebp, esp
	sub	esp, 204				; 000000ccH
	push	ebx
	push	esi
	push	edi
	push	ecx
	lea	edi, DWORD PTR [ebp-204]
	mov	ecx, 51					; 00000033H
	mov	eax, -858993460				; ccccccccH
	rep stosd
	pop	ecx
	mov	DWORD PTR _this$[ebp], ecx
	mov	ecx, DWORD PTR _this$[ebp]
	call	??0OneLineOpt@@QAE@XZ
	mov	eax, DWORD PTR _this$[ebp]
	mov	DWORD PTR [eax], OFFSET ??_7DeleteMultWithOne@@6B@
	mov	eax, DWORD PTR _this$[ebp]
	pop	edi
	pop	esi
	pop	ebx
	add	esp, 204				; 000000ccH
	cmp	ebp, esp
	call	__RTC_CheckEsp
	mov	esp, ebp
	pop	ebp
	ret	0
??0DeleteMultWithOne@@QAE@XZ ENDP			; DeleteMultWithOne::DeleteMultWithOne
_TEXT	ENDS
PUBLIC	??_7ReplaceCDQ@@6B@				; ReplaceCDQ::`vftable'
PUBLIC	??_R4ReplaceCDQ@@6B@				; ReplaceCDQ::`RTTI Complete Object Locator'
PUBLIC	??_R0?AVReplaceCDQ@@@8				; ReplaceCDQ `RTTI Type Descriptor'
PUBLIC	??_R3ReplaceCDQ@@8				; ReplaceCDQ::`RTTI Class Hierarchy Descriptor'
PUBLIC	??_R2ReplaceCDQ@@8				; ReplaceCDQ::`RTTI Base Class Array'
PUBLIC	??_R1A@?0A@EA@ReplaceCDQ@@8			; ReplaceCDQ::`RTTI Base Class Descriptor at (0,-1,0,64)'
PUBLIC	?MakeOptimization@ReplaceCDQ@@UAEXPAV?$vector@PAVAsmCmd@@V?$allocator@PAVAsmCmd@@@std@@@std@@AAI@Z ; ReplaceCDQ::MakeOptimization
PUBLIC	?CanBeApplied@ReplaceCDQ@@UAE_NPAVAsmCmd@@@Z	; ReplaceCDQ::CanBeApplied
;	COMDAT ??_R1A@?0A@EA@ReplaceCDQ@@8
rdata$r	SEGMENT
??_R1A@?0A@EA@ReplaceCDQ@@8 DD FLAT:??_R0?AVReplaceCDQ@@@8 ; ReplaceCDQ::`RTTI Base Class Descriptor at (0,-1,0,64)'
	DD	02H
	DD	00H
	DD	0ffffffffH
	DD	00H
	DD	040H
	DD	FLAT:??_R3ReplaceCDQ@@8
rdata$r	ENDS
;	COMDAT ??_R2ReplaceCDQ@@8
rdata$r	SEGMENT
??_R2ReplaceCDQ@@8 DD FLAT:??_R1A@?0A@EA@ReplaceCDQ@@8	; ReplaceCDQ::`RTTI Base Class Array'
	DD	FLAT:??_R1A@?0A@EA@OneLineOpt@@8
	DD	FLAT:??_R1A@?0A@EA@Optimization@@8
rdata$r	ENDS
;	COMDAT ??_R3ReplaceCDQ@@8
rdata$r	SEGMENT
??_R3ReplaceCDQ@@8 DD 00H				; ReplaceCDQ::`RTTI Class Hierarchy Descriptor'
	DD	00H
	DD	03H
	DD	FLAT:??_R2ReplaceCDQ@@8
rdata$r	ENDS
;	COMDAT ??_R0?AVReplaceCDQ@@@8
_DATA	SEGMENT
??_R0?AVReplaceCDQ@@@8 DD FLAT:??_7type_info@@6B@	; ReplaceCDQ `RTTI Type Descriptor'
	DD	00H
	DB	'.?AVReplaceCDQ@@', 00H
_DATA	ENDS
;	COMDAT ??_R4ReplaceCDQ@@6B@
rdata$r	SEGMENT
??_R4ReplaceCDQ@@6B@ DD 00H				; ReplaceCDQ::`RTTI Complete Object Locator'
	DD	00H
	DD	00H
	DD	FLAT:??_R0?AVReplaceCDQ@@@8
	DD	FLAT:??_R3ReplaceCDQ@@8
rdata$r	ENDS
;	COMDAT ??_7ReplaceCDQ@@6B@
CONST	SEGMENT
??_7ReplaceCDQ@@6B@ DD FLAT:??_R4ReplaceCDQ@@6B@	; ReplaceCDQ::`vftable'
	DD	FLAT:?MakeOptimization@ReplaceCDQ@@UAEXPAV?$vector@PAVAsmCmd@@V?$allocator@PAVAsmCmd@@@std@@@std@@AAI@Z
	DD	FLAT:?CanBeApplied@Optimization@@UAE_NQAPAVAsmCmd@@@Z
	DD	FLAT:?CanBeApplied@ReplaceCDQ@@UAE_NPAVAsmCmd@@@Z
	DD	FLAT:?OneLine@OneLineOpt@@UAE_NXZ
	DD	FLAT:?TwoLines@Optimization@@UAE_NXZ
; Function compile flags: /Odtp /RTCsu /ZI
CONST	ENDS
;	COMDAT ??0ReplaceCDQ@@QAE@XZ
_TEXT	SEGMENT
_this$ = -8						; size = 4
??0ReplaceCDQ@@QAE@XZ PROC				; ReplaceCDQ::ReplaceCDQ, COMDAT
; _this$ = ecx
	push	ebp
	mov	ebp, esp
	sub	esp, 204				; 000000ccH
	push	ebx
	push	esi
	push	edi
	push	ecx
	lea	edi, DWORD PTR [ebp-204]
	mov	ecx, 51					; 00000033H
	mov	eax, -858993460				; ccccccccH
	rep stosd
	pop	ecx
	mov	DWORD PTR _this$[ebp], ecx
	mov	ecx, DWORD PTR _this$[ebp]
	call	??0OneLineOpt@@QAE@XZ
	mov	eax, DWORD PTR _this$[ebp]
	mov	DWORD PTR [eax], OFFSET ??_7ReplaceCDQ@@6B@
	mov	eax, DWORD PTR _this$[ebp]
	pop	edi
	pop	esi
	pop	ebx
	add	esp, 204				; 000000ccH
	cmp	ebp, esp
	call	__RTC_CheckEsp
	mov	esp, ebp
	pop	ebp
	ret	0
??0ReplaceCDQ@@QAE@XZ ENDP				; ReplaceCDQ::ReplaceCDQ
_TEXT	ENDS
PUBLIC	??_7ReplaceNEG@@6B@				; ReplaceNEG::`vftable'
PUBLIC	??_R4ReplaceNEG@@6B@				; ReplaceNEG::`RTTI Complete Object Locator'
PUBLIC	??_R0?AVReplaceNEG@@@8				; ReplaceNEG `RTTI Type Descriptor'
PUBLIC	??_R3ReplaceNEG@@8				; ReplaceNEG::`RTTI Class Hierarchy Descriptor'
PUBLIC	??_R2ReplaceNEG@@8				; ReplaceNEG::`RTTI Base Class Array'
PUBLIC	??_R1A@?0A@EA@ReplaceNEG@@8			; ReplaceNEG::`RTTI Base Class Descriptor at (0,-1,0,64)'
PUBLIC	?MakeOptimization@ReplaceNEG@@UAEXPAV?$vector@PAVAsmCmd@@V?$allocator@PAVAsmCmd@@@std@@@std@@AAI@Z ; ReplaceNEG::MakeOptimization
PUBLIC	?CanBeApplied@ReplaceNEG@@UAE_NPAVAsmCmd@@@Z	; ReplaceNEG::CanBeApplied
;	COMDAT ??_R1A@?0A@EA@ReplaceNEG@@8
rdata$r	SEGMENT
??_R1A@?0A@EA@ReplaceNEG@@8 DD FLAT:??_R0?AVReplaceNEG@@@8 ; ReplaceNEG::`RTTI Base Class Descriptor at (0,-1,0,64)'
	DD	02H
	DD	00H
	DD	0ffffffffH
	DD	00H
	DD	040H
	DD	FLAT:??_R3ReplaceNEG@@8
rdata$r	ENDS
;	COMDAT ??_R2ReplaceNEG@@8
rdata$r	SEGMENT
??_R2ReplaceNEG@@8 DD FLAT:??_R1A@?0A@EA@ReplaceNEG@@8	; ReplaceNEG::`RTTI Base Class Array'
	DD	FLAT:??_R1A@?0A@EA@OneLineOpt@@8
	DD	FLAT:??_R1A@?0A@EA@Optimization@@8
rdata$r	ENDS
;	COMDAT ??_R3ReplaceNEG@@8
rdata$r	SEGMENT
??_R3ReplaceNEG@@8 DD 00H				; ReplaceNEG::`RTTI Class Hierarchy Descriptor'
	DD	00H
	DD	03H
	DD	FLAT:??_R2ReplaceNEG@@8
rdata$r	ENDS
;	COMDAT ??_R0?AVReplaceNEG@@@8
_DATA	SEGMENT
??_R0?AVReplaceNEG@@@8 DD FLAT:??_7type_info@@6B@	; ReplaceNEG `RTTI Type Descriptor'
	DD	00H
	DB	'.?AVReplaceNEG@@', 00H
_DATA	ENDS
;	COMDAT ??_R4ReplaceNEG@@6B@
rdata$r	SEGMENT
??_R4ReplaceNEG@@6B@ DD 00H				; ReplaceNEG::`RTTI Complete Object Locator'
	DD	00H
	DD	00H
	DD	FLAT:??_R0?AVReplaceNEG@@@8
	DD	FLAT:??_R3ReplaceNEG@@8
rdata$r	ENDS
;	COMDAT ??_7ReplaceNEG@@6B@
CONST	SEGMENT
??_7ReplaceNEG@@6B@ DD FLAT:??_R4ReplaceNEG@@6B@	; ReplaceNEG::`vftable'
	DD	FLAT:?MakeOptimization@ReplaceNEG@@UAEXPAV?$vector@PAVAsmCmd@@V?$allocator@PAVAsmCmd@@@std@@@std@@AAI@Z
	DD	FLAT:?CanBeApplied@Optimization@@UAE_NQAPAVAsmCmd@@@Z
	DD	FLAT:?CanBeApplied@ReplaceNEG@@UAE_NPAVAsmCmd@@@Z
	DD	FLAT:?OneLine@OneLineOpt@@UAE_NXZ
	DD	FLAT:?TwoLines@Optimization@@UAE_NXZ
; Function compile flags: /Odtp /RTCsu /ZI
CONST	ENDS
;	COMDAT ??0ReplaceNEG@@QAE@XZ
_TEXT	SEGMENT
_this$ = -8						; size = 4
??0ReplaceNEG@@QAE@XZ PROC				; ReplaceNEG::ReplaceNEG, COMDAT
; _this$ = ecx
	push	ebp
	mov	ebp, esp
	sub	esp, 204				; 000000ccH
	push	ebx
	push	esi
	push	edi
	push	ecx
	lea	edi, DWORD PTR [ebp-204]
	mov	ecx, 51					; 00000033H
	mov	eax, -858993460				; ccccccccH
	rep stosd
	pop	ecx
	mov	DWORD PTR _this$[ebp], ecx
	mov	ecx, DWORD PTR _this$[ebp]
	call	??0OneLineOpt@@QAE@XZ
	mov	eax, DWORD PTR _this$[ebp]
	mov	DWORD PTR [eax], OFFSET ??_7ReplaceNEG@@6B@
	mov	eax, DWORD PTR _this$[ebp]
	pop	edi
	pop	esi
	pop	ebx
	add	esp, 204				; 000000ccH
	cmp	ebp, esp
	call	__RTC_CheckEsp
	mov	esp, ebp
	pop	ebp
	ret	0
??0ReplaceNEG@@QAE@XZ ENDP				; ReplaceNEG::ReplaceNEG
_TEXT	ENDS
PUBLIC	??_7ReplaceAddWithOne@@6B@			; ReplaceAddWithOne::`vftable'
PUBLIC	??_R4ReplaceAddWithOne@@6B@			; ReplaceAddWithOne::`RTTI Complete Object Locator'
PUBLIC	??_R0?AVReplaceAddWithOne@@@8			; ReplaceAddWithOne `RTTI Type Descriptor'
PUBLIC	??_R3ReplaceAddWithOne@@8			; ReplaceAddWithOne::`RTTI Class Hierarchy Descriptor'
PUBLIC	??_R2ReplaceAddWithOne@@8			; ReplaceAddWithOne::`RTTI Base Class Array'
PUBLIC	??_R1A@?0A@EA@ReplaceAddWithOne@@8		; ReplaceAddWithOne::`RTTI Base Class Descriptor at (0,-1,0,64)'
PUBLIC	?MakeOptimization@ReplaceAddWithOne@@UAEXPAV?$vector@PAVAsmCmd@@V?$allocator@PAVAsmCmd@@@std@@@std@@AAI@Z ; ReplaceAddWithOne::MakeOptimization
PUBLIC	?CanBeApplied@ReplaceAddWithOne@@UAE_NPAVAsmCmd@@@Z ; ReplaceAddWithOne::CanBeApplied
;	COMDAT ??_R1A@?0A@EA@ReplaceAddWithOne@@8
rdata$r	SEGMENT
??_R1A@?0A@EA@ReplaceAddWithOne@@8 DD FLAT:??_R0?AVReplaceAddWithOne@@@8 ; ReplaceAddWithOne::`RTTI Base Class Descriptor at (0,-1,0,64)'
	DD	02H
	DD	00H
	DD	0ffffffffH
	DD	00H
	DD	040H
	DD	FLAT:??_R3ReplaceAddWithOne@@8
rdata$r	ENDS
;	COMDAT ??_R2ReplaceAddWithOne@@8
rdata$r	SEGMENT
??_R2ReplaceAddWithOne@@8 DD FLAT:??_R1A@?0A@EA@ReplaceAddWithOne@@8 ; ReplaceAddWithOne::`RTTI Base Class Array'
	DD	FLAT:??_R1A@?0A@EA@OneLineOpt@@8
	DD	FLAT:??_R1A@?0A@EA@Optimization@@8
rdata$r	ENDS
;	COMDAT ??_R3ReplaceAddWithOne@@8
rdata$r	SEGMENT
??_R3ReplaceAddWithOne@@8 DD 00H			; ReplaceAddWithOne::`RTTI Class Hierarchy Descriptor'
	DD	00H
	DD	03H
	DD	FLAT:??_R2ReplaceAddWithOne@@8
rdata$r	ENDS
;	COMDAT ??_R0?AVReplaceAddWithOne@@@8
_DATA	SEGMENT
??_R0?AVReplaceAddWithOne@@@8 DD FLAT:??_7type_info@@6B@ ; ReplaceAddWithOne `RTTI Type Descriptor'
	DD	00H
	DB	'.?AVReplaceAddWithOne@@', 00H
_DATA	ENDS
;	COMDAT ??_R4ReplaceAddWithOne@@6B@
rdata$r	SEGMENT
??_R4ReplaceAddWithOne@@6B@ DD 00H			; ReplaceAddWithOne::`RTTI Complete Object Locator'
	DD	00H
	DD	00H
	DD	FLAT:??_R0?AVReplaceAddWithOne@@@8
	DD	FLAT:??_R3ReplaceAddWithOne@@8
rdata$r	ENDS
;	COMDAT ??_7ReplaceAddWithOne@@6B@
CONST	SEGMENT
??_7ReplaceAddWithOne@@6B@ DD FLAT:??_R4ReplaceAddWithOne@@6B@ ; ReplaceAddWithOne::`vftable'
	DD	FLAT:?MakeOptimization@ReplaceAddWithOne@@UAEXPAV?$vector@PAVAsmCmd@@V?$allocator@PAVAsmCmd@@@std@@@std@@AAI@Z
	DD	FLAT:?CanBeApplied@Optimization@@UAE_NQAPAVAsmCmd@@@Z
	DD	FLAT:?CanBeApplied@ReplaceAddWithOne@@UAE_NPAVAsmCmd@@@Z
	DD	FLAT:?OneLine@OneLineOpt@@UAE_NXZ
	DD	FLAT:?TwoLines@Optimization@@UAE_NXZ
; Function compile flags: /Odtp /RTCsu /ZI
CONST	ENDS
;	COMDAT ??0ReplaceAddWithOne@@QAE@XZ
_TEXT	SEGMENT
_this$ = -8						; size = 4
??0ReplaceAddWithOne@@QAE@XZ PROC			; ReplaceAddWithOne::ReplaceAddWithOne, COMDAT
; _this$ = ecx
	push	ebp
	mov	ebp, esp
	sub	esp, 204				; 000000ccH
	push	ebx
	push	esi
	push	edi
	push	ecx
	lea	edi, DWORD PTR [ebp-204]
	mov	ecx, 51					; 00000033H
	mov	eax, -858993460				; ccccccccH
	rep stosd
	pop	ecx
	mov	DWORD PTR _this$[ebp], ecx
	mov	ecx, DWORD PTR _this$[ebp]
	call	??0OneLineOpt@@QAE@XZ
	mov	eax, DWORD PTR _this$[ebp]
	mov	DWORD PTR [eax], OFFSET ??_7ReplaceAddWithOne@@6B@
	mov	eax, DWORD PTR _this$[ebp]
	pop	edi
	pop	esi
	pop	ebx
	add	esp, 204				; 000000ccH
	cmp	ebp, esp
	call	__RTC_CheckEsp
	mov	esp, ebp
	pop	ebp
	ret	0
??0ReplaceAddWithOne@@QAE@XZ ENDP			; ReplaceAddWithOne::ReplaceAddWithOne
_TEXT	ENDS
PUBLIC	??_7ReplaceSubWithOne@@6B@			; ReplaceSubWithOne::`vftable'
PUBLIC	??_R4ReplaceSubWithOne@@6B@			; ReplaceSubWithOne::`RTTI Complete Object Locator'
PUBLIC	??_R0?AVReplaceSubWithOne@@@8			; ReplaceSubWithOne `RTTI Type Descriptor'
PUBLIC	??_R3ReplaceSubWithOne@@8			; ReplaceSubWithOne::`RTTI Class Hierarchy Descriptor'
PUBLIC	??_R2ReplaceSubWithOne@@8			; ReplaceSubWithOne::`RTTI Base Class Array'
PUBLIC	??_R1A@?0A@EA@ReplaceSubWithOne@@8		; ReplaceSubWithOne::`RTTI Base Class Descriptor at (0,-1,0,64)'
PUBLIC	?MakeOptimization@ReplaceSubWithOne@@UAEXPAV?$vector@PAVAsmCmd@@V?$allocator@PAVAsmCmd@@@std@@@std@@AAI@Z ; ReplaceSubWithOne::MakeOptimization
PUBLIC	?CanBeApplied@ReplaceSubWithOne@@UAE_NPAVAsmCmd@@@Z ; ReplaceSubWithOne::CanBeApplied
;	COMDAT ??_R1A@?0A@EA@ReplaceSubWithOne@@8
rdata$r	SEGMENT
??_R1A@?0A@EA@ReplaceSubWithOne@@8 DD FLAT:??_R0?AVReplaceSubWithOne@@@8 ; ReplaceSubWithOne::`RTTI Base Class Descriptor at (0,-1,0,64)'
	DD	02H
	DD	00H
	DD	0ffffffffH
	DD	00H
	DD	040H
	DD	FLAT:??_R3ReplaceSubWithOne@@8
rdata$r	ENDS
;	COMDAT ??_R2ReplaceSubWithOne@@8
rdata$r	SEGMENT
??_R2ReplaceSubWithOne@@8 DD FLAT:??_R1A@?0A@EA@ReplaceSubWithOne@@8 ; ReplaceSubWithOne::`RTTI Base Class Array'
	DD	FLAT:??_R1A@?0A@EA@OneLineOpt@@8
	DD	FLAT:??_R1A@?0A@EA@Optimization@@8
rdata$r	ENDS
;	COMDAT ??_R3ReplaceSubWithOne@@8
rdata$r	SEGMENT
??_R3ReplaceSubWithOne@@8 DD 00H			; ReplaceSubWithOne::`RTTI Class Hierarchy Descriptor'
	DD	00H
	DD	03H
	DD	FLAT:??_R2ReplaceSubWithOne@@8
rdata$r	ENDS
;	COMDAT ??_R0?AVReplaceSubWithOne@@@8
_DATA	SEGMENT
??_R0?AVReplaceSubWithOne@@@8 DD FLAT:??_7type_info@@6B@ ; ReplaceSubWithOne `RTTI Type Descriptor'
	DD	00H
	DB	'.?AVReplaceSubWithOne@@', 00H
_DATA	ENDS
;	COMDAT ??_R4ReplaceSubWithOne@@6B@
rdata$r	SEGMENT
??_R4ReplaceSubWithOne@@6B@ DD 00H			; ReplaceSubWithOne::`RTTI Complete Object Locator'
	DD	00H
	DD	00H
	DD	FLAT:??_R0?AVReplaceSubWithOne@@@8
	DD	FLAT:??_R3ReplaceSubWithOne@@8
rdata$r	ENDS
;	COMDAT ??_7ReplaceSubWithOne@@6B@
CONST	SEGMENT
??_7ReplaceSubWithOne@@6B@ DD FLAT:??_R4ReplaceSubWithOne@@6B@ ; ReplaceSubWithOne::`vftable'
	DD	FLAT:?MakeOptimization@ReplaceSubWithOne@@UAEXPAV?$vector@PAVAsmCmd@@V?$allocator@PAVAsmCmd@@@std@@@std@@AAI@Z
	DD	FLAT:?CanBeApplied@Optimization@@UAE_NQAPAVAsmCmd@@@Z
	DD	FLAT:?CanBeApplied@ReplaceSubWithOne@@UAE_NPAVAsmCmd@@@Z
	DD	FLAT:?OneLine@OneLineOpt@@UAE_NXZ
	DD	FLAT:?TwoLines@Optimization@@UAE_NXZ
; Function compile flags: /Odtp /RTCsu /ZI
CONST	ENDS
;	COMDAT ??0ReplaceSubWithOne@@QAE@XZ
_TEXT	SEGMENT
_this$ = -8						; size = 4
??0ReplaceSubWithOne@@QAE@XZ PROC			; ReplaceSubWithOne::ReplaceSubWithOne, COMDAT
; _this$ = ecx
	push	ebp
	mov	ebp, esp
	sub	esp, 204				; 000000ccH
	push	ebx
	push	esi
	push	edi
	push	ecx
	lea	edi, DWORD PTR [ebp-204]
	mov	ecx, 51					; 00000033H
	mov	eax, -858993460				; ccccccccH
	rep stosd
	pop	ecx
	mov	DWORD PTR _this$[ebp], ecx
	mov	ecx, DWORD PTR _this$[ebp]
	call	??0OneLineOpt@@QAE@XZ
	mov	eax, DWORD PTR _this$[ebp]
	mov	DWORD PTR [eax], OFFSET ??_7ReplaceSubWithOne@@6B@
	mov	eax, DWORD PTR _this$[ebp]
	pop	edi
	pop	esi
	pop	ebx
	add	esp, 204				; 000000ccH
	cmp	ebp, esp
	call	__RTC_CheckEsp
	mov	esp, ebp
	pop	ebp
	ret	0
??0ReplaceSubWithOne@@QAE@XZ ENDP			; ReplaceSubWithOne::ReplaceSubWithOne
_TEXT	ENDS
PUBLIC	??_7ReplaceMovConst@@6B@			; ReplaceMovConst::`vftable'
PUBLIC	??_R4ReplaceMovConst@@6B@			; ReplaceMovConst::`RTTI Complete Object Locator'
PUBLIC	??_R0?AVReplaceMovConst@@@8			; ReplaceMovConst `RTTI Type Descriptor'
PUBLIC	??_R3ReplaceMovConst@@8				; ReplaceMovConst::`RTTI Class Hierarchy Descriptor'
PUBLIC	??_R2ReplaceMovConst@@8				; ReplaceMovConst::`RTTI Base Class Array'
PUBLIC	??_R1A@?0A@EA@ReplaceMovConst@@8		; ReplaceMovConst::`RTTI Base Class Descriptor at (0,-1,0,64)'
PUBLIC	?MakeOptimization@ReplaceMovConst@@UAEXPAV?$vector@PAVAsmCmd@@V?$allocator@PAVAsmCmd@@@std@@@std@@AAI@Z ; ReplaceMovConst::MakeOptimization
PUBLIC	?CanBeApplied@ReplaceMovConst@@UAE_NPAVAsmCmd@@@Z ; ReplaceMovConst::CanBeApplied
;	COMDAT ??_R1A@?0A@EA@ReplaceMovConst@@8
rdata$r	SEGMENT
??_R1A@?0A@EA@ReplaceMovConst@@8 DD FLAT:??_R0?AVReplaceMovConst@@@8 ; ReplaceMovConst::`RTTI Base Class Descriptor at (0,-1,0,64)'
	DD	02H
	DD	00H
	DD	0ffffffffH
	DD	00H
	DD	040H
	DD	FLAT:??_R3ReplaceMovConst@@8
rdata$r	ENDS
;	COMDAT ??_R2ReplaceMovConst@@8
rdata$r	SEGMENT
??_R2ReplaceMovConst@@8 DD FLAT:??_R1A@?0A@EA@ReplaceMovConst@@8 ; ReplaceMovConst::`RTTI Base Class Array'
	DD	FLAT:??_R1A@?0A@EA@OneLineOpt@@8
	DD	FLAT:??_R1A@?0A@EA@Optimization@@8
rdata$r	ENDS
;	COMDAT ??_R3ReplaceMovConst@@8
rdata$r	SEGMENT
??_R3ReplaceMovConst@@8 DD 00H				; ReplaceMovConst::`RTTI Class Hierarchy Descriptor'
	DD	00H
	DD	03H
	DD	FLAT:??_R2ReplaceMovConst@@8
rdata$r	ENDS
;	COMDAT ??_R0?AVReplaceMovConst@@@8
_DATA	SEGMENT
??_R0?AVReplaceMovConst@@@8 DD FLAT:??_7type_info@@6B@	; ReplaceMovConst `RTTI Type Descriptor'
	DD	00H
	DB	'.?AVReplaceMovConst@@', 00H
_DATA	ENDS
;	COMDAT ??_R4ReplaceMovConst@@6B@
rdata$r	SEGMENT
??_R4ReplaceMovConst@@6B@ DD 00H			; ReplaceMovConst::`RTTI Complete Object Locator'
	DD	00H
	DD	00H
	DD	FLAT:??_R0?AVReplaceMovConst@@@8
	DD	FLAT:??_R3ReplaceMovConst@@8
rdata$r	ENDS
;	COMDAT ??_7ReplaceMovConst@@6B@
CONST	SEGMENT
??_7ReplaceMovConst@@6B@ DD FLAT:??_R4ReplaceMovConst@@6B@ ; ReplaceMovConst::`vftable'
	DD	FLAT:?MakeOptimization@ReplaceMovConst@@UAEXPAV?$vector@PAVAsmCmd@@V?$allocator@PAVAsmCmd@@@std@@@std@@AAI@Z
	DD	FLAT:?CanBeApplied@Optimization@@UAE_NQAPAVAsmCmd@@@Z
	DD	FLAT:?CanBeApplied@ReplaceMovConst@@UAE_NPAVAsmCmd@@@Z
	DD	FLAT:?OneLine@OneLineOpt@@UAE_NXZ
	DD	FLAT:?TwoLines@Optimization@@UAE_NXZ
; Function compile flags: /Odtp /RTCsu /ZI
CONST	ENDS
;	COMDAT ??0ReplaceMovConst@@QAE@XZ
_TEXT	SEGMENT
_this$ = -8						; size = 4
??0ReplaceMovConst@@QAE@XZ PROC				; ReplaceMovConst::ReplaceMovConst, COMDAT
; _this$ = ecx
	push	ebp
	mov	ebp, esp
	sub	esp, 204				; 000000ccH
	push	ebx
	push	esi
	push	edi
	push	ecx
	lea	edi, DWORD PTR [ebp-204]
	mov	ecx, 51					; 00000033H
	mov	eax, -858993460				; ccccccccH
	rep stosd
	pop	ecx
	mov	DWORD PTR _this$[ebp], ecx
	mov	ecx, DWORD PTR _this$[ebp]
	call	??0OneLineOpt@@QAE@XZ
	mov	eax, DWORD PTR _this$[ebp]
	mov	DWORD PTR [eax], OFFSET ??_7ReplaceMovConst@@6B@
	mov	eax, DWORD PTR _this$[ebp]
	pop	edi
	pop	esi
	pop	ebx
	add	esp, 204				; 000000ccH
	cmp	ebp, esp
	call	__RTC_CheckEsp
	mov	esp, ebp
	pop	ebp
	ret	0
??0ReplaceMovConst@@QAE@XZ ENDP				; ReplaceMovConst::ReplaceMovConst
_TEXT	ENDS
PUBLIC	??_7ReplaceCmpWithZero@@6B@			; ReplaceCmpWithZero::`vftable'
PUBLIC	??_R4ReplaceCmpWithZero@@6B@			; ReplaceCmpWithZero::`RTTI Complete Object Locator'
PUBLIC	??_R0?AVReplaceCmpWithZero@@@8			; ReplaceCmpWithZero `RTTI Type Descriptor'
PUBLIC	??_R3ReplaceCmpWithZero@@8			; ReplaceCmpWithZero::`RTTI Class Hierarchy Descriptor'
PUBLIC	??_R2ReplaceCmpWithZero@@8			; ReplaceCmpWithZero::`RTTI Base Class Array'
PUBLIC	??_R1A@?0A@EA@ReplaceCmpWithZero@@8		; ReplaceCmpWithZero::`RTTI Base Class Descriptor at (0,-1,0,64)'
PUBLIC	?MakeOptimization@ReplaceCmpWithZero@@UAEXPAV?$vector@PAVAsmCmd@@V?$allocator@PAVAsmCmd@@@std@@@std@@AAI@Z ; ReplaceCmpWithZero::MakeOptimization
PUBLIC	?CanBeApplied@ReplaceCmpWithZero@@UAE_NPAVAsmCmd@@@Z ; ReplaceCmpWithZero::CanBeApplied
;	COMDAT ??_R1A@?0A@EA@ReplaceCmpWithZero@@8
rdata$r	SEGMENT
??_R1A@?0A@EA@ReplaceCmpWithZero@@8 DD FLAT:??_R0?AVReplaceCmpWithZero@@@8 ; ReplaceCmpWithZero::`RTTI Base Class Descriptor at (0,-1,0,64)'
	DD	02H
	DD	00H
	DD	0ffffffffH
	DD	00H
	DD	040H
	DD	FLAT:??_R3ReplaceCmpWithZero@@8
rdata$r	ENDS
;	COMDAT ??_R2ReplaceCmpWithZero@@8
rdata$r	SEGMENT
??_R2ReplaceCmpWithZero@@8 DD FLAT:??_R1A@?0A@EA@ReplaceCmpWithZero@@8 ; ReplaceCmpWithZero::`RTTI Base Class Array'
	DD	FLAT:??_R1A@?0A@EA@OneLineOpt@@8
	DD	FLAT:??_R1A@?0A@EA@Optimization@@8
rdata$r	ENDS
;	COMDAT ??_R3ReplaceCmpWithZero@@8
rdata$r	SEGMENT
??_R3ReplaceCmpWithZero@@8 DD 00H			; ReplaceCmpWithZero::`RTTI Class Hierarchy Descriptor'
	DD	00H
	DD	03H
	DD	FLAT:??_R2ReplaceCmpWithZero@@8
rdata$r	ENDS
;	COMDAT ??_R0?AVReplaceCmpWithZero@@@8
_DATA	SEGMENT
??_R0?AVReplaceCmpWithZero@@@8 DD FLAT:??_7type_info@@6B@ ; ReplaceCmpWithZero `RTTI Type Descriptor'
	DD	00H
	DB	'.?AVReplaceCmpWithZero@@', 00H
_DATA	ENDS
;	COMDAT ??_R4ReplaceCmpWithZero@@6B@
rdata$r	SEGMENT
??_R4ReplaceCmpWithZero@@6B@ DD 00H			; ReplaceCmpWithZero::`RTTI Complete Object Locator'
	DD	00H
	DD	00H
	DD	FLAT:??_R0?AVReplaceCmpWithZero@@@8
	DD	FLAT:??_R3ReplaceCmpWithZero@@8
rdata$r	ENDS
;	COMDAT ??_7ReplaceCmpWithZero@@6B@
CONST	SEGMENT
??_7ReplaceCmpWithZero@@6B@ DD FLAT:??_R4ReplaceCmpWithZero@@6B@ ; ReplaceCmpWithZero::`vftable'
	DD	FLAT:?MakeOptimization@ReplaceCmpWithZero@@UAEXPAV?$vector@PAVAsmCmd@@V?$allocator@PAVAsmCmd@@@std@@@std@@AAI@Z
	DD	FLAT:?CanBeApplied@Optimization@@UAE_NQAPAVAsmCmd@@@Z
	DD	FLAT:?CanBeApplied@ReplaceCmpWithZero@@UAE_NPAVAsmCmd@@@Z
	DD	FLAT:?OneLine@OneLineOpt@@UAE_NXZ
	DD	FLAT:?TwoLines@Optimization@@UAE_NXZ
; Function compile flags: /Odtp /RTCsu /ZI
CONST	ENDS
;	COMDAT ??0ReplaceCmpWithZero@@QAE@XZ
_TEXT	SEGMENT
_this$ = -8						; size = 4
??0ReplaceCmpWithZero@@QAE@XZ PROC			; ReplaceCmpWithZero::ReplaceCmpWithZero, COMDAT
; _this$ = ecx
	push	ebp
	mov	ebp, esp
	sub	esp, 204				; 000000ccH
	push	ebx
	push	esi
	push	edi
	push	ecx
	lea	edi, DWORD PTR [ebp-204]
	mov	ecx, 51					; 00000033H
	mov	eax, -858993460				; ccccccccH
	rep stosd
	pop	ecx
	mov	DWORD PTR _this$[ebp], ecx
	mov	ecx, DWORD PTR _this$[ebp]
	call	??0OneLineOpt@@QAE@XZ
	mov	eax, DWORD PTR _this$[ebp]
	mov	DWORD PTR [eax], OFFSET ??_7ReplaceCmpWithZero@@6B@
	mov	eax, DWORD PTR _this$[ebp]
	pop	edi
	pop	esi
	pop	ebx
	add	esp, 204				; 000000ccH
	cmp	ebp, esp
	call	__RTC_CheckEsp
	mov	esp, ebp
	pop	ebp
	ret	0
??0ReplaceCmpWithZero@@QAE@XZ ENDP			; ReplaceCmpWithZero::ReplaceCmpWithZero
_TEXT	ENDS
PUBLIC	??_7ReplaceMulToZero@@6B@			; ReplaceMulToZero::`vftable'
PUBLIC	??_R4ReplaceMulToZero@@6B@			; ReplaceMulToZero::`RTTI Complete Object Locator'
PUBLIC	??_R0?AVReplaceMulToZero@@@8			; ReplaceMulToZero `RTTI Type Descriptor'
PUBLIC	??_R3ReplaceMulToZero@@8			; ReplaceMulToZero::`RTTI Class Hierarchy Descriptor'
PUBLIC	??_R2ReplaceMulToZero@@8			; ReplaceMulToZero::`RTTI Base Class Array'
PUBLIC	??_R1A@?0A@EA@ReplaceMulToZero@@8		; ReplaceMulToZero::`RTTI Base Class Descriptor at (0,-1,0,64)'
PUBLIC	?MakeOptimization@ReplaceMulToZero@@UAEXPAV?$vector@PAVAsmCmd@@V?$allocator@PAVAsmCmd@@@std@@@std@@AAI@Z ; ReplaceMulToZero::MakeOptimization
PUBLIC	?CanBeApplied@ReplaceMulToZero@@UAE_NPAVAsmCmd@@@Z ; ReplaceMulToZero::CanBeApplied
;	COMDAT ??_R1A@?0A@EA@ReplaceMulToZero@@8
rdata$r	SEGMENT
??_R1A@?0A@EA@ReplaceMulToZero@@8 DD FLAT:??_R0?AVReplaceMulToZero@@@8 ; ReplaceMulToZero::`RTTI Base Class Descriptor at (0,-1,0,64)'
	DD	02H
	DD	00H
	DD	0ffffffffH
	DD	00H
	DD	040H
	DD	FLAT:??_R3ReplaceMulToZero@@8
rdata$r	ENDS
;	COMDAT ??_R2ReplaceMulToZero@@8
rdata$r	SEGMENT
??_R2ReplaceMulToZero@@8 DD FLAT:??_R1A@?0A@EA@ReplaceMulToZero@@8 ; ReplaceMulToZero::`RTTI Base Class Array'
	DD	FLAT:??_R1A@?0A@EA@OneLineOpt@@8
	DD	FLAT:??_R1A@?0A@EA@Optimization@@8
rdata$r	ENDS
;	COMDAT ??_R3ReplaceMulToZero@@8
rdata$r	SEGMENT
??_R3ReplaceMulToZero@@8 DD 00H				; ReplaceMulToZero::`RTTI Class Hierarchy Descriptor'
	DD	00H
	DD	03H
	DD	FLAT:??_R2ReplaceMulToZero@@8
rdata$r	ENDS
;	COMDAT ??_R0?AVReplaceMulToZero@@@8
_DATA	SEGMENT
??_R0?AVReplaceMulToZero@@@8 DD FLAT:??_7type_info@@6B@	; ReplaceMulToZero `RTTI Type Descriptor'
	DD	00H
	DB	'.?AVReplaceMulToZero@@', 00H
_DATA	ENDS
;	COMDAT ??_R4ReplaceMulToZero@@6B@
rdata$r	SEGMENT
??_R4ReplaceMulToZero@@6B@ DD 00H			; ReplaceMulToZero::`RTTI Complete Object Locator'
	DD	00H
	DD	00H
	DD	FLAT:??_R0?AVReplaceMulToZero@@@8
	DD	FLAT:??_R3ReplaceMulToZero@@8
rdata$r	ENDS
;	COMDAT ??_7ReplaceMulToZero@@6B@
CONST	SEGMENT
??_7ReplaceMulToZero@@6B@ DD FLAT:??_R4ReplaceMulToZero@@6B@ ; ReplaceMulToZero::`vftable'
	DD	FLAT:?MakeOptimization@ReplaceMulToZero@@UAEXPAV?$vector@PAVAsmCmd@@V?$allocator@PAVAsmCmd@@@std@@@std@@AAI@Z
	DD	FLAT:?CanBeApplied@Optimization@@UAE_NQAPAVAsmCmd@@@Z
	DD	FLAT:?CanBeApplied@ReplaceMulToZero@@UAE_NPAVAsmCmd@@@Z
	DD	FLAT:?OneLine@OneLineOpt@@UAE_NXZ
	DD	FLAT:?TwoLines@Optimization@@UAE_NXZ
; Function compile flags: /Odtp /RTCsu /ZI
CONST	ENDS
;	COMDAT ??0ReplaceMulToZero@@QAE@XZ
_TEXT	SEGMENT
_this$ = -8						; size = 4
??0ReplaceMulToZero@@QAE@XZ PROC			; ReplaceMulToZero::ReplaceMulToZero, COMDAT
; _this$ = ecx
	push	ebp
	mov	ebp, esp
	sub	esp, 204				; 000000ccH
	push	ebx
	push	esi
	push	edi
	push	ecx
	lea	edi, DWORD PTR [ebp-204]
	mov	ecx, 51					; 00000033H
	mov	eax, -858993460				; ccccccccH
	rep stosd
	pop	ecx
	mov	DWORD PTR _this$[ebp], ecx
	mov	ecx, DWORD PTR _this$[ebp]
	call	??0OneLineOpt@@QAE@XZ
	mov	eax, DWORD PTR _this$[ebp]
	mov	DWORD PTR [eax], OFFSET ??_7ReplaceMulToZero@@6B@
	mov	eax, DWORD PTR _this$[ebp]
	pop	edi
	pop	esi
	pop	ebx
	add	esp, 204				; 000000ccH
	cmp	ebp, esp
	call	__RTC_CheckEsp
	mov	esp, ebp
	pop	ebp
	ret	0
??0ReplaceMulToZero@@QAE@XZ ENDP			; ReplaceMulToZero::ReplaceMulToZero
_TEXT	ENDS
PUBLIC	??_7ReplaceIMUL@@6B@				; ReplaceIMUL::`vftable'
PUBLIC	??_R4ReplaceIMUL@@6B@				; ReplaceIMUL::`RTTI Complete Object Locator'
PUBLIC	??_R0?AVReplaceIMUL@@@8				; ReplaceIMUL `RTTI Type Descriptor'
PUBLIC	??_R3ReplaceIMUL@@8				; ReplaceIMUL::`RTTI Class Hierarchy Descriptor'
PUBLIC	??_R2ReplaceIMUL@@8				; ReplaceIMUL::`RTTI Base Class Array'
PUBLIC	??_R1A@?0A@EA@ReplaceIMUL@@8			; ReplaceIMUL::`RTTI Base Class Descriptor at (0,-1,0,64)'
PUBLIC	?MakeOptimization@ReplaceIMUL@@UAEXPAV?$vector@PAVAsmCmd@@V?$allocator@PAVAsmCmd@@@std@@@std@@AAI@Z ; ReplaceIMUL::MakeOptimization
PUBLIC	?CanBeApplied@ReplaceIMUL@@UAE_NPAVAsmCmd@@@Z	; ReplaceIMUL::CanBeApplied
;	COMDAT ??_R1A@?0A@EA@ReplaceIMUL@@8
rdata$r	SEGMENT
??_R1A@?0A@EA@ReplaceIMUL@@8 DD FLAT:??_R0?AVReplaceIMUL@@@8 ; ReplaceIMUL::`RTTI Base Class Descriptor at (0,-1,0,64)'
	DD	02H
	DD	00H
	DD	0ffffffffH
	DD	00H
	DD	040H
	DD	FLAT:??_R3ReplaceIMUL@@8
rdata$r	ENDS
;	COMDAT ??_R2ReplaceIMUL@@8
rdata$r	SEGMENT
??_R2ReplaceIMUL@@8 DD FLAT:??_R1A@?0A@EA@ReplaceIMUL@@8 ; ReplaceIMUL::`RTTI Base Class Array'
	DD	FLAT:??_R1A@?0A@EA@OneLineOpt@@8
	DD	FLAT:??_R1A@?0A@EA@Optimization@@8
rdata$r	ENDS
;	COMDAT ??_R3ReplaceIMUL@@8
rdata$r	SEGMENT
??_R3ReplaceIMUL@@8 DD 00H				; ReplaceIMUL::`RTTI Class Hierarchy Descriptor'
	DD	00H
	DD	03H
	DD	FLAT:??_R2ReplaceIMUL@@8
rdata$r	ENDS
;	COMDAT ??_R0?AVReplaceIMUL@@@8
_DATA	SEGMENT
??_R0?AVReplaceIMUL@@@8 DD FLAT:??_7type_info@@6B@	; ReplaceIMUL `RTTI Type Descriptor'
	DD	00H
	DB	'.?AVReplaceIMUL@@', 00H
_DATA	ENDS
;	COMDAT ??_R4ReplaceIMUL@@6B@
rdata$r	SEGMENT
??_R4ReplaceIMUL@@6B@ DD 00H				; ReplaceIMUL::`RTTI Complete Object Locator'
	DD	00H
	DD	00H
	DD	FLAT:??_R0?AVReplaceIMUL@@@8
	DD	FLAT:??_R3ReplaceIMUL@@8
rdata$r	ENDS
;	COMDAT ??_7ReplaceIMUL@@6B@
CONST	SEGMENT
??_7ReplaceIMUL@@6B@ DD FLAT:??_R4ReplaceIMUL@@6B@	; ReplaceIMUL::`vftable'
	DD	FLAT:?MakeOptimization@ReplaceIMUL@@UAEXPAV?$vector@PAVAsmCmd@@V?$allocator@PAVAsmCmd@@@std@@@std@@AAI@Z
	DD	FLAT:?CanBeApplied@Optimization@@UAE_NQAPAVAsmCmd@@@Z
	DD	FLAT:?CanBeApplied@ReplaceIMUL@@UAE_NPAVAsmCmd@@@Z
	DD	FLAT:?OneLine@OneLineOpt@@UAE_NXZ
	DD	FLAT:?TwoLines@Optimization@@UAE_NXZ
; Function compile flags: /Odtp /RTCsu /ZI
CONST	ENDS
;	COMDAT ??0ReplaceIMUL@@QAE@XZ
_TEXT	SEGMENT
_this$ = -8						; size = 4
??0ReplaceIMUL@@QAE@XZ PROC				; ReplaceIMUL::ReplaceIMUL, COMDAT
; _this$ = ecx
	push	ebp
	mov	ebp, esp
	sub	esp, 204				; 000000ccH
	push	ebx
	push	esi
	push	edi
	push	ecx
	lea	edi, DWORD PTR [ebp-204]
	mov	ecx, 51					; 00000033H
	mov	eax, -858993460				; ccccccccH
	rep stosd
	pop	ecx
	mov	DWORD PTR _this$[ebp], ecx
	mov	ecx, DWORD PTR _this$[ebp]
	call	??0OneLineOpt@@QAE@XZ
	mov	eax, DWORD PTR _this$[ebp]
	mov	DWORD PTR [eax], OFFSET ??_7ReplaceIMUL@@6B@
	mov	eax, DWORD PTR _this$[ebp]
	pop	edi
	pop	esi
	pop	ebx
	add	esp, 204				; 000000ccH
	cmp	ebp, esp
	call	__RTC_CheckEsp
	mov	esp, ebp
	pop	ebp
	ret	0
??0ReplaceIMUL@@QAE@XZ ENDP				; ReplaceIMUL::ReplaceIMUL
_TEXT	ENDS
PUBLIC	??_7DeletePushPop@@6B@				; DeletePushPop::`vftable'
PUBLIC	??0TwoLinesOpt@@QAE@XZ				; TwoLinesOpt::TwoLinesOpt
PUBLIC	??_R4DeletePushPop@@6B@				; DeletePushPop::`RTTI Complete Object Locator'
PUBLIC	??_R0?AVDeletePushPop@@@8			; DeletePushPop `RTTI Type Descriptor'
PUBLIC	??_R3DeletePushPop@@8				; DeletePushPop::`RTTI Class Hierarchy Descriptor'
PUBLIC	??_R2DeletePushPop@@8				; DeletePushPop::`RTTI Base Class Array'
PUBLIC	??_R1A@?0A@EA@DeletePushPop@@8			; DeletePushPop::`RTTI Base Class Descriptor at (0,-1,0,64)'
PUBLIC	??_R1A@?0A@EA@TwoLinesOpt@@8			; TwoLinesOpt::`RTTI Base Class Descriptor at (0,-1,0,64)'
PUBLIC	??_R0?AVTwoLinesOpt@@@8				; TwoLinesOpt `RTTI Type Descriptor'
PUBLIC	??_R3TwoLinesOpt@@8				; TwoLinesOpt::`RTTI Class Hierarchy Descriptor'
PUBLIC	??_R2TwoLinesOpt@@8				; TwoLinesOpt::`RTTI Base Class Array'
PUBLIC	?MakeOptimization@DeletePushPop@@UAEXPAV?$vector@PAVAsmCmd@@V?$allocator@PAVAsmCmd@@@std@@@std@@AAI@Z ; DeletePushPop::MakeOptimization
PUBLIC	?CanBeApplied@DeletePushPop@@UAE_NQAPAVAsmCmd@@@Z ; DeletePushPop::CanBeApplied
PUBLIC	?CanBeApplied@Optimization@@UAE_NPAVAsmCmd@@@Z	; Optimization::CanBeApplied
PUBLIC	?OneLine@Optimization@@UAE_NXZ			; Optimization::OneLine
PUBLIC	?TwoLines@TwoLinesOpt@@UAE_NXZ			; TwoLinesOpt::TwoLines
;	COMDAT ??_R2TwoLinesOpt@@8
rdata$r	SEGMENT
??_R2TwoLinesOpt@@8 DD FLAT:??_R1A@?0A@EA@TwoLinesOpt@@8 ; TwoLinesOpt::`RTTI Base Class Array'
	DD	FLAT:??_R1A@?0A@EA@Optimization@@8
rdata$r	ENDS
;	COMDAT ??_R3TwoLinesOpt@@8
rdata$r	SEGMENT
??_R3TwoLinesOpt@@8 DD 00H				; TwoLinesOpt::`RTTI Class Hierarchy Descriptor'
	DD	00H
	DD	02H
	DD	FLAT:??_R2TwoLinesOpt@@8
rdata$r	ENDS
;	COMDAT ??_R0?AVTwoLinesOpt@@@8
_DATA	SEGMENT
??_R0?AVTwoLinesOpt@@@8 DD FLAT:??_7type_info@@6B@	; TwoLinesOpt `RTTI Type Descriptor'
	DD	00H
	DB	'.?AVTwoLinesOpt@@', 00H
_DATA	ENDS
;	COMDAT ??_R1A@?0A@EA@TwoLinesOpt@@8
rdata$r	SEGMENT
??_R1A@?0A@EA@TwoLinesOpt@@8 DD FLAT:??_R0?AVTwoLinesOpt@@@8 ; TwoLinesOpt::`RTTI Base Class Descriptor at (0,-1,0,64)'
	DD	01H
	DD	00H
	DD	0ffffffffH
	DD	00H
	DD	040H
	DD	FLAT:??_R3TwoLinesOpt@@8
rdata$r	ENDS
;	COMDAT ??_R1A@?0A@EA@DeletePushPop@@8
rdata$r	SEGMENT
??_R1A@?0A@EA@DeletePushPop@@8 DD FLAT:??_R0?AVDeletePushPop@@@8 ; DeletePushPop::`RTTI Base Class Descriptor at (0,-1,0,64)'
	DD	02H
	DD	00H
	DD	0ffffffffH
	DD	00H
	DD	040H
	DD	FLAT:??_R3DeletePushPop@@8
rdata$r	ENDS
;	COMDAT ??_R2DeletePushPop@@8
rdata$r	SEGMENT
??_R2DeletePushPop@@8 DD FLAT:??_R1A@?0A@EA@DeletePushPop@@8 ; DeletePushPop::`RTTI Base Class Array'
	DD	FLAT:??_R1A@?0A@EA@TwoLinesOpt@@8
	DD	FLAT:??_R1A@?0A@EA@Optimization@@8
rdata$r	ENDS
;	COMDAT ??_R3DeletePushPop@@8
rdata$r	SEGMENT
??_R3DeletePushPop@@8 DD 00H				; DeletePushPop::`RTTI Class Hierarchy Descriptor'
	DD	00H
	DD	03H
	DD	FLAT:??_R2DeletePushPop@@8
rdata$r	ENDS
;	COMDAT ??_R0?AVDeletePushPop@@@8
_DATA	SEGMENT
??_R0?AVDeletePushPop@@@8 DD FLAT:??_7type_info@@6B@	; DeletePushPop `RTTI Type Descriptor'
	DD	00H
	DB	'.?AVDeletePushPop@@', 00H
_DATA	ENDS
;	COMDAT ??_R4DeletePushPop@@6B@
rdata$r	SEGMENT
??_R4DeletePushPop@@6B@ DD 00H				; DeletePushPop::`RTTI Complete Object Locator'
	DD	00H
	DD	00H
	DD	FLAT:??_R0?AVDeletePushPop@@@8
	DD	FLAT:??_R3DeletePushPop@@8
rdata$r	ENDS
;	COMDAT ??_7DeletePushPop@@6B@
CONST	SEGMENT
??_7DeletePushPop@@6B@ DD FLAT:??_R4DeletePushPop@@6B@	; DeletePushPop::`vftable'
	DD	FLAT:?MakeOptimization@DeletePushPop@@UAEXPAV?$vector@PAVAsmCmd@@V?$allocator@PAVAsmCmd@@@std@@@std@@AAI@Z
	DD	FLAT:?CanBeApplied@DeletePushPop@@UAE_NQAPAVAsmCmd@@@Z
	DD	FLAT:?CanBeApplied@Optimization@@UAE_NPAVAsmCmd@@@Z
	DD	FLAT:?OneLine@Optimization@@UAE_NXZ
	DD	FLAT:?TwoLines@TwoLinesOpt@@UAE_NXZ
; Function compile flags: /Odtp /RTCsu /ZI
CONST	ENDS
;	COMDAT ??0DeletePushPop@@QAE@XZ
_TEXT	SEGMENT
_this$ = -8						; size = 4
??0DeletePushPop@@QAE@XZ PROC				; DeletePushPop::DeletePushPop, COMDAT
; _this$ = ecx
	push	ebp
	mov	ebp, esp
	sub	esp, 204				; 000000ccH
	push	ebx
	push	esi
	push	edi
	push	ecx
	lea	edi, DWORD PTR [ebp-204]
	mov	ecx, 51					; 00000033H
	mov	eax, -858993460				; ccccccccH
	rep stosd
	pop	ecx
	mov	DWORD PTR _this$[ebp], ecx
	mov	ecx, DWORD PTR _this$[ebp]
	call	??0TwoLinesOpt@@QAE@XZ
	mov	eax, DWORD PTR _this$[ebp]
	mov	DWORD PTR [eax], OFFSET ??_7DeletePushPop@@6B@
	mov	eax, DWORD PTR _this$[ebp]
	pop	edi
	pop	esi
	pop	ebx
	add	esp, 204				; 000000ccH
	cmp	ebp, esp
	call	__RTC_CheckEsp
	mov	esp, ebp
	pop	ebp
	ret	0
??0DeletePushPop@@QAE@XZ ENDP				; DeletePushPop::DeletePushPop
; Function compile flags: /Odtp /RTCsu /ZI
_TEXT	ENDS
;	COMDAT ?CanBeApplied@Optimization@@UAE_NPAVAsmCmd@@@Z
_TEXT	SEGMENT
_this$ = -8						; size = 4
_line$ = 8						; size = 4
?CanBeApplied@Optimization@@UAE_NPAVAsmCmd@@@Z PROC	; Optimization::CanBeApplied, COMDAT
; _this$ = ecx
; Line 7
	push	ebp
	mov	ebp, esp
	sub	esp, 204				; 000000ccH
	push	ebx
	push	esi
	push	edi
	push	ecx
	lea	edi, DWORD PTR [ebp-204]
	mov	ecx, 51					; 00000033H
	mov	eax, -858993460				; ccccccccH
	rep stosd
	pop	ecx
	mov	DWORD PTR _this$[ebp], ecx
	xor	al, al
	pop	edi
	pop	esi
	pop	ebx
	mov	esp, ebp
	pop	ebp
	ret	4
?CanBeApplied@Optimization@@UAE_NPAVAsmCmd@@@Z ENDP	; Optimization::CanBeApplied
; Function compile flags: /Odtp /RTCsu /ZI
_TEXT	ENDS
;	COMDAT ?OneLine@Optimization@@UAE_NXZ
_TEXT	SEGMENT
_this$ = -8						; size = 4
?OneLine@Optimization@@UAE_NXZ PROC			; Optimization::OneLine, COMDAT
; _this$ = ecx
; Line 9
	push	ebp
	mov	ebp, esp
	sub	esp, 204				; 000000ccH
	push	ebx
	push	esi
	push	edi
	push	ecx
	lea	edi, DWORD PTR [ebp-204]
	mov	ecx, 51					; 00000033H
	mov	eax, -858993460				; ccccccccH
	rep stosd
	pop	ecx
	mov	DWORD PTR _this$[ebp], ecx
	xor	al, al
	pop	edi
	pop	esi
	pop	ebx
	mov	esp, ebp
	pop	ebp
	ret	0
?OneLine@Optimization@@UAE_NXZ ENDP			; Optimization::OneLine
; Function compile flags: /Odtp /RTCsu /ZI
_TEXT	ENDS
;	COMDAT ?TwoLines@TwoLinesOpt@@UAE_NXZ
_TEXT	SEGMENT
_this$ = -8						; size = 4
?TwoLines@TwoLinesOpt@@UAE_NXZ PROC			; TwoLinesOpt::TwoLines, COMDAT
; _this$ = ecx
; Line 24
	push	ebp
	mov	ebp, esp
	sub	esp, 204				; 000000ccH
	push	ebx
	push	esi
	push	edi
	push	ecx
	lea	edi, DWORD PTR [ebp-204]
	mov	ecx, 51					; 00000033H
	mov	eax, -858993460				; ccccccccH
	rep stosd
	pop	ecx
	mov	DWORD PTR _this$[ebp], ecx
	mov	al, 1
	pop	edi
	pop	esi
	pop	ebx
	mov	esp, ebp
	pop	ebp
	ret	0
?TwoLines@TwoLinesOpt@@UAE_NXZ ENDP			; TwoLinesOpt::TwoLines
_TEXT	ENDS
PUBLIC	??_7ReplacePushPopWithMov@@6B@			; ReplacePushPopWithMov::`vftable'
PUBLIC	??_R4ReplacePushPopWithMov@@6B@			; ReplacePushPopWithMov::`RTTI Complete Object Locator'
PUBLIC	??_R0?AVReplacePushPopWithMov@@@8		; ReplacePushPopWithMov `RTTI Type Descriptor'
PUBLIC	??_R3ReplacePushPopWithMov@@8			; ReplacePushPopWithMov::`RTTI Class Hierarchy Descriptor'
PUBLIC	??_R2ReplacePushPopWithMov@@8			; ReplacePushPopWithMov::`RTTI Base Class Array'
PUBLIC	??_R1A@?0A@EA@ReplacePushPopWithMov@@8		; ReplacePushPopWithMov::`RTTI Base Class Descriptor at (0,-1,0,64)'
PUBLIC	?MakeOptimization@ReplacePushPopWithMov@@UAEXPAV?$vector@PAVAsmCmd@@V?$allocator@PAVAsmCmd@@@std@@@std@@AAI@Z ; ReplacePushPopWithMov::MakeOptimization
PUBLIC	?CanBeApplied@ReplacePushPopWithMov@@UAE_NQAPAVAsmCmd@@@Z ; ReplacePushPopWithMov::CanBeApplied
;	COMDAT ??_R1A@?0A@EA@ReplacePushPopWithMov@@8
rdata$r	SEGMENT
??_R1A@?0A@EA@ReplacePushPopWithMov@@8 DD FLAT:??_R0?AVReplacePushPopWithMov@@@8 ; ReplacePushPopWithMov::`RTTI Base Class Descriptor at (0,-1,0,64)'
	DD	02H
	DD	00H
	DD	0ffffffffH
	DD	00H
	DD	040H
	DD	FLAT:??_R3ReplacePushPopWithMov@@8
rdata$r	ENDS
;	COMDAT ??_R2ReplacePushPopWithMov@@8
rdata$r	SEGMENT
??_R2ReplacePushPopWithMov@@8 DD FLAT:??_R1A@?0A@EA@ReplacePushPopWithMov@@8 ; ReplacePushPopWithMov::`RTTI Base Class Array'
	DD	FLAT:??_R1A@?0A@EA@TwoLinesOpt@@8
	DD	FLAT:??_R1A@?0A@EA@Optimization@@8
rdata$r	ENDS
;	COMDAT ??_R3ReplacePushPopWithMov@@8
rdata$r	SEGMENT
??_R3ReplacePushPopWithMov@@8 DD 00H			; ReplacePushPopWithMov::`RTTI Class Hierarchy Descriptor'
	DD	00H
	DD	03H
	DD	FLAT:??_R2ReplacePushPopWithMov@@8
rdata$r	ENDS
;	COMDAT ??_R0?AVReplacePushPopWithMov@@@8
_DATA	SEGMENT
??_R0?AVReplacePushPopWithMov@@@8 DD FLAT:??_7type_info@@6B@ ; ReplacePushPopWithMov `RTTI Type Descriptor'
	DD	00H
	DB	'.?AVReplacePushPopWithMov@@', 00H
_DATA	ENDS
;	COMDAT ??_R4ReplacePushPopWithMov@@6B@
rdata$r	SEGMENT
??_R4ReplacePushPopWithMov@@6B@ DD 00H			; ReplacePushPopWithMov::`RTTI Complete Object Locator'
	DD	00H
	DD	00H
	DD	FLAT:??_R0?AVReplacePushPopWithMov@@@8
	DD	FLAT:??_R3ReplacePushPopWithMov@@8
rdata$r	ENDS
;	COMDAT ??_7ReplacePushPopWithMov@@6B@
CONST	SEGMENT
??_7ReplacePushPopWithMov@@6B@ DD FLAT:??_R4ReplacePushPopWithMov@@6B@ ; ReplacePushPopWithMov::`vftable'
	DD	FLAT:?MakeOptimization@ReplacePushPopWithMov@@UAEXPAV?$vector@PAVAsmCmd@@V?$allocator@PAVAsmCmd@@@std@@@std@@AAI@Z
	DD	FLAT:?CanBeApplied@ReplacePushPopWithMov@@UAE_NQAPAVAsmCmd@@@Z
	DD	FLAT:?CanBeApplied@Optimization@@UAE_NPAVAsmCmd@@@Z
	DD	FLAT:?OneLine@Optimization@@UAE_NXZ
	DD	FLAT:?TwoLines@TwoLinesOpt@@UAE_NXZ
; Function compile flags: /Odtp /RTCsu /ZI
CONST	ENDS
;	COMDAT ??0ReplacePushPopWithMov@@QAE@XZ
_TEXT	SEGMENT
_this$ = -8						; size = 4
??0ReplacePushPopWithMov@@QAE@XZ PROC			; ReplacePushPopWithMov::ReplacePushPopWithMov, COMDAT
; _this$ = ecx
	push	ebp
	mov	ebp, esp
	sub	esp, 204				; 000000ccH
	push	ebx
	push	esi
	push	edi
	push	ecx
	lea	edi, DWORD PTR [ebp-204]
	mov	ecx, 51					; 00000033H
	mov	eax, -858993460				; ccccccccH
	rep stosd
	pop	ecx
	mov	DWORD PTR _this$[ebp], ecx
	mov	ecx, DWORD PTR _this$[ebp]
	call	??0TwoLinesOpt@@QAE@XZ
	mov	eax, DWORD PTR _this$[ebp]
	mov	DWORD PTR [eax], OFFSET ??_7ReplacePushPopWithMov@@6B@
	mov	eax, DWORD PTR _this$[ebp]
	pop	edi
	pop	esi
	pop	ebx
	add	esp, 204				; 000000ccH
	cmp	ebp, esp
	call	__RTC_CheckEsp
	mov	esp, ebp
	pop	ebp
	ret	0
??0ReplacePushPopWithMov@@QAE@XZ ENDP			; ReplacePushPopWithMov::ReplacePushPopWithMov
_TEXT	ENDS
PUBLIC	??_7ReplaceMovPushWithPush@@6B@			; ReplaceMovPushWithPush::`vftable'
PUBLIC	??_R4ReplaceMovPushWithPush@@6B@		; ReplaceMovPushWithPush::`RTTI Complete Object Locator'
PUBLIC	??_R0?AVReplaceMovPushWithPush@@@8		; ReplaceMovPushWithPush `RTTI Type Descriptor'
PUBLIC	??_R3ReplaceMovPushWithPush@@8			; ReplaceMovPushWithPush::`RTTI Class Hierarchy Descriptor'
PUBLIC	??_R2ReplaceMovPushWithPush@@8			; ReplaceMovPushWithPush::`RTTI Base Class Array'
PUBLIC	??_R1A@?0A@EA@ReplaceMovPushWithPush@@8		; ReplaceMovPushWithPush::`RTTI Base Class Descriptor at (0,-1,0,64)'
PUBLIC	?MakeOptimization@ReplaceMovPushWithPush@@UAEXPAV?$vector@PAVAsmCmd@@V?$allocator@PAVAsmCmd@@@std@@@std@@AAI@Z ; ReplaceMovPushWithPush::MakeOptimization
PUBLIC	?CanBeApplied@ReplaceMovPushWithPush@@UAE_NQAPAVAsmCmd@@@Z ; ReplaceMovPushWithPush::CanBeApplied
;	COMDAT ??_R1A@?0A@EA@ReplaceMovPushWithPush@@8
rdata$r	SEGMENT
??_R1A@?0A@EA@ReplaceMovPushWithPush@@8 DD FLAT:??_R0?AVReplaceMovPushWithPush@@@8 ; ReplaceMovPushWithPush::`RTTI Base Class Descriptor at (0,-1,0,64)'
	DD	02H
	DD	00H
	DD	0ffffffffH
	DD	00H
	DD	040H
	DD	FLAT:??_R3ReplaceMovPushWithPush@@8
rdata$r	ENDS
;	COMDAT ??_R2ReplaceMovPushWithPush@@8
rdata$r	SEGMENT
??_R2ReplaceMovPushWithPush@@8 DD FLAT:??_R1A@?0A@EA@ReplaceMovPushWithPush@@8 ; ReplaceMovPushWithPush::`RTTI Base Class Array'
	DD	FLAT:??_R1A@?0A@EA@TwoLinesOpt@@8
	DD	FLAT:??_R1A@?0A@EA@Optimization@@8
rdata$r	ENDS
;	COMDAT ??_R3ReplaceMovPushWithPush@@8
rdata$r	SEGMENT
??_R3ReplaceMovPushWithPush@@8 DD 00H			; ReplaceMovPushWithPush::`RTTI Class Hierarchy Descriptor'
	DD	00H
	DD	03H
	DD	FLAT:??_R2ReplaceMovPushWithPush@@8
rdata$r	ENDS
;	COMDAT ??_R0?AVReplaceMovPushWithPush@@@8
_DATA	SEGMENT
??_R0?AVReplaceMovPushWithPush@@@8 DD FLAT:??_7type_info@@6B@ ; ReplaceMovPushWithPush `RTTI Type Descriptor'
	DD	00H
	DB	'.?AVReplaceMovPushWithPush@@', 00H
_DATA	ENDS
;	COMDAT ??_R4ReplaceMovPushWithPush@@6B@
rdata$r	SEGMENT
??_R4ReplaceMovPushWithPush@@6B@ DD 00H			; ReplaceMovPushWithPush::`RTTI Complete Object Locator'
	DD	00H
	DD	00H
	DD	FLAT:??_R0?AVReplaceMovPushWithPush@@@8
	DD	FLAT:??_R3ReplaceMovPushWithPush@@8
rdata$r	ENDS
;	COMDAT ??_7ReplaceMovPushWithPush@@6B@
CONST	SEGMENT
??_7ReplaceMovPushWithPush@@6B@ DD FLAT:??_R4ReplaceMovPushWithPush@@6B@ ; ReplaceMovPushWithPush::`vftable'
	DD	FLAT:?MakeOptimization@ReplaceMovPushWithPush@@UAEXPAV?$vector@PAVAsmCmd@@V?$allocator@PAVAsmCmd@@@std@@@std@@AAI@Z
	DD	FLAT:?CanBeApplied@ReplaceMovPushWithPush@@UAE_NQAPAVAsmCmd@@@Z
	DD	FLAT:?CanBeApplied@Optimization@@UAE_NPAVAsmCmd@@@Z
	DD	FLAT:?OneLine@Optimization@@UAE_NXZ
	DD	FLAT:?TwoLines@TwoLinesOpt@@UAE_NXZ
; Function compile flags: /Odtp /RTCsu /ZI
CONST	ENDS
;	COMDAT ??0ReplaceMovPushWithPush@@QAE@XZ
_TEXT	SEGMENT
_this$ = -8						; size = 4
??0ReplaceMovPushWithPush@@QAE@XZ PROC			; ReplaceMovPushWithPush::ReplaceMovPushWithPush, COMDAT
; _this$ = ecx
	push	ebp
	mov	ebp, esp
	sub	esp, 204				; 000000ccH
	push	ebx
	push	esi
	push	edi
	push	ecx
	lea	edi, DWORD PTR [ebp-204]
	mov	ecx, 51					; 00000033H
	mov	eax, -858993460				; ccccccccH
	rep stosd
	pop	ecx
	mov	DWORD PTR _this$[ebp], ecx
	mov	ecx, DWORD PTR _this$[ebp]
	call	??0TwoLinesOpt@@QAE@XZ
	mov	eax, DWORD PTR _this$[ebp]
	mov	DWORD PTR [eax], OFFSET ??_7ReplaceMovPushWithPush@@6B@
	mov	eax, DWORD PTR _this$[ebp]
	pop	edi
	pop	esi
	pop	ebx
	add	esp, 204				; 000000ccH
	cmp	ebp, esp
	call	__RTC_CheckEsp
	mov	esp, ebp
	pop	ebp
	ret	0
??0ReplaceMovPushWithPush@@QAE@XZ ENDP			; ReplaceMovPushWithPush::ReplaceMovPushWithPush
_TEXT	ENDS
PUBLIC	??_7OneLineOpt@@6B@				; OneLineOpt::`vftable'
PUBLIC	??0Optimization@@QAE@XZ				; Optimization::Optimization
PUBLIC	??_R4OneLineOpt@@6B@				; OneLineOpt::`RTTI Complete Object Locator'
PUBLIC	?MakeOptimization@Optimization@@UAEXPAV?$vector@PAVAsmCmd@@V?$allocator@PAVAsmCmd@@@std@@@std@@AAI@Z ; Optimization::MakeOptimization
PUBLIC	?CanBeApplied@OneLineOpt@@UAE_NPAVAsmCmd@@@Z	; OneLineOpt::CanBeApplied
;	COMDAT ??_R4OneLineOpt@@6B@
rdata$r	SEGMENT
??_R4OneLineOpt@@6B@ DD 00H				; OneLineOpt::`RTTI Complete Object Locator'
	DD	00H
	DD	00H
	DD	FLAT:??_R0?AVOneLineOpt@@@8
	DD	FLAT:??_R3OneLineOpt@@8
rdata$r	ENDS
;	COMDAT ??_7OneLineOpt@@6B@
CONST	SEGMENT
??_7OneLineOpt@@6B@ DD FLAT:??_R4OneLineOpt@@6B@	; OneLineOpt::`vftable'
	DD	FLAT:?MakeOptimization@Optimization@@UAEXPAV?$vector@PAVAsmCmd@@V?$allocator@PAVAsmCmd@@@std@@@std@@AAI@Z
	DD	FLAT:?CanBeApplied@Optimization@@UAE_NQAPAVAsmCmd@@@Z
	DD	FLAT:?CanBeApplied@OneLineOpt@@UAE_NPAVAsmCmd@@@Z
	DD	FLAT:?OneLine@OneLineOpt@@UAE_NXZ
	DD	FLAT:?TwoLines@Optimization@@UAE_NXZ
; Function compile flags: /Odtp /RTCsu /ZI
CONST	ENDS
;	COMDAT ??0OneLineOpt@@QAE@XZ
_TEXT	SEGMENT
_this$ = -8						; size = 4
??0OneLineOpt@@QAE@XZ PROC				; OneLineOpt::OneLineOpt, COMDAT
; _this$ = ecx
	push	ebp
	mov	ebp, esp
	sub	esp, 204				; 000000ccH
	push	ebx
	push	esi
	push	edi
	push	ecx
	lea	edi, DWORD PTR [ebp-204]
	mov	ecx, 51					; 00000033H
	mov	eax, -858993460				; ccccccccH
	rep stosd
	pop	ecx
	mov	DWORD PTR _this$[ebp], ecx
	mov	ecx, DWORD PTR _this$[ebp]
	call	??0Optimization@@QAE@XZ
	mov	eax, DWORD PTR _this$[ebp]
	mov	DWORD PTR [eax], OFFSET ??_7OneLineOpt@@6B@
	mov	eax, DWORD PTR _this$[ebp]
	pop	edi
	pop	esi
	pop	ebx
	add	esp, 204				; 000000ccH
	cmp	ebp, esp
	call	__RTC_CheckEsp
	mov	esp, ebp
	pop	ebp
	ret	0
??0OneLineOpt@@QAE@XZ ENDP				; OneLineOpt::OneLineOpt
; Function compile flags: /Odtp /RTCsu /ZI
_TEXT	ENDS
;	COMDAT ?MakeOptimization@Optimization@@UAEXPAV?$vector@PAVAsmCmd@@V?$allocator@PAVAsmCmd@@@std@@@std@@AAI@Z
_TEXT	SEGMENT
_this$ = -8						; size = 4
_commands$ = 8						; size = 4
_i$ = 12						; size = 4
?MakeOptimization@Optimization@@UAEXPAV?$vector@PAVAsmCmd@@V?$allocator@PAVAsmCmd@@@std@@@std@@AAI@Z PROC ; Optimization::MakeOptimization, COMDAT
; _this$ = ecx
; Line 6
	push	ebp
	mov	ebp, esp
	sub	esp, 204				; 000000ccH
	push	ebx
	push	esi
	push	edi
	push	ecx
	lea	edi, DWORD PTR [ebp-204]
	mov	ecx, 51					; 00000033H
	mov	eax, -858993460				; ccccccccH
	rep stosd
	pop	ecx
	mov	DWORD PTR _this$[ebp], ecx
	pop	edi
	pop	esi
	pop	ebx
	mov	esp, ebp
	pop	ebp
	ret	8
?MakeOptimization@Optimization@@UAEXPAV?$vector@PAVAsmCmd@@V?$allocator@PAVAsmCmd@@@std@@@std@@AAI@Z ENDP ; Optimization::MakeOptimization
; Function compile flags: /Odtp /RTCsu /ZI
_TEXT	ENDS
;	COMDAT ?CanBeApplied@OneLineOpt@@UAE_NPAVAsmCmd@@@Z
_TEXT	SEGMENT
_this$ = -8						; size = 4
_line$ = 8						; size = 4
?CanBeApplied@OneLineOpt@@UAE_NPAVAsmCmd@@@Z PROC	; OneLineOpt::CanBeApplied, COMDAT
; _this$ = ecx
; Line 16
	push	ebp
	mov	ebp, esp
	sub	esp, 204				; 000000ccH
	push	ebx
	push	esi
	push	edi
	push	ecx
	lea	edi, DWORD PTR [ebp-204]
	mov	ecx, 51					; 00000033H
	mov	eax, -858993460				; ccccccccH
	rep stosd
	pop	ecx
	mov	DWORD PTR _this$[ebp], ecx
	xor	al, al
	pop	edi
	pop	esi
	pop	ebx
	mov	esp, ebp
	pop	ebp
	ret	4
?CanBeApplied@OneLineOpt@@UAE_NPAVAsmCmd@@@Z ENDP	; OneLineOpt::CanBeApplied
_TEXT	ENDS
PUBLIC	??_7TwoLinesOpt@@6B@				; TwoLinesOpt::`vftable'
PUBLIC	??_R4TwoLinesOpt@@6B@				; TwoLinesOpt::`RTTI Complete Object Locator'
PUBLIC	?CanBeApplied@TwoLinesOpt@@UAE_NQAPAVAsmCmd@@@Z	; TwoLinesOpt::CanBeApplied
;	COMDAT ??_R4TwoLinesOpt@@6B@
rdata$r	SEGMENT
??_R4TwoLinesOpt@@6B@ DD 00H				; TwoLinesOpt::`RTTI Complete Object Locator'
	DD	00H
	DD	00H
	DD	FLAT:??_R0?AVTwoLinesOpt@@@8
	DD	FLAT:??_R3TwoLinesOpt@@8
rdata$r	ENDS
;	COMDAT ??_7TwoLinesOpt@@6B@
CONST	SEGMENT
??_7TwoLinesOpt@@6B@ DD FLAT:??_R4TwoLinesOpt@@6B@	; TwoLinesOpt::`vftable'
	DD	FLAT:?MakeOptimization@Optimization@@UAEXPAV?$vector@PAVAsmCmd@@V?$allocator@PAVAsmCmd@@@std@@@std@@AAI@Z
	DD	FLAT:?CanBeApplied@TwoLinesOpt@@UAE_NQAPAVAsmCmd@@@Z
	DD	FLAT:?CanBeApplied@Optimization@@UAE_NPAVAsmCmd@@@Z
	DD	FLAT:?OneLine@Optimization@@UAE_NXZ
	DD	FLAT:?TwoLines@TwoLinesOpt@@UAE_NXZ
; Function compile flags: /Odtp /RTCsu /ZI
CONST	ENDS
;	COMDAT ??0TwoLinesOpt@@QAE@XZ
_TEXT	SEGMENT
_this$ = -8						; size = 4
??0TwoLinesOpt@@QAE@XZ PROC				; TwoLinesOpt::TwoLinesOpt, COMDAT
; _this$ = ecx
	push	ebp
	mov	ebp, esp
	sub	esp, 204				; 000000ccH
	push	ebx
	push	esi
	push	edi
	push	ecx
	lea	edi, DWORD PTR [ebp-204]
	mov	ecx, 51					; 00000033H
	mov	eax, -858993460				; ccccccccH
	rep stosd
	pop	ecx
	mov	DWORD PTR _this$[ebp], ecx
	mov	ecx, DWORD PTR _this$[ebp]
	call	??0Optimization@@QAE@XZ
	mov	eax, DWORD PTR _this$[ebp]
	mov	DWORD PTR [eax], OFFSET ??_7TwoLinesOpt@@6B@
	mov	eax, DWORD PTR _this$[ebp]
	pop	edi
	pop	esi
	pop	ebx
	add	esp, 204				; 000000ccH
	cmp	ebp, esp
	call	__RTC_CheckEsp
	mov	esp, ebp
	pop	ebp
	ret	0
??0TwoLinesOpt@@QAE@XZ ENDP				; TwoLinesOpt::TwoLinesOpt
; Function compile flags: /Odtp /RTCsu /ZI
_TEXT	ENDS
;	COMDAT ?CanBeApplied@TwoLinesOpt@@UAE_NQAPAVAsmCmd@@@Z
_TEXT	SEGMENT
_this$ = -8						; size = 4
_lines$ = 8						; size = 4
?CanBeApplied@TwoLinesOpt@@UAE_NQAPAVAsmCmd@@@Z PROC	; TwoLinesOpt::CanBeApplied, COMDAT
; _this$ = ecx
; Line 23
	push	ebp
	mov	ebp, esp
	sub	esp, 204				; 000000ccH
	push	ebx
	push	esi
	push	edi
	push	ecx
	lea	edi, DWORD PTR [ebp-204]
	mov	ecx, 51					; 00000033H
	mov	eax, -858993460				; ccccccccH
	rep stosd
	pop	ecx
	mov	DWORD PTR _this$[ebp], ecx
	xor	al, al
	pop	edi
	pop	esi
	pop	ebx
	mov	esp, ebp
	pop	ebp
	ret	4
?CanBeApplied@TwoLinesOpt@@UAE_NQAPAVAsmCmd@@@Z ENDP	; TwoLinesOpt::CanBeApplied
_TEXT	ENDS
PUBLIC	??_7Optimization@@6B@				; Optimization::`vftable'
PUBLIC	??_R4Optimization@@6B@				; Optimization::`RTTI Complete Object Locator'
;	COMDAT ??_R4Optimization@@6B@
rdata$r	SEGMENT
??_R4Optimization@@6B@ DD 00H				; Optimization::`RTTI Complete Object Locator'
	DD	00H
	DD	00H
	DD	FLAT:??_R0?AVOptimization@@@8
	DD	FLAT:??_R3Optimization@@8
rdata$r	ENDS
;	COMDAT ??_7Optimization@@6B@
CONST	SEGMENT
??_7Optimization@@6B@ DD FLAT:??_R4Optimization@@6B@	; Optimization::`vftable'
	DD	FLAT:?MakeOptimization@Optimization@@UAEXPAV?$vector@PAVAsmCmd@@V?$allocator@PAVAsmCmd@@@std@@@std@@AAI@Z
	DD	FLAT:?CanBeApplied@Optimization@@UAE_NQAPAVAsmCmd@@@Z
	DD	FLAT:?CanBeApplied@Optimization@@UAE_NPAVAsmCmd@@@Z
	DD	FLAT:?OneLine@Optimization@@UAE_NXZ
	DD	FLAT:?TwoLines@Optimization@@UAE_NXZ
; Function compile flags: /Odtp /RTCsu /ZI
CONST	ENDS
;	COMDAT ??0Optimization@@QAE@XZ
_TEXT	SEGMENT
_this$ = -8						; size = 4
??0Optimization@@QAE@XZ PROC				; Optimization::Optimization, COMDAT
; _this$ = ecx
	push	ebp
	mov	ebp, esp
	sub	esp, 204				; 000000ccH
	push	ebx
	push	esi
	push	edi
	push	ecx
	lea	edi, DWORD PTR [ebp-204]
	mov	ecx, 51					; 00000033H
	mov	eax, -858993460				; ccccccccH
	rep stosd
	pop	ecx
	mov	DWORD PTR _this$[ebp], ecx
	mov	eax, DWORD PTR _this$[ebp]
	mov	DWORD PTR [eax], OFFSET ??_7Optimization@@6B@
	mov	eax, DWORD PTR _this$[ebp]
	pop	edi
	pop	esi
	pop	ebx
	mov	esp, ebp
	pop	ebp
	ret	0
??0Optimization@@QAE@XZ ENDP				; Optimization::Optimization
_TEXT	ENDS
PUBLIC	??_C@_09DKFODMJM@end?5start?$AA@		; `string'
PUBLIC	??A?$vector@PAVAsmCmd@@V?$allocator@PAVAsmCmd@@@std@@@std@@QAEAAPAVAsmCmd@@I@Z ; std::vector<AsmCmd *,std::allocator<AsmCmd *> >::operator[]
PUBLIC	?size@?$vector@PAVAsmCmd@@V?$allocator@PAVAsmCmd@@@std@@@std@@QBEIXZ ; std::vector<AsmCmd *,std::allocator<AsmCmd *> >::size
PUBLIC	?TwoLinesOptimization@Peephole@@QAEXXZ		; Peephole::TwoLinesOptimization
PUBLIC	?OneLineOptimization@Peephole@@QAEXXZ		; Peephole::OneLineOptimization
PUBLIC	??_C@_05LCGMNGNK@?4686?6?$AA@			; `string'
PUBLIC	??$?6U?$char_traits@D@std@@@std@@YAAAV?$basic_ostream@DU?$char_traits@D@std@@@0@AAV10@PBD@Z ; std::operator<<<std::char_traits<char> >
PUBLIC	?GetOutput@AsmCode@@QAEAAV?$basic_ofstream@DU?$char_traits@D@std@@@std@@XZ ; AsmCode::GetOutput
PUBLIC	??_C@_0CG@DPGBKHKE@include?5?2masm32?2include?2masm32rt@ ; `string'
PUBLIC	?GenOptimizedCode@Peephole@@QAEXXZ		; Peephole::GenOptimizedCode
EXTRN	?GenerateCodeSeg@AsmCode@@QAEX_N@Z:PROC		; AsmCode::GenerateCodeSeg
EXTRN	?GenerateDataSeg@AsmCode@@QAEXXZ:PROC		; AsmCode::GenerateDataSeg
EXTRN	?GenerateConstSeg@AsmCode@@QAEXXZ:PROC		; AsmCode::GenerateConstSeg
;	COMDAT ??_C@_09DKFODMJM@end?5start?$AA@
; File c:\users\дмитрий\documents\visual studio 2010\projects\scanner\scanner\ll_optimizer.cpp
CONST	SEGMENT
??_C@_09DKFODMJM@end?5start?$AA@ DB 'end start', 00H	; `string'
CONST	ENDS
;	COMDAT ??_C@_05LCGMNGNK@?4686?6?$AA@
CONST	SEGMENT
??_C@_05LCGMNGNK@?4686?6?$AA@ DB '.686', 0aH, 00H	; `string'
CONST	ENDS
;	COMDAT ??_C@_0CG@DPGBKHKE@include?5?2masm32?2include?2masm32rt@
CONST	SEGMENT
??_C@_0CG@DPGBKHKE@include?5?2masm32?2include?2masm32rt@ DB 'include \mas'
	DB	'm32\include\masm32rt.inc', 0aH, 00H		; `string'
; Function compile flags: /Odtp /RTCsu /ZI
CONST	ENDS
;	COMDAT ?GenOptimizedCode@Peephole@@QAEXXZ
_TEXT	SEGMENT
tv133 = -220						; size = 4
_i$46261 = -20						; size = 4
_this$ = -8						; size = 4
?GenOptimizedCode@Peephole@@QAEXXZ PROC			; Peephole::GenOptimizedCode, COMDAT
; _this$ = ecx
; Line 23
	push	ebp
	mov	ebp, esp
	sub	esp, 220				; 000000dcH
	push	ebx
	push	esi
	push	edi
	push	ecx
	lea	edi, DWORD PTR [ebp-220]
	mov	ecx, 55					; 00000037H
	mov	eax, -858993460				; ccccccccH
	rep stosd
	pop	ecx
	mov	DWORD PTR _this$[ebp], ecx
; Line 24
	push	OFFSET ??_C@_0CG@DPGBKHKE@include?5?2masm32?2include?2masm32rt@
	mov	eax, DWORD PTR _this$[ebp]
	mov	ecx, DWORD PTR [eax+20]
	call	?GetOutput@AsmCode@@QAEAAV?$basic_ofstream@DU?$char_traits@D@std@@@std@@XZ ; AsmCode::GetOutput
	push	eax
	call	??$?6U?$char_traits@D@std@@@std@@YAAAV?$basic_ostream@DU?$char_traits@D@std@@@0@AAV10@PBD@Z ; std::operator<<<std::char_traits<char> >
	add	esp, 8
; Line 25
	push	OFFSET ??_C@_05LCGMNGNK@?4686?6?$AA@
	mov	eax, DWORD PTR _this$[ebp]
	mov	ecx, DWORD PTR [eax+20]
	call	?GetOutput@AsmCode@@QAEAAV?$basic_ofstream@DU?$char_traits@D@std@@@std@@XZ ; AsmCode::GetOutput
	push	eax
	call	??$?6U?$char_traits@D@std@@@std@@YAAAV?$basic_ostream@DU?$char_traits@D@std@@@0@AAV10@PBD@Z ; std::operator<<<std::char_traits<char> >
	add	esp, 8
; Line 27
	mov	eax, DWORD PTR _this$[ebp]
	mov	ecx, DWORD PTR [eax+20]
	call	?GenerateConstSeg@AsmCode@@QAEXXZ	; AsmCode::GenerateConstSeg
; Line 28
	mov	eax, DWORD PTR _this$[ebp]
	mov	ecx, DWORD PTR [eax+20]
	call	?GenerateDataSeg@AsmCode@@QAEXXZ	; AsmCode::GenerateDataSeg
; Line 29
	push	0
	mov	eax, DWORD PTR _this$[ebp]
	mov	ecx, DWORD PTR [eax+20]
	call	?GenerateCodeSeg@AsmCode@@QAEX_N@Z	; AsmCode::GenerateCodeSeg
; Line 31
	mov	ecx, DWORD PTR _this$[ebp]
	call	?OneLineOptimization@Peephole@@QAEXXZ	; Peephole::OneLineOptimization
; Line 32
	mov	ecx, DWORD PTR _this$[ebp]
	call	?TwoLinesOptimization@Peephole@@QAEXXZ	; Peephole::TwoLinesOptimization
; Line 34
	mov	DWORD PTR _i$46261[ebp], 0
	jmp	SHORT $LN3@GenOptimiz
$LN2@GenOptimiz:
	mov	eax, DWORD PTR _i$46261[ebp]
	add	eax, 1
	mov	DWORD PTR _i$46261[ebp], eax
$LN3@GenOptimiz:
	mov	ecx, DWORD PTR _this$[ebp]
	call	?size@?$vector@PAVAsmCmd@@V?$allocator@PAVAsmCmd@@@std@@@std@@QBEIXZ ; std::vector<AsmCmd *,std::allocator<AsmCmd *> >::size
	sub	eax, 1
	cmp	DWORD PTR _i$46261[ebp], eax
	ja	SHORT $LN1@GenOptimiz
; Line 35
	mov	eax, DWORD PTR _i$46261[ebp]
	push	eax
	mov	ecx, DWORD PTR _this$[ebp]
	call	??A?$vector@PAVAsmCmd@@V?$allocator@PAVAsmCmd@@@std@@@std@@QAEAAPAVAsmCmd@@I@Z ; std::vector<AsmCmd *,std::allocator<AsmCmd *> >::operator[]
	mov	ecx, DWORD PTR [eax]
	mov	DWORD PTR tv133[ebp], ecx
	mov	edx, DWORD PTR _this$[ebp]
	mov	ecx, DWORD PTR [edx+20]
	call	?GetOutput@AsmCode@@QAEAAV?$basic_ofstream@DU?$char_traits@D@std@@@std@@XZ ; AsmCode::GetOutput
	mov	esi, esp
	push	eax
	mov	eax, DWORD PTR tv133[ebp]
	mov	edx, DWORD PTR [eax]
	mov	ecx, DWORD PTR tv133[ebp]
	mov	eax, DWORD PTR [edx]
	call	eax
	cmp	esi, esp
	call	__RTC_CheckEsp
	jmp	SHORT $LN2@GenOptimiz
$LN1@GenOptimiz:
; Line 36
	push	OFFSET ??_C@_09DKFODMJM@end?5start?$AA@
	mov	eax, DWORD PTR _this$[ebp]
	mov	ecx, DWORD PTR [eax+20]
	call	?GetOutput@AsmCode@@QAEAAV?$basic_ofstream@DU?$char_traits@D@std@@@std@@XZ ; AsmCode::GetOutput
	push	eax
	call	??$?6U?$char_traits@D@std@@@std@@YAAAV?$basic_ostream@DU?$char_traits@D@std@@@0@AAV10@PBD@Z ; std::operator<<<std::char_traits<char> >
	add	esp, 8
; Line 37
	pop	edi
	pop	esi
	pop	ebx
	add	esp, 220				; 000000dcH
	cmp	ebp, esp
	call	__RTC_CheckEsp
	mov	esp, ebp
	pop	ebp
	ret	0
?GenOptimizedCode@Peephole@@QAEXXZ ENDP			; Peephole::GenOptimizedCode
; Function compile flags: /Odtp /RTCsu /ZI
_TEXT	ENDS
;	COMDAT ?GetOutput@AsmCode@@QAEAAV?$basic_ofstream@DU?$char_traits@D@std@@@std@@XZ
_TEXT	SEGMENT
_this$ = -8						; size = 4
?GetOutput@AsmCode@@QAEAAV?$basic_ofstream@DU?$char_traits@D@std@@@std@@XZ PROC ; AsmCode::GetOutput, COMDAT
; _this$ = ecx
; File c:\users\дмитрий\documents\visual studio 2010\projects\scanner\scanner\generator.h
; Line 32
	push	ebp
	mov	ebp, esp
	sub	esp, 204				; 000000ccH
	push	ebx
	push	esi
	push	edi
	push	ecx
	lea	edi, DWORD PTR [ebp-204]
	mov	ecx, 51					; 00000033H
	mov	eax, -858993460				; ccccccccH
	rep stosd
	pop	ecx
	mov	DWORD PTR _this$[ebp], ecx
	mov	eax, DWORD PTR _this$[ebp]
	add	eax, 8
	pop	edi
	pop	esi
	pop	ebx
	mov	esp, ebp
	pop	ebp
	ret	0
?GetOutput@AsmCode@@QAEAAV?$basic_ofstream@DU?$char_traits@D@std@@@std@@XZ ENDP ; AsmCode::GetOutput
_TEXT	ENDS
PUBLIC	??A?$vector@PAVOptimization@@V?$allocator@PAVOptimization@@@std@@@std@@QAEAAPAVOptimization@@I@Z ; std::vector<Optimization *,std::allocator<Optimization *> >::operator[]
PUBLIC	?size@?$vector@PAVOptimization@@V?$allocator@PAVOptimization@@@std@@@std@@QBEIXZ ; std::vector<Optimization *,std::allocator<Optimization *> >::size
PUBLIC	??4?$vector@PAVAsmCmd@@V?$allocator@PAVAsmCmd@@@std@@@std@@QAEAAV01@$$QAV01@@Z ; std::vector<AsmCmd *,std::allocator<AsmCmd *> >::operator=
PUBLIC	?GetCommands@AsmCode@@QAE?AV?$vector@PAVAsmCmd@@V?$allocator@PAVAsmCmd@@@std@@@std@@XZ ; AsmCode::GetCommands
EXTRN	@_RTC_CheckStackVars@8:PROC
;	COMDAT xdata$x
; File c:\users\дмитрий\documents\visual studio 2010\projects\scanner\scanner\ll_optimizer.cpp
xdata$x	SEGMENT
__unwindtable$?OneLineOptimization@Peephole@@QAEXXZ DD 0ffffffffH
	DD	FLAT:__unwindfunclet$?OneLineOptimization@Peephole@@QAEXXZ$0
__ehfuncinfo$?OneLineOptimization@Peephole@@QAEXXZ DD 019930522H
	DD	01H
	DD	FLAT:__unwindtable$?OneLineOptimization@Peephole@@QAEXXZ
	DD	2 DUP(00H)
	DD	2 DUP(00H)
	DD	00H
	DD	01H
; Function compile flags: /Odtp /RTCsu /ZI
xdata$x	ENDS
;	COMDAT ?OneLineOptimization@Peephole@@QAEXXZ
_TEXT	SEGMENT
tv153 = -276						; size = 4
tv154 = -272						; size = 4
tv147 = -272						; size = 4
tv131 = -272						; size = 4
tv87 = -272						; size = 4
$T64912 = -264						; size = 20
_j$46274 = -44						; size = 4
_i$46270 = -32						; size = 4
_this$ = -20						; size = 4
__$EHRec$ = -12						; size = 12
?OneLineOptimization@Peephole@@QAEXXZ PROC		; Peephole::OneLineOptimization, COMDAT
; _this$ = ecx
; Line 40
	push	ebp
	mov	ebp, esp
	push	-1
	push	__ehhandler$?OneLineOptimization@Peephole@@QAEXXZ
	mov	eax, DWORD PTR fs:0
	push	eax
	sub	esp, 264				; 00000108H
	push	ebx
	push	esi
	push	edi
	push	ecx
	lea	edi, DWORD PTR [ebp-276]
	mov	ecx, 66					; 00000042H
	mov	eax, -858993460				; ccccccccH
	rep stosd
	pop	ecx
	mov	eax, DWORD PTR ___security_cookie
	xor	eax, ebp
	push	eax
	lea	eax, DWORD PTR __$EHRec$[ebp]
	mov	DWORD PTR fs:0, eax
	mov	DWORD PTR _this$[ebp], ecx
; Line 41
	lea	eax, DWORD PTR $T64912[ebp]
	push	eax
	mov	ecx, DWORD PTR _this$[ebp]
	mov	ecx, DWORD PTR [ecx+20]
	call	?GetCommands@AsmCode@@QAE?AV?$vector@PAVAsmCmd@@V?$allocator@PAVAsmCmd@@@std@@@std@@XZ ; AsmCode::GetCommands
	mov	DWORD PTR tv154[ebp], eax
	mov	edx, DWORD PTR tv154[ebp]
	mov	DWORD PTR tv153[ebp], edx
	mov	DWORD PTR __$EHRec$[ebp+8], 0
	mov	eax, DWORD PTR tv153[ebp]
	push	eax
	mov	ecx, DWORD PTR _this$[ebp]
	call	??4?$vector@PAVAsmCmd@@V?$allocator@PAVAsmCmd@@@std@@@std@@QAEAAV01@$$QAV01@@Z ; std::vector<AsmCmd *,std::allocator<AsmCmd *> >::operator=
	mov	DWORD PTR __$EHRec$[ebp+8], -1
	lea	ecx, DWORD PTR $T64912[ebp]
	call	??1?$vector@PAVAsmCmd@@V?$allocator@PAVAsmCmd@@@std@@@std@@QAE@XZ ; std::vector<AsmCmd *,std::allocator<AsmCmd *> >::~vector<AsmCmd *,std::allocator<AsmCmd *> >
; Line 42
	mov	DWORD PTR _i$46270[ebp], 0
	jmp	SHORT $LN7@OneLineOpt
$LN6@OneLineOpt:
	mov	eax, DWORD PTR _i$46270[ebp]
	add	eax, 1
	mov	DWORD PTR _i$46270[ebp], eax
$LN7@OneLineOpt:
	mov	ecx, DWORD PTR _this$[ebp]
	call	?size@?$vector@PAVAsmCmd@@V?$allocator@PAVAsmCmd@@@std@@@std@@QBEIXZ ; std::vector<AsmCmd *,std::allocator<AsmCmd *> >::size
	cmp	DWORD PTR _i$46270[ebp], eax
	jae	$LN8@OneLineOpt
; Line 44
	mov	DWORD PTR _j$46274[ebp], 0
	jmp	SHORT $LN4@OneLineOpt
$LN3@OneLineOpt:
	mov	eax, DWORD PTR _j$46274[ebp]
	add	eax, 1
	mov	DWORD PTR _j$46274[ebp], eax
$LN4@OneLineOpt:
	mov	ecx, DWORD PTR _this$[ebp]
	add	ecx, 32					; 00000020H
	call	?size@?$vector@PAVOptimization@@V?$allocator@PAVOptimization@@@std@@@std@@QBEIXZ ; std::vector<Optimization *,std::allocator<Optimization *> >::size
	cmp	DWORD PTR _j$46274[ebp], eax
	jae	$LN2@OneLineOpt
; Line 46
	mov	eax, DWORD PTR _j$46274[ebp]
	push	eax
	mov	ecx, DWORD PTR _this$[ebp]
	add	ecx, 32					; 00000020H
	call	??A?$vector@PAVOptimization@@V?$allocator@PAVOptimization@@@std@@@std@@QAEAAPAVOptimization@@I@Z ; std::vector<Optimization *,std::allocator<Optimization *> >::operator[]
	mov	ecx, DWORD PTR [eax]
	mov	DWORD PTR tv87[ebp], ecx
	mov	edx, DWORD PTR tv87[ebp]
	mov	eax, DWORD PTR [edx]
	mov	esi, esp
	mov	ecx, DWORD PTR tv87[ebp]
	mov	edx, DWORD PTR [eax+12]
	call	edx
	cmp	esi, esp
	call	__RTC_CheckEsp
	movzx	eax, al
	test	eax, eax
	je	$LN1@OneLineOpt
	mov	eax, DWORD PTR _j$46274[ebp]
	push	eax
	mov	ecx, DWORD PTR _this$[ebp]
	add	ecx, 32					; 00000020H
	call	??A?$vector@PAVOptimization@@V?$allocator@PAVOptimization@@@std@@@std@@QAEAAPAVOptimization@@I@Z ; std::vector<Optimization *,std::allocator<Optimization *> >::operator[]
	mov	ecx, DWORD PTR [eax]
	mov	DWORD PTR tv131[ebp], ecx
	mov	edx, DWORD PTR _i$46270[ebp]
	push	edx
	mov	ecx, DWORD PTR _this$[ebp]
	call	??A?$vector@PAVAsmCmd@@V?$allocator@PAVAsmCmd@@@std@@@std@@QAEAAPAVAsmCmd@@I@Z ; std::vector<AsmCmd *,std::allocator<AsmCmd *> >::operator[]
	mov	esi, esp
	mov	eax, DWORD PTR [eax]
	push	eax
	mov	ecx, DWORD PTR tv131[ebp]
	mov	edx, DWORD PTR [ecx]
	mov	ecx, DWORD PTR tv131[ebp]
	mov	eax, DWORD PTR [edx+8]
	call	eax
	cmp	esi, esp
	call	__RTC_CheckEsp
	movzx	ecx, al
	test	ecx, ecx
	je	SHORT $LN1@OneLineOpt
; Line 47
	mov	eax, DWORD PTR _j$46274[ebp]
	push	eax
	mov	ecx, DWORD PTR _this$[ebp]
	add	ecx, 32					; 00000020H
	call	??A?$vector@PAVOptimization@@V?$allocator@PAVOptimization@@@std@@@std@@QAEAAPAVOptimization@@I@Z ; std::vector<Optimization *,std::allocator<Optimization *> >::operator[]
	mov	ecx, DWORD PTR [eax]
	mov	DWORD PTR tv147[ebp], ecx
	mov	esi, esp
	lea	edx, DWORD PTR _i$46270[ebp]
	push	edx
	mov	eax, DWORD PTR _this$[ebp]
	push	eax
	mov	ecx, DWORD PTR tv147[ebp]
	mov	edx, DWORD PTR [ecx]
	mov	ecx, DWORD PTR tv147[ebp]
	mov	eax, DWORD PTR [edx]
	call	eax
	cmp	esi, esp
	call	__RTC_CheckEsp
$LN1@OneLineOpt:
; Line 48
	jmp	$LN3@OneLineOpt
$LN2@OneLineOpt:
; Line 49
	jmp	$LN6@OneLineOpt
$LN8@OneLineOpt:
; Line 50
	push	edx
	mov	ecx, ebp
	push	eax
	lea	edx, DWORD PTR $LN14@OneLineOpt
	call	@_RTC_CheckStackVars@8
	pop	eax
	pop	edx
	mov	ecx, DWORD PTR __$EHRec$[ebp]
	mov	DWORD PTR fs:0, ecx
	pop	ecx
	pop	edi
	pop	esi
	pop	ebx
	add	esp, 276				; 00000114H
	cmp	ebp, esp
	call	__RTC_CheckEsp
	mov	esp, ebp
	pop	ebp
	ret	0
	npad	2
$LN14@OneLineOpt:
	DD	1
	DD	$LN13@OneLineOpt
$LN13@OneLineOpt:
	DD	-32					; ffffffe0H
	DD	4
	DD	$LN11@OneLineOpt
$LN11@OneLineOpt:
	DB	105					; 00000069H
	DB	0
_TEXT	ENDS
;	COMDAT text$x
text$x	SEGMENT
__unwindfunclet$?OneLineOptimization@Peephole@@QAEXXZ$0:
	lea	ecx, DWORD PTR $T64912[ebp]
	jmp	??1?$vector@PAVAsmCmd@@V?$allocator@PAVAsmCmd@@@std@@@std@@QAE@XZ ; std::vector<AsmCmd *,std::allocator<AsmCmd *> >::~vector<AsmCmd *,std::allocator<AsmCmd *> >
__ehhandler$?OneLineOptimization@Peephole@@QAEXXZ:
	mov	edx, DWORD PTR [esp+8]
	lea	eax, DWORD PTR [edx+12]
	mov	ecx, DWORD PTR [edx-280]
	xor	ecx, eax
	call	@__security_check_cookie@4
	mov	eax, OFFSET __ehfuncinfo$?OneLineOptimization@Peephole@@QAEXXZ
	jmp	___CxxFrameHandler3
text$x	ENDS
?OneLineOptimization@Peephole@@QAEXXZ ENDP		; Peephole::OneLineOptimization
PUBLIC	??0?$vector@PAVAsmCmd@@V?$allocator@PAVAsmCmd@@@std@@@std@@QAE@ABV01@@Z ; std::vector<AsmCmd *,std::allocator<AsmCmd *> >::vector<AsmCmd *,std::allocator<AsmCmd *> >
; Function compile flags: /Odtp /RTCsu /ZI
;	COMDAT ?GetCommands@AsmCode@@QAE?AV?$vector@PAVAsmCmd@@V?$allocator@PAVAsmCmd@@@std@@@std@@XZ
_TEXT	SEGMENT
$T64927 = -212						; size = 4
_this$ = -8						; size = 4
___$ReturnUdt$ = 8					; size = 4
?GetCommands@AsmCode@@QAE?AV?$vector@PAVAsmCmd@@V?$allocator@PAVAsmCmd@@@std@@@std@@XZ PROC ; AsmCode::GetCommands, COMDAT
; _this$ = ecx
; File c:\users\дмитрий\documents\visual studio 2010\projects\scanner\scanner\generator.h
; Line 33
	push	ebp
	mov	ebp, esp
	sub	esp, 216				; 000000d8H
	push	ebx
	push	esi
	push	edi
	push	ecx
	lea	edi, DWORD PTR [ebp-216]
	mov	ecx, 54					; 00000036H
	mov	eax, -858993460				; ccccccccH
	rep stosd
	pop	ecx
	mov	DWORD PTR _this$[ebp], ecx
	mov	DWORD PTR $T64927[ebp], 0
	mov	eax, DWORD PTR _this$[ebp]
	add	eax, 256				; 00000100H
	push	eax
	mov	ecx, DWORD PTR ___$ReturnUdt$[ebp]
	call	??0?$vector@PAVAsmCmd@@V?$allocator@PAVAsmCmd@@@std@@@std@@QAE@ABV01@@Z ; std::vector<AsmCmd *,std::allocator<AsmCmd *> >::vector<AsmCmd *,std::allocator<AsmCmd *> >
	mov	ecx, DWORD PTR $T64927[ebp]
	or	ecx, 1
	mov	DWORD PTR $T64927[ebp], ecx
	mov	eax, DWORD PTR ___$ReturnUdt$[ebp]
	pop	edi
	pop	esi
	pop	ebx
	add	esp, 216				; 000000d8H
	cmp	ebp, esp
	call	__RTC_CheckEsp
	mov	esp, ebp
	pop	ebp
	ret	4
?GetCommands@AsmCode@@QAE?AV?$vector@PAVAsmCmd@@V?$allocator@PAVAsmCmd@@@std@@@std@@XZ ENDP ; AsmCode::GetCommands
; Function compile flags: /Odtp /RTCsu /ZI
_TEXT	ENDS
;	COMDAT ?TwoLinesOptimization@Peephole@@QAEXXZ
_TEXT	SEGMENT
tv156 = -244						; size = 4
tv142 = -244						; size = 4
tv130 = -244						; size = 4
_k$46293 = -44						; size = 4
_i$46289 = -32						; size = 4
_j$46285 = -20						; size = 4
_this$ = -8						; size = 4
?TwoLinesOptimization@Peephole@@QAEXXZ PROC		; Peephole::TwoLinesOptimization, COMDAT
; _this$ = ecx
; File c:\users\дмитрий\documents\visual studio 2010\projects\scanner\scanner\ll_optimizer.cpp
; Line 53
	push	ebp
	mov	ebp, esp
	sub	esp, 244				; 000000f4H
	push	ebx
	push	esi
	push	edi
	push	ecx
	lea	edi, DWORD PTR [ebp-244]
	mov	ecx, 61					; 0000003dH
	mov	eax, -858993460				; ccccccccH
	rep stosd
	pop	ecx
	mov	DWORD PTR _this$[ebp], ecx
$LN12@TwoLinesOp:
; Line 54
	mov	eax, DWORD PTR _this$[ebp]
	movzx	ecx, BYTE PTR [eax+52]
	test	ecx, ecx
	je	$LN13@TwoLinesOp
; Line 56
	mov	eax, DWORD PTR _this$[ebp]
	mov	BYTE PTR [eax+52], 0
; Line 57
	mov	DWORD PTR _j$46285[ebp], 0
	jmp	SHORT $LN10@TwoLinesOp
$LN9@TwoLinesOp:
	mov	eax, DWORD PTR _j$46285[ebp]
	add	eax, 1
	mov	DWORD PTR _j$46285[ebp], eax
$LN10@TwoLinesOp:
	cmp	DWORD PTR _j$46285[ebp], 2
	jge	$LN8@TwoLinesOp
; Line 59
	mov	eax, DWORD PTR _j$46285[ebp]
	mov	DWORD PTR _i$46289[ebp], eax
	jmp	SHORT $LN7@TwoLinesOp
$LN6@TwoLinesOp:
	mov	eax, DWORD PTR _i$46289[ebp]
	add	eax, 1
	mov	DWORD PTR _i$46289[ebp], eax
$LN7@TwoLinesOp:
	mov	esi, DWORD PTR _i$46289[ebp]
	add	esi, DWORD PTR _j$46285[ebp]
	mov	ecx, DWORD PTR _this$[ebp]
	call	?size@?$vector@PAVAsmCmd@@V?$allocator@PAVAsmCmd@@@std@@@std@@QBEIXZ ; std::vector<AsmCmd *,std::allocator<AsmCmd *> >::size
	sub	eax, 1
	cmp	esi, eax
	jae	$LN5@TwoLinesOp
; Line 61
	mov	eax, DWORD PTR _i$46289[ebp]
	push	eax
	mov	ecx, DWORD PTR _this$[ebp]
	call	??A?$vector@PAVAsmCmd@@V?$allocator@PAVAsmCmd@@@std@@@std@@QAEAAPAVAsmCmd@@I@Z ; std::vector<AsmCmd *,std::allocator<AsmCmd *> >::operator[]
	mov	ecx, DWORD PTR _this$[ebp]
	mov	edx, DWORD PTR [eax]
	mov	DWORD PTR [ecx+24], edx
; Line 62
	mov	eax, DWORD PTR _i$46289[ebp]
	add	eax, 1
	push	eax
	mov	ecx, DWORD PTR _this$[ebp]
	call	??A?$vector@PAVAsmCmd@@V?$allocator@PAVAsmCmd@@@std@@@std@@QAEAAPAVAsmCmd@@I@Z ; std::vector<AsmCmd *,std::allocator<AsmCmd *> >::operator[]
	mov	ecx, DWORD PTR _this$[ebp]
	mov	edx, DWORD PTR [eax]
	mov	DWORD PTR [ecx+28], edx
; Line 64
	mov	DWORD PTR _k$46293[ebp], 0
	jmp	SHORT $LN4@TwoLinesOp
$LN3@TwoLinesOp:
	mov	eax, DWORD PTR _k$46293[ebp]
	add	eax, 1
	mov	DWORD PTR _k$46293[ebp], eax
$LN4@TwoLinesOp:
	mov	ecx, DWORD PTR _this$[ebp]
	add	ecx, 32					; 00000020H
	call	?size@?$vector@PAVOptimization@@V?$allocator@PAVOptimization@@@std@@@std@@QBEIXZ ; std::vector<Optimization *,std::allocator<Optimization *> >::size
	cmp	DWORD PTR _k$46293[ebp], eax
	jae	$LN2@TwoLinesOp
; Line 66
	mov	eax, DWORD PTR _k$46293[ebp]
	push	eax
	mov	ecx, DWORD PTR _this$[ebp]
	add	ecx, 32					; 00000020H
	call	??A?$vector@PAVOptimization@@V?$allocator@PAVOptimization@@@std@@@std@@QAEAAPAVOptimization@@I@Z ; std::vector<Optimization *,std::allocator<Optimization *> >::operator[]
	mov	ecx, DWORD PTR [eax]
	mov	DWORD PTR tv130[ebp], ecx
	mov	edx, DWORD PTR tv130[ebp]
	mov	eax, DWORD PTR [edx]
	mov	esi, esp
	mov	ecx, DWORD PTR tv130[ebp]
	mov	edx, DWORD PTR [eax+16]
	call	edx
	cmp	esi, esp
	call	__RTC_CheckEsp
	movzx	eax, al
	test	eax, eax
	je	$LN1@TwoLinesOp
	mov	eax, DWORD PTR _k$46293[ebp]
	push	eax
	mov	ecx, DWORD PTR _this$[ebp]
	add	ecx, 32					; 00000020H
	call	??A?$vector@PAVOptimization@@V?$allocator@PAVOptimization@@@std@@@std@@QAEAAPAVOptimization@@I@Z ; std::vector<Optimization *,std::allocator<Optimization *> >::operator[]
	mov	ecx, DWORD PTR [eax]
	mov	DWORD PTR tv142[ebp], ecx
	mov	edx, DWORD PTR _this$[ebp]
	add	edx, 24					; 00000018H
	mov	esi, esp
	push	edx
	mov	eax, DWORD PTR tv142[ebp]
	mov	edx, DWORD PTR [eax]
	mov	ecx, DWORD PTR tv142[ebp]
	mov	eax, DWORD PTR [edx+4]
	call	eax
	cmp	esi, esp
	call	__RTC_CheckEsp
	movzx	ecx, al
	test	ecx, ecx
	je	SHORT $LN1@TwoLinesOp
; Line 68
	mov	eax, DWORD PTR _k$46293[ebp]
	push	eax
	mov	ecx, DWORD PTR _this$[ebp]
	add	ecx, 32					; 00000020H
	call	??A?$vector@PAVOptimization@@V?$allocator@PAVOptimization@@@std@@@std@@QAEAAPAVOptimization@@I@Z ; std::vector<Optimization *,std::allocator<Optimization *> >::operator[]
	mov	ecx, DWORD PTR [eax]
	mov	DWORD PTR tv156[ebp], ecx
	mov	esi, esp
	lea	edx, DWORD PTR _i$46289[ebp]
	push	edx
	mov	eax, DWORD PTR _this$[ebp]
	push	eax
	mov	ecx, DWORD PTR tv156[ebp]
	mov	edx, DWORD PTR [ecx]
	mov	ecx, DWORD PTR tv156[ebp]
	mov	eax, DWORD PTR [edx]
	call	eax
	cmp	esi, esp
	call	__RTC_CheckEsp
; Line 69
	mov	eax, DWORD PTR _this$[ebp]
	mov	BYTE PTR [eax+52], 1
$LN1@TwoLinesOp:
; Line 71
	jmp	$LN3@TwoLinesOp
$LN2@TwoLinesOp:
; Line 72
	jmp	$LN6@TwoLinesOp
$LN5@TwoLinesOp:
; Line 73
	jmp	$LN9@TwoLinesOp
$LN8@TwoLinesOp:
; Line 74
	jmp	$LN12@TwoLinesOp
$LN13@TwoLinesOp:
; Line 75
	push	edx
	mov	ecx, ebp
	push	eax
	lea	edx, DWORD PTR $LN17@TwoLinesOp
	call	@_RTC_CheckStackVars@8
	pop	eax
	pop	edx
	pop	edi
	pop	esi
	pop	ebx
	add	esp, 244				; 000000f4H
	cmp	ebp, esp
	call	__RTC_CheckEsp
	mov	esp, ebp
	pop	ebp
	ret	0
	npad	3
$LN17@TwoLinesOp:
	DD	1
	DD	$LN16@TwoLinesOp
$LN16@TwoLinesOp:
	DD	-32					; ffffffe0H
	DD	4
	DD	$LN15@TwoLinesOp
$LN15@TwoLinesOp:
	DB	105					; 00000069H
	DB	0
?TwoLinesOptimization@Peephole@@QAEXXZ ENDP		; Peephole::TwoLinesOptimization
_TEXT	ENDS
PUBLIC	??0?$basic_string@DU?$char_traits@D@std@@V?$allocator@D@2@@std@@QAE@PBD@Z ; std::basic_string<char,std::char_traits<char>,std::allocator<char> >::basic_string<char,std::char_traits<char>,std::allocator<char> >
PUBLIC	??_C@_01GBGANLPD@0?$AA@				; `string'
;	COMDAT ??_C@_01GBGANLPD@0?$AA@
CONST	SEGMENT
??_C@_01GBGANLPD@0?$AA@ DB '0', 00H			; `string'
; Function compile flags: /Odtp /RTCsu /ZI
CONST	ENDS
;	COMDAT ?CanBeApplied@DeleteAddWithZero@@UAE_NPAVAsmCmd@@@Z
_TEXT	SEGMENT
tv90 = -228						; size = 4
tv94 = -221						; size = 1
tv93 = -220						; size = 4
$T64936 = -212						; size = 4
_this$ = -8						; size = 4
_line$ = 8						; size = 4
?CanBeApplied@DeleteAddWithZero@@UAE_NPAVAsmCmd@@@Z PROC ; DeleteAddWithZero::CanBeApplied, COMDAT
; _this$ = ecx
; Line 78
	push	ebp
	mov	ebp, esp
	sub	esp, 228				; 000000e4H
	push	ebx
	push	esi
	push	edi
	push	ecx
	lea	edi, DWORD PTR [ebp-228]
	mov	ecx, 57					; 00000039H
	mov	eax, -858993460				; ccccccccH
	rep stosd
	pop	ecx
	mov	DWORD PTR _this$[ebp], ecx
; Line 79
	mov	eax, DWORD PTR _line$[ebp]
	mov	edx, DWORD PTR [eax]
	mov	esi, esp
	mov	ecx, DWORD PTR _line$[ebp]
	mov	eax, DWORD PTR [edx+12]
	call	eax
	cmp	esi, esp
	call	__RTC_CheckEsp
	movzx	ecx, al
	test	ecx, ecx
	je	SHORT $LN3@CanBeAppli
	sub	esp, 32					; 00000020H
	mov	ecx, esp
	mov	DWORD PTR $T64936[ebp], esp
	push	OFFSET ??_C@_01GBGANLPD@0?$AA@
	call	??0?$basic_string@DU?$char_traits@D@std@@V?$allocator@D@2@@std@@QAE@PBD@Z ; std::basic_string<char,std::char_traits<char>,std::allocator<char> >::basic_string<char,std::char_traits<char>,std::allocator<char> >
	mov	DWORD PTR tv93[ebp], eax
	mov	edx, DWORD PTR _line$[ebp]
	mov	eax, DWORD PTR [edx]
	mov	ecx, DWORD PTR _line$[ebp]
	mov	edx, DWORD PTR [eax+48]
	call	edx
	mov	BYTE PTR tv94[ebp], al
	movzx	eax, BYTE PTR tv94[ebp]
	test	eax, eax
	je	SHORT $LN3@CanBeAppli
	mov	DWORD PTR tv90[ebp], 1
	jmp	SHORT $LN4@CanBeAppli
$LN3@CanBeAppli:
	mov	DWORD PTR tv90[ebp], 0
$LN4@CanBeAppli:
	mov	al, BYTE PTR tv90[ebp]
; Line 80
	pop	edi
	pop	esi
	pop	ebx
	add	esp, 228				; 000000e4H
	cmp	ebp, esp
	call	__RTC_CheckEsp
	mov	esp, ebp
	pop	ebp
	ret	4
?CanBeApplied@DeleteAddWithZero@@UAE_NPAVAsmCmd@@@Z ENDP ; DeleteAddWithZero::CanBeApplied
_TEXT	ENDS
PUBLIC	??1?$_Vector_iterator@V?$_Vector_val@PAVAsmCmd@@V?$allocator@PAVAsmCmd@@@std@@@std@@@std@@QAE@XZ ; std::_Vector_iterator<std::_Vector_val<AsmCmd *,std::allocator<AsmCmd *> > >::~_Vector_iterator<std::_Vector_val<AsmCmd *,std::allocator<AsmCmd *> > >
PUBLIC	?erase@?$vector@PAVAsmCmd@@V?$allocator@PAVAsmCmd@@@std@@@std@@QAE?AV?$_Vector_iterator@V?$_Vector_val@PAVAsmCmd@@V?$allocator@PAVAsmCmd@@@std@@@std@@@2@V?$_Vector_const_iterator@V?$_Vector_val@PAVAsmCmd@@V?$allocator@PAVAsmCmd@@@std@@@std@@@2@@Z ; std::vector<AsmCmd *,std::allocator<AsmCmd *> >::erase
PUBLIC	??0?$_Vector_const_iterator@V?$_Vector_val@PAVAsmCmd@@V?$allocator@PAVAsmCmd@@@std@@@std@@@std@@QAE@ABV01@@Z ; std::_Vector_const_iterator<std::_Vector_val<AsmCmd *,std::allocator<AsmCmd *> > >::_Vector_const_iterator<std::_Vector_val<AsmCmd *,std::allocator<AsmCmd *> > >
PUBLIC	??H?$_Vector_iterator@V?$_Vector_val@PAVAsmCmd@@V?$allocator@PAVAsmCmd@@@std@@@std@@@std@@QBE?AV01@H@Z ; std::_Vector_iterator<std::_Vector_val<AsmCmd *,std::allocator<AsmCmd *> > >::operator+
PUBLIC	?begin@?$vector@PAVAsmCmd@@V?$allocator@PAVAsmCmd@@@std@@@std@@QAE?AV?$_Vector_iterator@V?$_Vector_val@PAVAsmCmd@@V?$allocator@PAVAsmCmd@@@std@@@std@@@2@XZ ; std::vector<AsmCmd *,std::allocator<AsmCmd *> >::begin
;	COMDAT xdata$x
xdata$x	SEGMENT
__unwindtable$?MakeOptimization@DeleteAddWithZero@@UAEXPAV?$vector@PAVAsmCmd@@V?$allocator@PAVAsmCmd@@@std@@@std@@AAI@Z DD 0ffffffffH
	DD	FLAT:__unwindfunclet$?MakeOptimization@DeleteAddWithZero@@UAEXPAV?$vector@PAVAsmCmd@@V?$allocator@PAVAsmCmd@@@std@@@std@@AAI@Z$0
	DD	00H
	DD	FLAT:__unwindfunclet$?MakeOptimization@DeleteAddWithZero@@UAEXPAV?$vector@PAVAsmCmd@@V?$allocator@PAVAsmCmd@@@std@@@std@@AAI@Z$1
__ehfuncinfo$?MakeOptimization@DeleteAddWithZero@@UAEXPAV?$vector@PAVAsmCmd@@V?$allocator@PAVAsmCmd@@@std@@@std@@AAI@Z DD 019930522H
	DD	02H
	DD	FLAT:__unwindtable$?MakeOptimization@DeleteAddWithZero@@UAEXPAV?$vector@PAVAsmCmd@@V?$allocator@PAVAsmCmd@@@std@@@std@@AAI@Z
	DD	2 DUP(00H)
	DD	2 DUP(00H)
	DD	00H
	DD	01H
; Function compile flags: /Odtp /RTCsu /ZI
xdata$x	ENDS
;	COMDAT ?MakeOptimization@DeleteAddWithZero@@UAEXPAV?$vector@PAVAsmCmd@@V?$allocator@PAVAsmCmd@@@std@@@std@@AAI@Z
_TEXT	SEGMENT
tv138 = -316						; size = 4
tv137 = -312						; size = 4
tv134 = -308						; size = 4
tv141 = -304						; size = 4
tv132 = -300						; size = 4
tv140 = -296						; size = 4
tv85 = -292						; size = 4
$T64942 = -284						; size = 4
$T64943 = -272						; size = 12
$T64944 = -252						; size = 12
$T64945 = -232						; size = 12
_this$ = -20						; size = 4
__$EHRec$ = -12						; size = 12
_commands$ = 8						; size = 4
_i$ = 12						; size = 4
?MakeOptimization@DeleteAddWithZero@@UAEXPAV?$vector@PAVAsmCmd@@V?$allocator@PAVAsmCmd@@@std@@@std@@AAI@Z PROC ; DeleteAddWithZero::MakeOptimization, COMDAT
; _this$ = ecx
; Line 83
	push	ebp
	mov	ebp, esp
	push	-1
	push	__ehhandler$?MakeOptimization@DeleteAddWithZero@@UAEXPAV?$vector@PAVAsmCmd@@V?$allocator@PAVAsmCmd@@@std@@@std@@AAI@Z
	mov	eax, DWORD PTR fs:0
	push	eax
	sub	esp, 304				; 00000130H
	push	ebx
	push	esi
	push	edi
	push	ecx
	lea	edi, DWORD PTR [ebp-316]
	mov	ecx, 76					; 0000004cH
	mov	eax, -858993460				; ccccccccH
	rep stosd
	pop	ecx
	mov	eax, DWORD PTR ___security_cookie
	xor	eax, ebp
	push	eax
	lea	eax, DWORD PTR __$EHRec$[ebp]
	mov	DWORD PTR fs:0, eax
	mov	DWORD PTR _this$[ebp], ecx
; Line 84
	mov	eax, DWORD PTR _i$[ebp]
	mov	ecx, DWORD PTR [eax]
	mov	DWORD PTR tv85[ebp], ecx
	mov	edx, DWORD PTR _i$[ebp]
	mov	eax, DWORD PTR [edx]
	sub	eax, 1
	mov	ecx, DWORD PTR _i$[ebp]
	mov	DWORD PTR [ecx], eax
	mov	edx, DWORD PTR tv85[ebp]
	push	edx
	lea	eax, DWORD PTR $T64944[ebp]
	push	eax
	lea	ecx, DWORD PTR $T64943[ebp]
	push	ecx
	mov	ecx, DWORD PTR _commands$[ebp]
	call	?begin@?$vector@PAVAsmCmd@@V?$allocator@PAVAsmCmd@@@std@@@std@@QAE?AV?$_Vector_iterator@V?$_Vector_val@PAVAsmCmd@@V?$allocator@PAVAsmCmd@@@std@@@std@@@2@XZ ; std::vector<AsmCmd *,std::allocator<AsmCmd *> >::begin
	mov	DWORD PTR tv140[ebp], eax
	mov	edx, DWORD PTR tv140[ebp]
	mov	DWORD PTR tv132[ebp], edx
	mov	DWORD PTR __$EHRec$[ebp+8], 0
	mov	ecx, DWORD PTR tv132[ebp]
	call	??H?$_Vector_iterator@V?$_Vector_val@PAVAsmCmd@@V?$allocator@PAVAsmCmd@@@std@@@std@@@std@@QBE?AV01@H@Z ; std::_Vector_iterator<std::_Vector_val<AsmCmd *,std::allocator<AsmCmd *> > >::operator+
	mov	DWORD PTR tv141[ebp], eax
	mov	eax, DWORD PTR tv141[ebp]
	mov	DWORD PTR tv134[ebp], eax
	mov	BYTE PTR __$EHRec$[ebp+8], 1
	sub	esp, 12					; 0000000cH
	mov	ecx, esp
	mov	DWORD PTR $T64942[ebp], esp
	mov	edx, DWORD PTR tv134[ebp]
	push	edx
	call	??0?$_Vector_const_iterator@V?$_Vector_val@PAVAsmCmd@@V?$allocator@PAVAsmCmd@@@std@@@std@@@std@@QAE@ABV01@@Z
	mov	DWORD PTR tv137[ebp], eax
	lea	eax, DWORD PTR $T64945[ebp]
	push	eax
	mov	ecx, DWORD PTR _commands$[ebp]
	call	?erase@?$vector@PAVAsmCmd@@V?$allocator@PAVAsmCmd@@@std@@@std@@QAE?AV?$_Vector_iterator@V?$_Vector_val@PAVAsmCmd@@V?$allocator@PAVAsmCmd@@@std@@@std@@@2@V?$_Vector_const_iterator@V?$_Vector_val@PAVAsmCmd@@V?$allocator@PAVAsmCmd@@@std@@@std@@@2@@Z ; std::vector<AsmCmd *,std::allocator<AsmCmd *> >::erase
	mov	DWORD PTR tv138[ebp], eax
	lea	ecx, DWORD PTR $T64945[ebp]
	call	??1?$_Vector_iterator@V?$_Vector_val@PAVAsmCmd@@V?$allocator@PAVAsmCmd@@@std@@@std@@@std@@QAE@XZ
	mov	BYTE PTR __$EHRec$[ebp+8], 0
	lea	ecx, DWORD PTR $T64944[ebp]
	call	??1?$_Vector_iterator@V?$_Vector_val@PAVAsmCmd@@V?$allocator@PAVAsmCmd@@@std@@@std@@@std@@QAE@XZ
	mov	DWORD PTR __$EHRec$[ebp+8], -1
	lea	ecx, DWORD PTR $T64943[ebp]
	call	??1?$_Vector_iterator@V?$_Vector_val@PAVAsmCmd@@V?$allocator@PAVAsmCmd@@@std@@@std@@@std@@QAE@XZ
; Line 85
	mov	ecx, DWORD PTR __$EHRec$[ebp]
	mov	DWORD PTR fs:0, ecx
	pop	ecx
	pop	edi
	pop	esi
	pop	ebx
	add	esp, 316				; 0000013cH
	cmp	ebp, esp
	call	__RTC_CheckEsp
	mov	esp, ebp
	pop	ebp
	ret	8
_TEXT	ENDS
;	COMDAT text$x
text$x	SEGMENT
__unwindfunclet$?MakeOptimization@DeleteAddWithZero@@UAEXPAV?$vector@PAVAsmCmd@@V?$allocator@PAVAsmCmd@@@std@@@std@@AAI@Z$0:
	lea	ecx, DWORD PTR $T64943[ebp]
	jmp	??1?$_Vector_iterator@V?$_Vector_val@PAVAsmCmd@@V?$allocator@PAVAsmCmd@@@std@@@std@@@std@@QAE@XZ
__unwindfunclet$?MakeOptimization@DeleteAddWithZero@@UAEXPAV?$vector@PAVAsmCmd@@V?$allocator@PAVAsmCmd@@@std@@@std@@AAI@Z$1:
	lea	ecx, DWORD PTR $T64944[ebp]
	jmp	??1?$_Vector_iterator@V?$_Vector_val@PAVAsmCmd@@V?$allocator@PAVAsmCmd@@@std@@@std@@@std@@QAE@XZ
__ehhandler$?MakeOptimization@DeleteAddWithZero@@UAEXPAV?$vector@PAVAsmCmd@@V?$allocator@PAVAsmCmd@@@std@@@std@@AAI@Z:
	mov	edx, DWORD PTR [esp+8]
	lea	eax, DWORD PTR [edx+12]
	mov	ecx, DWORD PTR [edx-320]
	xor	ecx, eax
	call	@__security_check_cookie@4
	mov	eax, OFFSET __ehfuncinfo$?MakeOptimization@DeleteAddWithZero@@UAEXPAV?$vector@PAVAsmCmd@@V?$allocator@PAVAsmCmd@@@std@@@std@@AAI@Z
	jmp	___CxxFrameHandler3
text$x	ENDS
?MakeOptimization@DeleteAddWithZero@@UAEXPAV?$vector@PAVAsmCmd@@V?$allocator@PAVAsmCmd@@@std@@@std@@AAI@Z ENDP ; DeleteAddWithZero::MakeOptimization
PUBLIC	??1?$_Vector_const_iterator@V?$_Vector_val@PAVAsmCmd@@V?$allocator@PAVAsmCmd@@@std@@@std@@@std@@QAE@XZ ; std::_Vector_const_iterator<std::_Vector_val<AsmCmd *,std::allocator<AsmCmd *> > >::~_Vector_const_iterator<std::_Vector_val<AsmCmd *,std::allocator<AsmCmd *> > >
; Function compile flags: /Odtp /RTCsu /ZI
;	COMDAT ??1?$_Vector_iterator@V?$_Vector_val@PAVAsmCmd@@V?$allocator@PAVAsmCmd@@@std@@@std@@@std@@QAE@XZ
_TEXT	SEGMENT
_this$ = -8						; size = 4
??1?$_Vector_iterator@V?$_Vector_val@PAVAsmCmd@@V?$allocator@PAVAsmCmd@@@std@@@std@@@std@@QAE@XZ PROC ; std::_Vector_iterator<std::_Vector_val<AsmCmd *,std::allocator<AsmCmd *> > >::~_Vector_iterator<std::_Vector_val<AsmCmd *,std::allocator<AsmCmd *> > >, COMDAT
; _this$ = ecx
	push	ebp
	mov	ebp, esp
	sub	esp, 204				; 000000ccH
	push	ebx
	push	esi
	push	edi
	push	ecx
	lea	edi, DWORD PTR [ebp-204]
	mov	ecx, 51					; 00000033H
	mov	eax, -858993460				; ccccccccH
	rep stosd
	pop	ecx
	mov	DWORD PTR _this$[ebp], ecx
	mov	ecx, DWORD PTR _this$[ebp]
	call	??1?$_Vector_const_iterator@V?$_Vector_val@PAVAsmCmd@@V?$allocator@PAVAsmCmd@@@std@@@std@@@std@@QAE@XZ
	pop	edi
	pop	esi
	pop	ebx
	add	esp, 204				; 000000ccH
	cmp	ebp, esp
	call	__RTC_CheckEsp
	mov	esp, ebp
	pop	ebp
	ret	0
??1?$_Vector_iterator@V?$_Vector_val@PAVAsmCmd@@V?$allocator@PAVAsmCmd@@@std@@@std@@@std@@QAE@XZ ENDP ; std::_Vector_iterator<std::_Vector_val<AsmCmd *,std::allocator<AsmCmd *> > >::~_Vector_iterator<std::_Vector_val<AsmCmd *,std::allocator<AsmCmd *> > >
_TEXT	ENDS
PUBLIC	??0?$_Iterator012@Urandom_access_iterator_tag@std@@PAVAsmCmd@@HPBQAV3@ABQAV3@U_Iterator_base12@2@@std@@QAE@ABU01@@Z ; std::_Iterator012<std::random_access_iterator_tag,AsmCmd *,int,AsmCmd * const *,AsmCmd * const &,std::_Iterator_base12>::_Iterator012<std::random_access_iterator_tag,AsmCmd *,int,AsmCmd * const *,AsmCmd * const &,std::_Iterator_base12>
; Function compile flags: /Odtp /RTCsu /ZI
;	COMDAT ??0?$_Vector_const_iterator@V?$_Vector_val@PAVAsmCmd@@V?$allocator@PAVAsmCmd@@@std@@@std@@@std@@QAE@ABV01@@Z
_TEXT	SEGMENT
_this$ = -8						; size = 4
___that$ = 8						; size = 4
??0?$_Vector_const_iterator@V?$_Vector_val@PAVAsmCmd@@V?$allocator@PAVAsmCmd@@@std@@@std@@@std@@QAE@ABV01@@Z PROC ; std::_Vector_const_iterator<std::_Vector_val<AsmCmd *,std::allocator<AsmCmd *> > >::_Vector_const_iterator<std::_Vector_val<AsmCmd *,std::allocator<AsmCmd *> > >, COMDAT
; _this$ = ecx
	push	ebp
	mov	ebp, esp
	sub	esp, 204				; 000000ccH
	push	ebx
	push	esi
	push	edi
	push	ecx
	lea	edi, DWORD PTR [ebp-204]
	mov	ecx, 51					; 00000033H
	mov	eax, -858993460				; ccccccccH
	rep stosd
	pop	ecx
	mov	DWORD PTR _this$[ebp], ecx
	mov	eax, DWORD PTR ___that$[ebp]
	push	eax
	mov	ecx, DWORD PTR _this$[ebp]
	call	??0?$_Iterator012@Urandom_access_iterator_tag@std@@PAVAsmCmd@@HPBQAV3@ABQAV3@U_Iterator_base12@2@@std@@QAE@ABU01@@Z
	mov	eax, DWORD PTR _this$[ebp]
	mov	ecx, DWORD PTR ___that$[ebp]
	mov	edx, DWORD PTR [ecx+8]
	mov	DWORD PTR [eax+8], edx
	mov	eax, DWORD PTR _this$[ebp]
	pop	edi
	pop	esi
	pop	ebx
	add	esp, 204				; 000000ccH
	cmp	ebp, esp
	call	__RTC_CheckEsp
	mov	esp, ebp
	pop	ebp
	ret	4
??0?$_Vector_const_iterator@V?$_Vector_val@PAVAsmCmd@@V?$allocator@PAVAsmCmd@@@std@@@std@@@std@@QAE@ABV01@@Z ENDP ; std::_Vector_const_iterator<std::_Vector_val<AsmCmd *,std::allocator<AsmCmd *> > >::_Vector_const_iterator<std::_Vector_val<AsmCmd *,std::allocator<AsmCmd *> > >
_TEXT	ENDS
PUBLIC	??1?$_Iterator012@Urandom_access_iterator_tag@std@@PAVAsmCmd@@HPBQAV3@ABQAV3@U_Iterator_base12@2@@std@@QAE@XZ ; std::_Iterator012<std::random_access_iterator_tag,AsmCmd *,int,AsmCmd * const *,AsmCmd * const &,std::_Iterator_base12>::~_Iterator012<std::random_access_iterator_tag,AsmCmd *,int,AsmCmd * const *,AsmCmd * const &,std::_Iterator_base12>
; Function compile flags: /Odtp /RTCsu /ZI
;	COMDAT ??1?$_Vector_const_iterator@V?$_Vector_val@PAVAsmCmd@@V?$allocator@PAVAsmCmd@@@std@@@std@@@std@@QAE@XZ
_TEXT	SEGMENT
_this$ = -8						; size = 4
??1?$_Vector_const_iterator@V?$_Vector_val@PAVAsmCmd@@V?$allocator@PAVAsmCmd@@@std@@@std@@@std@@QAE@XZ PROC ; std::_Vector_const_iterator<std::_Vector_val<AsmCmd *,std::allocator<AsmCmd *> > >::~_Vector_const_iterator<std::_Vector_val<AsmCmd *,std::allocator<AsmCmd *> > >, COMDAT
; _this$ = ecx
	push	ebp
	mov	ebp, esp
	sub	esp, 204				; 000000ccH
	push	ebx
	push	esi
	push	edi
	push	ecx
	lea	edi, DWORD PTR [ebp-204]
	mov	ecx, 51					; 00000033H
	mov	eax, -858993460				; ccccccccH
	rep stosd
	pop	ecx
	mov	DWORD PTR _this$[ebp], ecx
	mov	ecx, DWORD PTR _this$[ebp]
	call	??1?$_Iterator012@Urandom_access_iterator_tag@std@@PAVAsmCmd@@HPBQAV3@ABQAV3@U_Iterator_base12@2@@std@@QAE@XZ
	pop	edi
	pop	esi
	pop	ebx
	add	esp, 204				; 000000ccH
	cmp	ebp, esp
	call	__RTC_CheckEsp
	mov	esp, ebp
	pop	ebp
	ret	0
??1?$_Vector_const_iterator@V?$_Vector_val@PAVAsmCmd@@V?$allocator@PAVAsmCmd@@@std@@@std@@@std@@QAE@XZ ENDP ; std::_Vector_const_iterator<std::_Vector_val<AsmCmd *,std::allocator<AsmCmd *> > >::~_Vector_const_iterator<std::_Vector_val<AsmCmd *,std::allocator<AsmCmd *> > >
_TEXT	ENDS
PUBLIC	??0_Iterator_base12@std@@QAE@ABU01@@Z		; std::_Iterator_base12::_Iterator_base12
; Function compile flags: /Odtp /RTCsu /ZI
;	COMDAT ??0?$_Iterator012@Urandom_access_iterator_tag@std@@PAVAsmCmd@@HPBQAV3@ABQAV3@U_Iterator_base12@2@@std@@QAE@ABU01@@Z
_TEXT	SEGMENT
_this$ = -8						; size = 4
___that$ = 8						; size = 4
??0?$_Iterator012@Urandom_access_iterator_tag@std@@PAVAsmCmd@@HPBQAV3@ABQAV3@U_Iterator_base12@2@@std@@QAE@ABU01@@Z PROC ; std::_Iterator012<std::random_access_iterator_tag,AsmCmd *,int,AsmCmd * const *,AsmCmd * const &,std::_Iterator_base12>::_Iterator012<std::random_access_iterator_tag,AsmCmd *,int,AsmCmd * const *,AsmCmd * const &,std::_Iterator_base12>, COMDAT
; _this$ = ecx
	push	ebp
	mov	ebp, esp
	sub	esp, 204				; 000000ccH
	push	ebx
	push	esi
	push	edi
	push	ecx
	lea	edi, DWORD PTR [ebp-204]
	mov	ecx, 51					; 00000033H
	mov	eax, -858993460				; ccccccccH
	rep stosd
	pop	ecx
	mov	DWORD PTR _this$[ebp], ecx
	mov	eax, DWORD PTR ___that$[ebp]
	push	eax
	mov	ecx, DWORD PTR _this$[ebp]
	call	??0_Iterator_base12@std@@QAE@ABU01@@Z	; std::_Iterator_base12::_Iterator_base12
	mov	eax, DWORD PTR _this$[ebp]
	pop	edi
	pop	esi
	pop	ebx
	add	esp, 204				; 000000ccH
	cmp	ebp, esp
	call	__RTC_CheckEsp
	mov	esp, ebp
	pop	ebp
	ret	4
??0?$_Iterator012@Urandom_access_iterator_tag@std@@PAVAsmCmd@@HPBQAV3@ABQAV3@U_Iterator_base12@2@@std@@QAE@ABU01@@Z ENDP ; std::_Iterator012<std::random_access_iterator_tag,AsmCmd *,int,AsmCmd * const *,AsmCmd * const &,std::_Iterator_base12>::_Iterator012<std::random_access_iterator_tag,AsmCmd *,int,AsmCmd * const *,AsmCmd * const &,std::_Iterator_base12>
_TEXT	ENDS
PUBLIC	??4_Iterator_base12@std@@QAEAAU01@ABU01@@Z	; std::_Iterator_base12::operator=
; Function compile flags: /Odtp /RTCsu /ZI
;	COMDAT ??0_Iterator_base12@std@@QAE@ABU01@@Z
_TEXT	SEGMENT
_this$ = -8						; size = 4
__Right$ = 8						; size = 4
??0_Iterator_base12@std@@QAE@ABU01@@Z PROC		; std::_Iterator_base12::_Iterator_base12, COMDAT
; _this$ = ecx
; File c:\program files\microsoft visual studio 10.0\vc\include\xutility
; Line 116
	push	ebp
	mov	ebp, esp
	sub	esp, 204				; 000000ccH
	push	ebx
	push	esi
	push	edi
	push	ecx
	lea	edi, DWORD PTR [ebp-204]
	mov	ecx, 51					; 00000033H
	mov	eax, -858993460				; ccccccccH
	rep stosd
	pop	ecx
	mov	DWORD PTR _this$[ebp], ecx
	mov	eax, DWORD PTR _this$[ebp]
	mov	DWORD PTR [eax], 0
	mov	eax, DWORD PTR _this$[ebp]
	mov	DWORD PTR [eax+4], 0
; Line 117
	mov	eax, DWORD PTR __Right$[ebp]
	push	eax
	mov	ecx, DWORD PTR _this$[ebp]
	call	??4_Iterator_base12@std@@QAEAAU01@ABU01@@Z ; std::_Iterator_base12::operator=
; Line 118
	mov	eax, DWORD PTR _this$[ebp]
	pop	edi
	pop	esi
	pop	ebx
	add	esp, 204				; 000000ccH
	cmp	ebp, esp
	call	__RTC_CheckEsp
	mov	esp, ebp
	pop	ebp
	ret	4
??0_Iterator_base12@std@@QAE@ABU01@@Z ENDP		; std::_Iterator_base12::_Iterator_base12
_TEXT	ENDS
PUBLIC	?_Adopt@_Iterator_base12@std@@QAEXPBU_Container_base12@2@@Z ; std::_Iterator_base12::_Adopt
; Function compile flags: /Odtp /RTCsu /ZI
;	COMDAT ??4_Iterator_base12@std@@QAEAAU01@ABU01@@Z
_TEXT	SEGMENT
_this$ = -8						; size = 4
__Right$ = 8						; size = 4
??4_Iterator_base12@std@@QAEAAU01@ABU01@@Z PROC		; std::_Iterator_base12::operator=, COMDAT
; _this$ = ecx
; Line 121
	push	ebp
	mov	ebp, esp
	sub	esp, 204				; 000000ccH
	push	ebx
	push	esi
	push	edi
	push	ecx
	lea	edi, DWORD PTR [ebp-204]
	mov	ecx, 51					; 00000033H
	mov	eax, -858993460				; ccccccccH
	rep stosd
	pop	ecx
	mov	DWORD PTR _this$[ebp], ecx
; Line 122
	mov	eax, DWORD PTR _this$[ebp]
	mov	ecx, DWORD PTR __Right$[ebp]
	mov	edx, DWORD PTR [eax]
	cmp	edx, DWORD PTR [ecx]
	je	SHORT $LN1@operator
; Line 123
	mov	eax, DWORD PTR __Right$[ebp]
	mov	ecx, DWORD PTR [eax]
	mov	edx, DWORD PTR [ecx]
	push	edx
	mov	ecx, DWORD PTR _this$[ebp]
	call	?_Adopt@_Iterator_base12@std@@QAEXPBU_Container_base12@2@@Z ; std::_Iterator_base12::_Adopt
$LN1@operator:
; Line 124
	mov	eax, DWORD PTR _this$[ebp]
; Line 125
	pop	edi
	pop	esi
	pop	ebx
	add	esp, 204				; 000000ccH
	cmp	ebp, esp
	call	__RTC_CheckEsp
	mov	esp, ebp
	pop	ebp
	ret	4
??4_Iterator_base12@std@@QAEAAU01@ABU01@@Z ENDP		; std::_Iterator_base12::operator=
_TEXT	ENDS
PUBLIC	?_Orphan_me@_Iterator_base12@std@@QAEXXZ	; std::_Iterator_base12::_Orphan_me
EXTRN	??1_Lockit@std@@QAE@XZ:PROC			; std::_Lockit::~_Lockit
EXTRN	??0_Lockit@std@@QAE@H@Z:PROC			; std::_Lockit::_Lockit
;	COMDAT xdata$x
xdata$x	SEGMENT
__unwindtable$?_Adopt@_Iterator_base12@std@@QAEXPBU_Container_base12@2@@Z DD 0ffffffffH
	DD	FLAT:__unwindfunclet$?_Adopt@_Iterator_base12@std@@QAEXPBU_Container_base12@2@@Z$0
__ehfuncinfo$?_Adopt@_Iterator_base12@std@@QAEXPBU_Container_base12@2@@Z DD 019930522H
	DD	01H
	DD	FLAT:__unwindtable$?_Adopt@_Iterator_base12@std@@QAEXPBU_Container_base12@2@@Z
	DD	2 DUP(00H)
	DD	2 DUP(00H)
	DD	00H
	DD	01H
; Function compile flags: /Odtp /RTCsu /ZI
xdata$x	ENDS
;	COMDAT ?_Adopt@_Iterator_base12@std@@QAEXPBU_Container_base12@2@@Z
_TEXT	SEGMENT
__Lock$11503 = -44					; size = 4
__Parent_proxy$11501 = -32				; size = 4
_this$ = -20						; size = 4
__$EHRec$ = -12						; size = 12
__Parent$ = 8						; size = 4
?_Adopt@_Iterator_base12@std@@QAEXPBU_Container_base12@2@@Z PROC ; std::_Iterator_base12::_Adopt, COMDAT
; _this$ = ecx
; Line 136
	push	ebp
	mov	ebp, esp
	push	-1
	push	__ehhandler$?_Adopt@_Iterator_base12@std@@QAEXPBU_Container_base12@2@@Z
	mov	eax, DWORD PTR fs:0
	push	eax
	sub	esp, 228				; 000000e4H
	push	ebx
	push	esi
	push	edi
	push	ecx
	lea	edi, DWORD PTR [ebp-240]
	mov	ecx, 57					; 00000039H
	mov	eax, -858993460				; ccccccccH
	rep stosd
	pop	ecx
	mov	eax, DWORD PTR ___security_cookie
	xor	eax, ebp
	push	eax
	lea	eax, DWORD PTR __$EHRec$[ebp]
	mov	DWORD PTR fs:0, eax
	mov	DWORD PTR _this$[ebp], ecx
; Line 137
	cmp	DWORD PTR __Parent$[ebp], 0
	je	SHORT $LN3@Adopt
; Line 139
	mov	eax, DWORD PTR __Parent$[ebp]
	mov	ecx, DWORD PTR [eax]
	mov	DWORD PTR __Parent_proxy$11501[ebp], ecx
; Line 142
	mov	eax, DWORD PTR _this$[ebp]
	mov	ecx, DWORD PTR [eax]
	cmp	ecx, DWORD PTR __Parent_proxy$11501[ebp]
	je	SHORT $LN3@Adopt
; Line 144
	push	3
	lea	ecx, DWORD PTR __Lock$11503[ebp]
	call	??0_Lockit@std@@QAE@H@Z			; std::_Lockit::_Lockit
	mov	DWORD PTR __$EHRec$[ebp+8], 0
; Line 145
	mov	ecx, DWORD PTR _this$[ebp]
	call	?_Orphan_me@_Iterator_base12@std@@QAEXXZ ; std::_Iterator_base12::_Orphan_me
; Line 146
	mov	eax, DWORD PTR _this$[ebp]
	mov	ecx, DWORD PTR __Parent_proxy$11501[ebp]
	mov	edx, DWORD PTR [ecx+4]
	mov	DWORD PTR [eax+4], edx
; Line 147
	mov	eax, DWORD PTR __Parent_proxy$11501[ebp]
	mov	ecx, DWORD PTR _this$[ebp]
	mov	DWORD PTR [eax+4], ecx
; Line 148
	mov	eax, DWORD PTR _this$[ebp]
	mov	ecx, DWORD PTR __Parent_proxy$11501[ebp]
	mov	DWORD PTR [eax], ecx
; Line 149
	mov	DWORD PTR __$EHRec$[ebp+8], -1
	lea	ecx, DWORD PTR __Lock$11503[ebp]
	call	??1_Lockit@std@@QAE@XZ			; std::_Lockit::~_Lockit
$LN3@Adopt:
; Line 154
	push	edx
	mov	ecx, ebp
	push	eax
	lea	edx, DWORD PTR $LN9@Adopt
	call	@_RTC_CheckStackVars@8
	pop	eax
	pop	edx
	mov	ecx, DWORD PTR __$EHRec$[ebp]
	mov	DWORD PTR fs:0, ecx
	pop	ecx
	pop	edi
	pop	esi
	pop	ebx
	add	esp, 240				; 000000f0H
	cmp	ebp, esp
	call	__RTC_CheckEsp
	mov	esp, ebp
	pop	ebp
	ret	4
	npad	3
$LN9@Adopt:
	DD	1
	DD	$LN8@Adopt
$LN8@Adopt:
	DD	-44					; ffffffd4H
	DD	4
	DD	$LN6@Adopt
$LN6@Adopt:
	DB	95					; 0000005fH
	DB	76					; 0000004cH
	DB	111					; 0000006fH
	DB	99					; 00000063H
	DB	107					; 0000006bH
	DB	0
_TEXT	ENDS
;	COMDAT text$x
text$x	SEGMENT
__unwindfunclet$?_Adopt@_Iterator_base12@std@@QAEXPBU_Container_base12@2@@Z$0:
	lea	ecx, DWORD PTR __Lock$11503[ebp]
	jmp	??1_Lockit@std@@QAE@XZ			; std::_Lockit::~_Lockit
__ehhandler$?_Adopt@_Iterator_base12@std@@QAEXPBU_Container_base12@2@@Z:
	mov	edx, DWORD PTR [esp+8]
	lea	eax, DWORD PTR [edx+12]
	mov	ecx, DWORD PTR [edx-244]
	xor	ecx, eax
	call	@__security_check_cookie@4
	mov	eax, OFFSET __ehfuncinfo$?_Adopt@_Iterator_base12@std@@QAEXPBU_Container_base12@2@@Z
	jmp	___CxxFrameHandler3
text$x	ENDS
?_Adopt@_Iterator_base12@std@@QAEXPBU_Container_base12@2@@Z ENDP ; std::_Iterator_base12::_Adopt
PUBLIC	??_C@_1DC@POOIKBAO@?$AAI?$AAT?$AAE?$AAR?$AAA?$AAT?$AAO?$AAR?$AA?5?$AAL?$AAI?$AAS?$AAT?$AA?5?$AAC?$AAO?$AAR?$AAR?$AAU?$AAP?$AAT?$AAE?$AAD?$AA?$CB?$AA?$AA@ ; `string'
PUBLIC	??_C@_1IE@MNKNPHOP@?$AAc?$AA?3?$AA?2?$AAp?$AAr?$AAo?$AAg?$AAr?$AAa?$AAm?$AA?5?$AAf?$AAi?$AAl?$AAe?$AAs?$AA?2?$AAm?$AAi?$AAc?$AAr?$AAo?$AAs?$AAo?$AAf?$AAt?$AA?5?$AAv?$AAi?$AAs?$AAu?$AAa@ ; `string'
EXTRN	?_Debug_message@std@@YAXPB_W0I@Z:PROC		; std::_Debug_message
;	COMDAT ??_C@_1DC@POOIKBAO@?$AAI?$AAT?$AAE?$AAR?$AAA?$AAT?$AAO?$AAR?$AA?5?$AAL?$AAI?$AAS?$AAT?$AA?5?$AAC?$AAO?$AAR?$AAR?$AAU?$AAP?$AAT?$AAE?$AAD?$AA?$CB?$AA?$AA@
CONST	SEGMENT
??_C@_1DC@POOIKBAO@?$AAI?$AAT?$AAE?$AAR?$AAA?$AAT?$AAO?$AAR?$AA?5?$AAL?$AAI?$AAS?$AAT?$AA?5?$AAC?$AAO?$AAR?$AAR?$AAU?$AAP?$AAT?$AAE?$AAD?$AA?$CB?$AA?$AA@ DB 'I'
	DB	00H, 'T', 00H, 'E', 00H, 'R', 00H, 'A', 00H, 'T', 00H, 'O', 00H
	DB	'R', 00H, ' ', 00H, 'L', 00H, 'I', 00H, 'S', 00H, 'T', 00H, ' '
	DB	00H, 'C', 00H, 'O', 00H, 'R', 00H, 'R', 00H, 'U', 00H, 'P', 00H
	DB	'T', 00H, 'E', 00H, 'D', 00H, '!', 00H, 00H, 00H ; `string'
CONST	ENDS
;	COMDAT ??_C@_1IE@MNKNPHOP@?$AAc?$AA?3?$AA?2?$AAp?$AAr?$AAo?$AAg?$AAr?$AAa?$AAm?$AA?5?$AAf?$AAi?$AAl?$AAe?$AAs?$AA?2?$AAm?$AAi?$AAc?$AAr?$AAo?$AAs?$AAo?$AAf?$AAt?$AA?5?$AAv?$AAi?$AAs?$AAu?$AAa@
CONST	SEGMENT
??_C@_1IE@MNKNPHOP@?$AAc?$AA?3?$AA?2?$AAp?$AAr?$AAo?$AAg?$AAr?$AAa?$AAm?$AA?5?$AAf?$AAi?$AAl?$AAe?$AAs?$AA?2?$AAm?$AAi?$AAc?$AAr?$AAo?$AAs?$AAo?$AAf?$AAt?$AA?5?$AAv?$AAi?$AAs?$AAu?$AAa@ DB 'c'
	DB	00H, ':', 00H, '\', 00H, 'p', 00H, 'r', 00H, 'o', 00H, 'g', 00H
	DB	'r', 00H, 'a', 00H, 'm', 00H, ' ', 00H, 'f', 00H, 'i', 00H, 'l'
	DB	00H, 'e', 00H, 's', 00H, '\', 00H, 'm', 00H, 'i', 00H, 'c', 00H
	DB	'r', 00H, 'o', 00H, 's', 00H, 'o', 00H, 'f', 00H, 't', 00H, ' '
	DB	00H, 'v', 00H, 'i', 00H, 's', 00H, 'u', 00H, 'a', 00H, 'l', 00H
	DB	' ', 00H, 's', 00H, 't', 00H, 'u', 00H, 'd', 00H, 'i', 00H, 'o'
	DB	00H, ' ', 00H, '1', 00H, '0', 00H, '.', 00H, '0', 00H, '\', 00H
	DB	'v', 00H, 'c', 00H, '\', 00H, 'i', 00H, 'n', 00H, 'c', 00H, 'l'
	DB	00H, 'u', 00H, 'd', 00H, 'e', 00H, '\', 00H, 'x', 00H, 'u', 00H
	DB	't', 00H, 'i', 00H, 'l', 00H, 'i', 00H, 't', 00H, 'y', 00H, 00H
	DB	00H						; `string'
; Function compile flags: /Odtp /RTCsu /ZI
CONST	ENDS
;	COMDAT ?_Orphan_me@_Iterator_base12@std@@QAEXXZ
_TEXT	SEGMENT
__Pnext$11513 = -20					; size = 4
_this$ = -8						; size = 4
?_Orphan_me@_Iterator_base12@std@@QAEXXZ PROC		; std::_Iterator_base12::_Orphan_me, COMDAT
; _this$ = ecx
; Line 172
	push	ebp
	mov	ebp, esp
	sub	esp, 216				; 000000d8H
	push	ebx
	push	esi
	push	edi
	push	ecx
	lea	edi, DWORD PTR [ebp-216]
	mov	ecx, 54					; 00000036H
	mov	eax, -858993460				; ccccccccH
	rep stosd
	pop	ecx
	mov	DWORD PTR _this$[ebp], ecx
; Line 174
	mov	eax, DWORD PTR _this$[ebp]
	cmp	DWORD PTR [eax], 0
	je	SHORT $LN5@Orphan_me
; Line 176
	mov	eax, DWORD PTR _this$[ebp]
	mov	ecx, DWORD PTR [eax]
	add	ecx, 4
	mov	DWORD PTR __Pnext$11513[ebp], ecx
$LN3@Orphan_me:
; Line 177
	mov	eax, DWORD PTR __Pnext$11513[ebp]
	cmp	DWORD PTR [eax], 0
	je	SHORT $LN2@Orphan_me
	mov	eax, DWORD PTR __Pnext$11513[ebp]
	mov	ecx, DWORD PTR [eax]
	cmp	ecx, DWORD PTR _this$[ebp]
	je	SHORT $LN2@Orphan_me
; Line 178
	mov	eax, DWORD PTR __Pnext$11513[ebp]
	mov	ecx, DWORD PTR [eax]
	add	ecx, 4
	mov	DWORD PTR __Pnext$11513[ebp], ecx
	jmp	SHORT $LN3@Orphan_me
$LN2@Orphan_me:
; Line 180
	mov	eax, DWORD PTR __Pnext$11513[ebp]
	cmp	DWORD PTR [eax], 0
	jne	SHORT $LN1@Orphan_me
; Line 181
	push	181					; 000000b5H
	push	OFFSET ??_C@_1IE@MNKNPHOP@?$AAc?$AA?3?$AA?2?$AAp?$AAr?$AAo?$AAg?$AAr?$AAa?$AAm?$AA?5?$AAf?$AAi?$AAl?$AAe?$AAs?$AA?2?$AAm?$AAi?$AAc?$AAr?$AAo?$AAs?$AAo?$AAf?$AAt?$AA?5?$AAv?$AAi?$AAs?$AAu?$AAa@
	push	OFFSET ??_C@_1DC@POOIKBAO@?$AAI?$AAT?$AAE?$AAR?$AAA?$AAT?$AAO?$AAR?$AA?5?$AAL?$AAI?$AAS?$AAT?$AA?5?$AAC?$AAO?$AAR?$AAR?$AAU?$AAP?$AAT?$AAE?$AAD?$AA?$CB?$AA?$AA@
	call	?_Debug_message@std@@YAXPB_W0I@Z	; std::_Debug_message
	add	esp, 12					; 0000000cH
$LN1@Orphan_me:
; Line 182
	mov	eax, DWORD PTR __Pnext$11513[ebp]
	mov	ecx, DWORD PTR _this$[ebp]
	mov	edx, DWORD PTR [ecx+4]
	mov	DWORD PTR [eax], edx
; Line 183
	mov	eax, DWORD PTR _this$[ebp]
	mov	DWORD PTR [eax], 0
$LN5@Orphan_me:
; Line 186
	pop	edi
	pop	esi
	pop	ebx
	add	esp, 216				; 000000d8H
	cmp	ebp, esp
	call	__RTC_CheckEsp
	mov	esp, ebp
	pop	ebp
	ret	0
?_Orphan_me@_Iterator_base12@std@@QAEXXZ ENDP		; std::_Iterator_base12::_Orphan_me
_TEXT	ENDS
PUBLIC	??1_Iterator_base12@std@@QAE@XZ			; std::_Iterator_base12::~_Iterator_base12
; Function compile flags: /Odtp /RTCsu /ZI
;	COMDAT ??1?$_Iterator012@Urandom_access_iterator_tag@std@@PAVAsmCmd@@HPBQAV3@ABQAV3@U_Iterator_base12@2@@std@@QAE@XZ
_TEXT	SEGMENT
_this$ = -8						; size = 4
??1?$_Iterator012@Urandom_access_iterator_tag@std@@PAVAsmCmd@@HPBQAV3@ABQAV3@U_Iterator_base12@2@@std@@QAE@XZ PROC ; std::_Iterator012<std::random_access_iterator_tag,AsmCmd *,int,AsmCmd * const *,AsmCmd * const &,std::_Iterator_base12>::~_Iterator012<std::random_access_iterator_tag,AsmCmd *,int,AsmCmd * const *,AsmCmd * const &,std::_Iterator_base12>, COMDAT
; _this$ = ecx
	push	ebp
	mov	ebp, esp
	sub	esp, 204				; 000000ccH
	push	ebx
	push	esi
	push	edi
	push	ecx
	lea	edi, DWORD PTR [ebp-204]
	mov	ecx, 51					; 00000033H
	mov	eax, -858993460				; ccccccccH
	rep stosd
	pop	ecx
	mov	DWORD PTR _this$[ebp], ecx
	mov	ecx, DWORD PTR _this$[ebp]
	call	??1_Iterator_base12@std@@QAE@XZ		; std::_Iterator_base12::~_Iterator_base12
	pop	edi
	pop	esi
	pop	ebx
	add	esp, 204				; 000000ccH
	cmp	ebp, esp
	call	__RTC_CheckEsp
	mov	esp, ebp
	pop	ebp
	ret	0
??1?$_Iterator012@Urandom_access_iterator_tag@std@@PAVAsmCmd@@HPBQAV3@ABQAV3@U_Iterator_base12@2@@std@@QAE@XZ ENDP ; std::_Iterator012<std::random_access_iterator_tag,AsmCmd *,int,AsmCmd * const *,AsmCmd * const &,std::_Iterator_base12>::~_Iterator012<std::random_access_iterator_tag,AsmCmd *,int,AsmCmd * const *,AsmCmd * const &,std::_Iterator_base12>
_TEXT	ENDS
;	COMDAT xdata$x
xdata$x	SEGMENT
__unwindtable$??1_Iterator_base12@std@@QAE@XZ DD 0ffffffffH
	DD	FLAT:__unwindfunclet$??1_Iterator_base12@std@@QAE@XZ$0
__ehfuncinfo$??1_Iterator_base12@std@@QAE@XZ DD 019930522H
	DD	01H
	DD	FLAT:__unwindtable$??1_Iterator_base12@std@@QAE@XZ
	DD	2 DUP(00H)
	DD	2 DUP(00H)
	DD	00H
	DD	01H
; Function compile flags: /Odtp /RTCsu /ZI
xdata$x	ENDS
;	COMDAT ??1_Iterator_base12@std@@QAE@XZ
_TEXT	SEGMENT
__Lock$ = -32						; size = 4
_this$ = -20						; size = 4
__$EHRec$ = -12						; size = 12
??1_Iterator_base12@std@@QAE@XZ PROC			; std::_Iterator_base12::~_Iterator_base12, COMDAT
; _this$ = ecx
; Line 128
	push	ebp
	mov	ebp, esp
	push	-1
	push	__ehhandler$??1_Iterator_base12@std@@QAE@XZ
	mov	eax, DWORD PTR fs:0
	push	eax
	sub	esp, 216				; 000000d8H
	push	ebx
	push	esi
	push	edi
	push	ecx
	lea	edi, DWORD PTR [ebp-228]
	mov	ecx, 54					; 00000036H
	mov	eax, -858993460				; ccccccccH
	rep stosd
	pop	ecx
	mov	eax, DWORD PTR ___security_cookie
	xor	eax, ebp
	push	eax
	lea	eax, DWORD PTR __$EHRec$[ebp]
	mov	DWORD PTR fs:0, eax
	mov	DWORD PTR _this$[ebp], ecx
; Line 130
	push	3
	lea	ecx, DWORD PTR __Lock$[ebp]
	call	??0_Lockit@std@@QAE@H@Z			; std::_Lockit::_Lockit
	mov	DWORD PTR __$EHRec$[ebp+8], 0
; Line 131
	mov	ecx, DWORD PTR _this$[ebp]
	call	?_Orphan_me@_Iterator_base12@std@@QAEXXZ ; std::_Iterator_base12::_Orphan_me
; Line 133
	mov	DWORD PTR __$EHRec$[ebp+8], -1
	lea	ecx, DWORD PTR __Lock$[ebp]
	call	??1_Lockit@std@@QAE@XZ			; std::_Lockit::~_Lockit
	push	edx
	mov	ecx, ebp
	push	eax
	lea	edx, DWORD PTR $LN7@Iterator_b
	call	@_RTC_CheckStackVars@8
	pop	eax
	pop	edx
	mov	ecx, DWORD PTR __$EHRec$[ebp]
	mov	DWORD PTR fs:0, ecx
	pop	ecx
	pop	edi
	pop	esi
	pop	ebx
	add	esp, 228				; 000000e4H
	cmp	ebp, esp
	call	__RTC_CheckEsp
	mov	esp, ebp
	pop	ebp
	ret	0
	npad	2
$LN7@Iterator_b:
	DD	1
	DD	$LN6@Iterator_b
$LN6@Iterator_b:
	DD	-32					; ffffffe0H
	DD	4
	DD	$LN4@Iterator_b
$LN4@Iterator_b:
	DB	95					; 0000005fH
	DB	76					; 0000004cH
	DB	111					; 0000006fH
	DB	99					; 00000063H
	DB	107					; 0000006bH
	DB	0
_TEXT	ENDS
;	COMDAT text$x
text$x	SEGMENT
__unwindfunclet$??1_Iterator_base12@std@@QAE@XZ$0:
	lea	ecx, DWORD PTR __Lock$[ebp]
	jmp	??1_Lockit@std@@QAE@XZ			; std::_Lockit::~_Lockit
__ehhandler$??1_Iterator_base12@std@@QAE@XZ:
	mov	edx, DWORD PTR [esp+8]
	lea	eax, DWORD PTR [edx+12]
	mov	ecx, DWORD PTR [edx-232]
	xor	ecx, eax
	call	@__security_check_cookie@4
	mov	eax, OFFSET __ehfuncinfo$??1_Iterator_base12@std@@QAE@XZ
	jmp	___CxxFrameHandler3
text$x	ENDS
??1_Iterator_base12@std@@QAE@XZ ENDP			; std::_Iterator_base12::~_Iterator_base12
; Function compile flags: /Odtp /RTCsu /ZI
;	COMDAT ?CanBeApplied@DeleteSubWithZero@@UAE_NPAVAsmCmd@@@Z
_TEXT	SEGMENT
tv90 = -228						; size = 4
tv94 = -221						; size = 1
tv93 = -220						; size = 4
$T65003 = -212						; size = 4
_this$ = -8						; size = 4
_line$ = 8						; size = 4
?CanBeApplied@DeleteSubWithZero@@UAE_NPAVAsmCmd@@@Z PROC ; DeleteSubWithZero::CanBeApplied, COMDAT
; _this$ = ecx
; File c:\users\дмитрий\documents\visual studio 2010\projects\scanner\scanner\ll_optimizer.cpp
; Line 88
	push	ebp
	mov	ebp, esp
	sub	esp, 228				; 000000e4H
	push	ebx
	push	esi
	push	edi
	push	ecx
	lea	edi, DWORD PTR [ebp-228]
	mov	ecx, 57					; 00000039H
	mov	eax, -858993460				; ccccccccH
	rep stosd
	pop	ecx
	mov	DWORD PTR _this$[ebp], ecx
; Line 89
	mov	eax, DWORD PTR _line$[ebp]
	mov	edx, DWORD PTR [eax]
	mov	esi, esp
	mov	ecx, DWORD PTR _line$[ebp]
	mov	eax, DWORD PTR [edx+16]
	call	eax
	cmp	esi, esp
	call	__RTC_CheckEsp
	movzx	ecx, al
	test	ecx, ecx
	je	SHORT $LN3@CanBeAppli@2
	sub	esp, 32					; 00000020H
	mov	ecx, esp
	mov	DWORD PTR $T65003[ebp], esp
	push	OFFSET ??_C@_01GBGANLPD@0?$AA@
	call	??0?$basic_string@DU?$char_traits@D@std@@V?$allocator@D@2@@std@@QAE@PBD@Z ; std::basic_string<char,std::char_traits<char>,std::allocator<char> >::basic_string<char,std::char_traits<char>,std::allocator<char> >
	mov	DWORD PTR tv93[ebp], eax
	mov	edx, DWORD PTR _line$[ebp]
	mov	eax, DWORD PTR [edx]
	mov	ecx, DWORD PTR _line$[ebp]
	mov	edx, DWORD PTR [eax+48]
	call	edx
	mov	BYTE PTR tv94[ebp], al
	movzx	eax, BYTE PTR tv94[ebp]
	test	eax, eax
	je	SHORT $LN3@CanBeAppli@2
	mov	DWORD PTR tv90[ebp], 1
	jmp	SHORT $LN4@CanBeAppli@2
$LN3@CanBeAppli@2:
	mov	DWORD PTR tv90[ebp], 0
$LN4@CanBeAppli@2:
	mov	al, BYTE PTR tv90[ebp]
; Line 90
	pop	edi
	pop	esi
	pop	ebx
	add	esp, 228				; 000000e4H
	cmp	ebp, esp
	call	__RTC_CheckEsp
	mov	esp, ebp
	pop	ebp
	ret	4
?CanBeApplied@DeleteSubWithZero@@UAE_NPAVAsmCmd@@@Z ENDP ; DeleteSubWithZero::CanBeApplied
_TEXT	ENDS
;	COMDAT xdata$x
xdata$x	SEGMENT
__unwindtable$?MakeOptimization@DeleteSubWithZero@@UAEXPAV?$vector@PAVAsmCmd@@V?$allocator@PAVAsmCmd@@@std@@@std@@AAI@Z DD 0ffffffffH
	DD	FLAT:__unwindfunclet$?MakeOptimization@DeleteSubWithZero@@UAEXPAV?$vector@PAVAsmCmd@@V?$allocator@PAVAsmCmd@@@std@@@std@@AAI@Z$0
	DD	00H
	DD	FLAT:__unwindfunclet$?MakeOptimization@DeleteSubWithZero@@UAEXPAV?$vector@PAVAsmCmd@@V?$allocator@PAVAsmCmd@@@std@@@std@@AAI@Z$1
__ehfuncinfo$?MakeOptimization@DeleteSubWithZero@@UAEXPAV?$vector@PAVAsmCmd@@V?$allocator@PAVAsmCmd@@@std@@@std@@AAI@Z DD 019930522H
	DD	02H
	DD	FLAT:__unwindtable$?MakeOptimization@DeleteSubWithZero@@UAEXPAV?$vector@PAVAsmCmd@@V?$allocator@PAVAsmCmd@@@std@@@std@@AAI@Z
	DD	2 DUP(00H)
	DD	2 DUP(00H)
	DD	00H
	DD	01H
; Function compile flags: /Odtp /RTCsu /ZI
xdata$x	ENDS
;	COMDAT ?MakeOptimization@DeleteSubWithZero@@UAEXPAV?$vector@PAVAsmCmd@@V?$allocator@PAVAsmCmd@@@std@@@std@@AAI@Z
_TEXT	SEGMENT
tv138 = -316						; size = 4
tv137 = -312						; size = 4
tv134 = -308						; size = 4
tv141 = -304						; size = 4
tv132 = -300						; size = 4
tv140 = -296						; size = 4
tv85 = -292						; size = 4
$T65009 = -284						; size = 4
$T65010 = -272						; size = 12
$T65011 = -252						; size = 12
$T65012 = -232						; size = 12
_this$ = -20						; size = 4
__$EHRec$ = -12						; size = 12
_commands$ = 8						; size = 4
_i$ = 12						; size = 4
?MakeOptimization@DeleteSubWithZero@@UAEXPAV?$vector@PAVAsmCmd@@V?$allocator@PAVAsmCmd@@@std@@@std@@AAI@Z PROC ; DeleteSubWithZero::MakeOptimization, COMDAT
; _this$ = ecx
; Line 93
	push	ebp
	mov	ebp, esp
	push	-1
	push	__ehhandler$?MakeOptimization@DeleteSubWithZero@@UAEXPAV?$vector@PAVAsmCmd@@V?$allocator@PAVAsmCmd@@@std@@@std@@AAI@Z
	mov	eax, DWORD PTR fs:0
	push	eax
	sub	esp, 304				; 00000130H
	push	ebx
	push	esi
	push	edi
	push	ecx
	lea	edi, DWORD PTR [ebp-316]
	mov	ecx, 76					; 0000004cH
	mov	eax, -858993460				; ccccccccH
	rep stosd
	pop	ecx
	mov	eax, DWORD PTR ___security_cookie
	xor	eax, ebp
	push	eax
	lea	eax, DWORD PTR __$EHRec$[ebp]
	mov	DWORD PTR fs:0, eax
	mov	DWORD PTR _this$[ebp], ecx
; Line 94
	mov	eax, DWORD PTR _i$[ebp]
	mov	ecx, DWORD PTR [eax]
	mov	DWORD PTR tv85[ebp], ecx
	mov	edx, DWORD PTR _i$[ebp]
	mov	eax, DWORD PTR [edx]
	sub	eax, 1
	mov	ecx, DWORD PTR _i$[ebp]
	mov	DWORD PTR [ecx], eax
	mov	edx, DWORD PTR tv85[ebp]
	push	edx
	lea	eax, DWORD PTR $T65011[ebp]
	push	eax
	lea	ecx, DWORD PTR $T65010[ebp]
	push	ecx
	mov	ecx, DWORD PTR _commands$[ebp]
	call	?begin@?$vector@PAVAsmCmd@@V?$allocator@PAVAsmCmd@@@std@@@std@@QAE?AV?$_Vector_iterator@V?$_Vector_val@PAVAsmCmd@@V?$allocator@PAVAsmCmd@@@std@@@std@@@2@XZ ; std::vector<AsmCmd *,std::allocator<AsmCmd *> >::begin
	mov	DWORD PTR tv140[ebp], eax
	mov	edx, DWORD PTR tv140[ebp]
	mov	DWORD PTR tv132[ebp], edx
	mov	DWORD PTR __$EHRec$[ebp+8], 0
	mov	ecx, DWORD PTR tv132[ebp]
	call	??H?$_Vector_iterator@V?$_Vector_val@PAVAsmCmd@@V?$allocator@PAVAsmCmd@@@std@@@std@@@std@@QBE?AV01@H@Z ; std::_Vector_iterator<std::_Vector_val<AsmCmd *,std::allocator<AsmCmd *> > >::operator+
	mov	DWORD PTR tv141[ebp], eax
	mov	eax, DWORD PTR tv141[ebp]
	mov	DWORD PTR tv134[ebp], eax
	mov	BYTE PTR __$EHRec$[ebp+8], 1
	sub	esp, 12					; 0000000cH
	mov	ecx, esp
	mov	DWORD PTR $T65009[ebp], esp
	mov	edx, DWORD PTR tv134[ebp]
	push	edx
	call	??0?$_Vector_const_iterator@V?$_Vector_val@PAVAsmCmd@@V?$allocator@PAVAsmCmd@@@std@@@std@@@std@@QAE@ABV01@@Z
	mov	DWORD PTR tv137[ebp], eax
	lea	eax, DWORD PTR $T65012[ebp]
	push	eax
	mov	ecx, DWORD PTR _commands$[ebp]
	call	?erase@?$vector@PAVAsmCmd@@V?$allocator@PAVAsmCmd@@@std@@@std@@QAE?AV?$_Vector_iterator@V?$_Vector_val@PAVAsmCmd@@V?$allocator@PAVAsmCmd@@@std@@@std@@@2@V?$_Vector_const_iterator@V?$_Vector_val@PAVAsmCmd@@V?$allocator@PAVAsmCmd@@@std@@@std@@@2@@Z ; std::vector<AsmCmd *,std::allocator<AsmCmd *> >::erase
	mov	DWORD PTR tv138[ebp], eax
	lea	ecx, DWORD PTR $T65012[ebp]
	call	??1?$_Vector_iterator@V?$_Vector_val@PAVAsmCmd@@V?$allocator@PAVAsmCmd@@@std@@@std@@@std@@QAE@XZ
	mov	BYTE PTR __$EHRec$[ebp+8], 0
	lea	ecx, DWORD PTR $T65011[ebp]
	call	??1?$_Vector_iterator@V?$_Vector_val@PAVAsmCmd@@V?$allocator@PAVAsmCmd@@@std@@@std@@@std@@QAE@XZ
	mov	DWORD PTR __$EHRec$[ebp+8], -1
	lea	ecx, DWORD PTR $T65010[ebp]
	call	??1?$_Vector_iterator@V?$_Vector_val@PAVAsmCmd@@V?$allocator@PAVAsmCmd@@@std@@@std@@@std@@QAE@XZ
; Line 95
	mov	ecx, DWORD PTR __$EHRec$[ebp]
	mov	DWORD PTR fs:0, ecx
	pop	ecx
	pop	edi
	pop	esi
	pop	ebx
	add	esp, 316				; 0000013cH
	cmp	ebp, esp
	call	__RTC_CheckEsp
	mov	esp, ebp
	pop	ebp
	ret	8
_TEXT	ENDS
;	COMDAT text$x
text$x	SEGMENT
__unwindfunclet$?MakeOptimization@DeleteSubWithZero@@UAEXPAV?$vector@PAVAsmCmd@@V?$allocator@PAVAsmCmd@@@std@@@std@@AAI@Z$0:
	lea	ecx, DWORD PTR $T65010[ebp]
	jmp	??1?$_Vector_iterator@V?$_Vector_val@PAVAsmCmd@@V?$allocator@PAVAsmCmd@@@std@@@std@@@std@@QAE@XZ
__unwindfunclet$?MakeOptimization@DeleteSubWithZero@@UAEXPAV?$vector@PAVAsmCmd@@V?$allocator@PAVAsmCmd@@@std@@@std@@AAI@Z$1:
	lea	ecx, DWORD PTR $T65011[ebp]
	jmp	??1?$_Vector_iterator@V?$_Vector_val@PAVAsmCmd@@V?$allocator@PAVAsmCmd@@@std@@@std@@@std@@QAE@XZ
__ehhandler$?MakeOptimization@DeleteSubWithZero@@UAEXPAV?$vector@PAVAsmCmd@@V?$allocator@PAVAsmCmd@@@std@@@std@@AAI@Z:
	mov	edx, DWORD PTR [esp+8]
	lea	eax, DWORD PTR [edx+12]
	mov	ecx, DWORD PTR [edx-320]
	xor	ecx, eax
	call	@__security_check_cookie@4
	mov	eax, OFFSET __ehfuncinfo$?MakeOptimization@DeleteSubWithZero@@UAEXPAV?$vector@PAVAsmCmd@@V?$allocator@PAVAsmCmd@@@std@@@std@@AAI@Z
	jmp	___CxxFrameHandler3
text$x	ENDS
?MakeOptimization@DeleteSubWithZero@@UAEXPAV?$vector@PAVAsmCmd@@V?$allocator@PAVAsmCmd@@@std@@@std@@AAI@Z ENDP ; DeleteSubWithZero::MakeOptimization
PUBLIC	??_C@_01HIHLOKLC@1?$AA@				; `string'
;	COMDAT ??_C@_01HIHLOKLC@1?$AA@
CONST	SEGMENT
??_C@_01HIHLOKLC@1?$AA@ DB '1', 00H			; `string'
; Function compile flags: /Odtp /RTCsu /ZI
CONST	ENDS
;	COMDAT ?CanBeApplied@DeleteMultWithOne@@UAE_NPAVAsmCmd@@@Z
_TEXT	SEGMENT
tv90 = -228						; size = 4
tv94 = -221						; size = 1
tv93 = -220						; size = 4
$T65025 = -212						; size = 4
_this$ = -8						; size = 4
_line$ = 8						; size = 4
?CanBeApplied@DeleteMultWithOne@@UAE_NPAVAsmCmd@@@Z PROC ; DeleteMultWithOne::CanBeApplied, COMDAT
; _this$ = ecx
; Line 98
	push	ebp
	mov	ebp, esp
	sub	esp, 228				; 000000e4H
	push	ebx
	push	esi
	push	edi
	push	ecx
	lea	edi, DWORD PTR [ebp-228]
	mov	ecx, 57					; 00000039H
	mov	eax, -858993460				; ccccccccH
	rep stosd
	pop	ecx
	mov	DWORD PTR _this$[ebp], ecx
; Line 99
	mov	eax, DWORD PTR _line$[ebp]
	mov	edx, DWORD PTR [eax]
	mov	esi, esp
	mov	ecx, DWORD PTR _line$[ebp]
	mov	eax, DWORD PTR [edx+20]
	call	eax
	cmp	esi, esp
	call	__RTC_CheckEsp
	movzx	ecx, al
	test	ecx, ecx
	je	SHORT $LN3@CanBeAppli@3
	sub	esp, 32					; 00000020H
	mov	ecx, esp
	mov	DWORD PTR $T65025[ebp], esp
	push	OFFSET ??_C@_01HIHLOKLC@1?$AA@
	call	??0?$basic_string@DU?$char_traits@D@std@@V?$allocator@D@2@@std@@QAE@PBD@Z ; std::basic_string<char,std::char_traits<char>,std::allocator<char> >::basic_string<char,std::char_traits<char>,std::allocator<char> >
	mov	DWORD PTR tv93[ebp], eax
	mov	edx, DWORD PTR _line$[ebp]
	mov	eax, DWORD PTR [edx]
	mov	ecx, DWORD PTR _line$[ebp]
	mov	edx, DWORD PTR [eax+48]
	call	edx
	mov	BYTE PTR tv94[ebp], al
	movzx	eax, BYTE PTR tv94[ebp]
	test	eax, eax
	je	SHORT $LN3@CanBeAppli@3
	mov	DWORD PTR tv90[ebp], 1
	jmp	SHORT $LN4@CanBeAppli@3
$LN3@CanBeAppli@3:
	mov	DWORD PTR tv90[ebp], 0
$LN4@CanBeAppli@3:
	mov	al, BYTE PTR tv90[ebp]
; Line 100
	pop	edi
	pop	esi
	pop	ebx
	add	esp, 228				; 000000e4H
	cmp	ebp, esp
	call	__RTC_CheckEsp
	mov	esp, ebp
	pop	ebp
	ret	4
?CanBeApplied@DeleteMultWithOne@@UAE_NPAVAsmCmd@@@Z ENDP ; DeleteMultWithOne::CanBeApplied
_TEXT	ENDS
;	COMDAT xdata$x
xdata$x	SEGMENT
__unwindtable$?MakeOptimization@DeleteMultWithOne@@UAEXPAV?$vector@PAVAsmCmd@@V?$allocator@PAVAsmCmd@@@std@@@std@@AAI@Z DD 0ffffffffH
	DD	FLAT:__unwindfunclet$?MakeOptimization@DeleteMultWithOne@@UAEXPAV?$vector@PAVAsmCmd@@V?$allocator@PAVAsmCmd@@@std@@@std@@AAI@Z$0
	DD	00H
	DD	FLAT:__unwindfunclet$?MakeOptimization@DeleteMultWithOne@@UAEXPAV?$vector@PAVAsmCmd@@V?$allocator@PAVAsmCmd@@@std@@@std@@AAI@Z$1
__ehfuncinfo$?MakeOptimization@DeleteMultWithOne@@UAEXPAV?$vector@PAVAsmCmd@@V?$allocator@PAVAsmCmd@@@std@@@std@@AAI@Z DD 019930522H
	DD	02H
	DD	FLAT:__unwindtable$?MakeOptimization@DeleteMultWithOne@@UAEXPAV?$vector@PAVAsmCmd@@V?$allocator@PAVAsmCmd@@@std@@@std@@AAI@Z
	DD	2 DUP(00H)
	DD	2 DUP(00H)
	DD	00H
	DD	01H
; Function compile flags: /Odtp /RTCsu /ZI
xdata$x	ENDS
;	COMDAT ?MakeOptimization@DeleteMultWithOne@@UAEXPAV?$vector@PAVAsmCmd@@V?$allocator@PAVAsmCmd@@@std@@@std@@AAI@Z
_TEXT	SEGMENT
tv138 = -316						; size = 4
tv137 = -312						; size = 4
tv134 = -308						; size = 4
tv141 = -304						; size = 4
tv132 = -300						; size = 4
tv140 = -296						; size = 4
tv85 = -292						; size = 4
$T65031 = -284						; size = 4
$T65032 = -272						; size = 12
$T65033 = -252						; size = 12
$T65034 = -232						; size = 12
_this$ = -20						; size = 4
__$EHRec$ = -12						; size = 12
_commands$ = 8						; size = 4
_i$ = 12						; size = 4
?MakeOptimization@DeleteMultWithOne@@UAEXPAV?$vector@PAVAsmCmd@@V?$allocator@PAVAsmCmd@@@std@@@std@@AAI@Z PROC ; DeleteMultWithOne::MakeOptimization, COMDAT
; _this$ = ecx
; Line 103
	push	ebp
	mov	ebp, esp
	push	-1
	push	__ehhandler$?MakeOptimization@DeleteMultWithOne@@UAEXPAV?$vector@PAVAsmCmd@@V?$allocator@PAVAsmCmd@@@std@@@std@@AAI@Z
	mov	eax, DWORD PTR fs:0
	push	eax
	sub	esp, 304				; 00000130H
	push	ebx
	push	esi
	push	edi
	push	ecx
	lea	edi, DWORD PTR [ebp-316]
	mov	ecx, 76					; 0000004cH
	mov	eax, -858993460				; ccccccccH
	rep stosd
	pop	ecx
	mov	eax, DWORD PTR ___security_cookie
	xor	eax, ebp
	push	eax
	lea	eax, DWORD PTR __$EHRec$[ebp]
	mov	DWORD PTR fs:0, eax
	mov	DWORD PTR _this$[ebp], ecx
; Line 104
	mov	eax, DWORD PTR _i$[ebp]
	mov	ecx, DWORD PTR [eax]
	mov	DWORD PTR tv85[ebp], ecx
	mov	edx, DWORD PTR _i$[ebp]
	mov	eax, DWORD PTR [edx]
	sub	eax, 1
	mov	ecx, DWORD PTR _i$[ebp]
	mov	DWORD PTR [ecx], eax
	mov	edx, DWORD PTR tv85[ebp]
	push	edx
	lea	eax, DWORD PTR $T65033[ebp]
	push	eax
	lea	ecx, DWORD PTR $T65032[ebp]
	push	ecx
	mov	ecx, DWORD PTR _commands$[ebp]
	call	?begin@?$vector@PAVAsmCmd@@V?$allocator@PAVAsmCmd@@@std@@@std@@QAE?AV?$_Vector_iterator@V?$_Vector_val@PAVAsmCmd@@V?$allocator@PAVAsmCmd@@@std@@@std@@@2@XZ ; std::vector<AsmCmd *,std::allocator<AsmCmd *> >::begin
	mov	DWORD PTR tv140[ebp], eax
	mov	edx, DWORD PTR tv140[ebp]
	mov	DWORD PTR tv132[ebp], edx
	mov	DWORD PTR __$EHRec$[ebp+8], 0
	mov	ecx, DWORD PTR tv132[ebp]
	call	??H?$_Vector_iterator@V?$_Vector_val@PAVAsmCmd@@V?$allocator@PAVAsmCmd@@@std@@@std@@@std@@QBE?AV01@H@Z ; std::_Vector_iterator<std::_Vector_val<AsmCmd *,std::allocator<AsmCmd *> > >::operator+
	mov	DWORD PTR tv141[ebp], eax
	mov	eax, DWORD PTR tv141[ebp]
	mov	DWORD PTR tv134[ebp], eax
	mov	BYTE PTR __$EHRec$[ebp+8], 1
	sub	esp, 12					; 0000000cH
	mov	ecx, esp
	mov	DWORD PTR $T65031[ebp], esp
	mov	edx, DWORD PTR tv134[ebp]
	push	edx
	call	??0?$_Vector_const_iterator@V?$_Vector_val@PAVAsmCmd@@V?$allocator@PAVAsmCmd@@@std@@@std@@@std@@QAE@ABV01@@Z
	mov	DWORD PTR tv137[ebp], eax
	lea	eax, DWORD PTR $T65034[ebp]
	push	eax
	mov	ecx, DWORD PTR _commands$[ebp]
	call	?erase@?$vector@PAVAsmCmd@@V?$allocator@PAVAsmCmd@@@std@@@std@@QAE?AV?$_Vector_iterator@V?$_Vector_val@PAVAsmCmd@@V?$allocator@PAVAsmCmd@@@std@@@std@@@2@V?$_Vector_const_iterator@V?$_Vector_val@PAVAsmCmd@@V?$allocator@PAVAsmCmd@@@std@@@std@@@2@@Z ; std::vector<AsmCmd *,std::allocator<AsmCmd *> >::erase
	mov	DWORD PTR tv138[ebp], eax
	lea	ecx, DWORD PTR $T65034[ebp]
	call	??1?$_Vector_iterator@V?$_Vector_val@PAVAsmCmd@@V?$allocator@PAVAsmCmd@@@std@@@std@@@std@@QAE@XZ
	mov	BYTE PTR __$EHRec$[ebp+8], 0
	lea	ecx, DWORD PTR $T65033[ebp]
	call	??1?$_Vector_iterator@V?$_Vector_val@PAVAsmCmd@@V?$allocator@PAVAsmCmd@@@std@@@std@@@std@@QAE@XZ
	mov	DWORD PTR __$EHRec$[ebp+8], -1
	lea	ecx, DWORD PTR $T65032[ebp]
	call	??1?$_Vector_iterator@V?$_Vector_val@PAVAsmCmd@@V?$allocator@PAVAsmCmd@@@std@@@std@@@std@@QAE@XZ
; Line 105
	mov	ecx, DWORD PTR __$EHRec$[ebp]
	mov	DWORD PTR fs:0, ecx
	pop	ecx
	pop	edi
	pop	esi
	pop	ebx
	add	esp, 316				; 0000013cH
	cmp	ebp, esp
	call	__RTC_CheckEsp
	mov	esp, ebp
	pop	ebp
	ret	8
_TEXT	ENDS
;	COMDAT text$x
text$x	SEGMENT
__unwindfunclet$?MakeOptimization@DeleteMultWithOne@@UAEXPAV?$vector@PAVAsmCmd@@V?$allocator@PAVAsmCmd@@@std@@@std@@AAI@Z$0:
	lea	ecx, DWORD PTR $T65032[ebp]
	jmp	??1?$_Vector_iterator@V?$_Vector_val@PAVAsmCmd@@V?$allocator@PAVAsmCmd@@@std@@@std@@@std@@QAE@XZ
__unwindfunclet$?MakeOptimization@DeleteMultWithOne@@UAEXPAV?$vector@PAVAsmCmd@@V?$allocator@PAVAsmCmd@@@std@@@std@@AAI@Z$1:
	lea	ecx, DWORD PTR $T65033[ebp]
	jmp	??1?$_Vector_iterator@V?$_Vector_val@PAVAsmCmd@@V?$allocator@PAVAsmCmd@@@std@@@std@@@std@@QAE@XZ
__ehhandler$?MakeOptimization@DeleteMultWithOne@@UAEXPAV?$vector@PAVAsmCmd@@V?$allocator@PAVAsmCmd@@@std@@@std@@AAI@Z:
	mov	edx, DWORD PTR [esp+8]
	lea	eax, DWORD PTR [edx+12]
	mov	ecx, DWORD PTR [edx-320]
	xor	ecx, eax
	call	@__security_check_cookie@4
	mov	eax, OFFSET __ehfuncinfo$?MakeOptimization@DeleteMultWithOne@@UAEXPAV?$vector@PAVAsmCmd@@V?$allocator@PAVAsmCmd@@@std@@@std@@AAI@Z
	jmp	___CxxFrameHandler3
text$x	ENDS
?MakeOptimization@DeleteMultWithOne@@UAEXPAV?$vector@PAVAsmCmd@@V?$allocator@PAVAsmCmd@@@std@@@std@@AAI@Z ENDP ; DeleteMultWithOne::MakeOptimization
; Function compile flags: /Odtp /RTCsu /ZI
;	COMDAT ?CanBeApplied@ReplaceCDQ@@UAE_NPAVAsmCmd@@@Z
_TEXT	SEGMENT
_this$ = -8						; size = 4
_line$ = 8						; size = 4
?CanBeApplied@ReplaceCDQ@@UAE_NPAVAsmCmd@@@Z PROC	; ReplaceCDQ::CanBeApplied, COMDAT
; _this$ = ecx
; Line 108
	push	ebp
	mov	ebp, esp
	sub	esp, 204				; 000000ccH
	push	ebx
	push	esi
	push	edi
	push	ecx
	lea	edi, DWORD PTR [ebp-204]
	mov	ecx, 51					; 00000033H
	mov	eax, -858993460				; ccccccccH
	rep stosd
	pop	ecx
	mov	DWORD PTR _this$[ebp], ecx
; Line 109
	mov	eax, DWORD PTR _line$[ebp]
	mov	edx, DWORD PTR [eax]
	mov	esi, esp
	mov	ecx, DWORD PTR _line$[ebp]
	mov	eax, DWORD PTR [edx+24]
	call	eax
	cmp	esi, esp
	call	__RTC_CheckEsp
; Line 110
	pop	edi
	pop	esi
	pop	ebx
	add	esp, 204				; 000000ccH
	cmp	ebp, esp
	call	__RTC_CheckEsp
	mov	esp, ebp
	pop	ebp
	ret	4
?CanBeApplied@ReplaceCDQ@@UAE_NPAVAsmCmd@@@Z ENDP	; ReplaceCDQ::CanBeApplied
_TEXT	ENDS
PUBLIC	??0AsmCmd2@@QAE@W4OPCODE@@W4REG@@V?$basic_string@DU?$char_traits@D@std@@V?$allocator@D@2@@std@@@Z ; AsmCmd2::AsmCmd2
PUBLIC	??_C@_02OAMOHKJG@31?$AA@			; `string'
PUBLIC	??$insert@PAVAsmCmd2@@@?$vector@PAVAsmCmd@@V?$allocator@PAVAsmCmd@@@std@@@std@@QAE?AV?$_Vector_iterator@V?$_Vector_val@PAVAsmCmd@@V?$allocator@PAVAsmCmd@@@std@@@std@@@1@V?$_Vector_const_iterator@V?$_Vector_val@PAVAsmCmd@@V?$allocator@PAVAsmCmd@@@std@@@std@@@1@$$QAPAVAsmCmd2@@@Z ; std::vector<AsmCmd *,std::allocator<AsmCmd *> >::insert<AsmCmd2 *>
PUBLIC	??0AsmCmd2@@QAE@W4OPCODE@@W4REG@@1@Z		; AsmCmd2::AsmCmd2
EXTRN	??3@YAXPAX@Z:PROC				; operator delete
;	COMDAT ??_C@_02OAMOHKJG@31?$AA@
CONST	SEGMENT
??_C@_02OAMOHKJG@31?$AA@ DB '31', 00H			; `string'
CONST	ENDS
;	COMDAT xdata$x
xdata$x	SEGMENT
__ehfuncinfo$?MakeOptimization@ReplaceCDQ@@UAEXPAV?$vector@PAVAsmCmd@@V?$allocator@PAVAsmCmd@@@std@@@std@@AAI@Z DD 019930522H
	DD	08H
	DD	FLAT:__unwindtable$?MakeOptimization@ReplaceCDQ@@UAEXPAV?$vector@PAVAsmCmd@@V?$allocator@PAVAsmCmd@@@std@@@std@@AAI@Z
	DD	2 DUP(00H)
	DD	2 DUP(00H)
	DD	00H
	DD	01H
__unwindtable$?MakeOptimization@ReplaceCDQ@@UAEXPAV?$vector@PAVAsmCmd@@V?$allocator@PAVAsmCmd@@@std@@@std@@AAI@Z DD 0ffffffffH
	DD	FLAT:__unwindfunclet$?MakeOptimization@ReplaceCDQ@@UAEXPAV?$vector@PAVAsmCmd@@V?$allocator@PAVAsmCmd@@@std@@@std@@AAI@Z$0
	DD	0ffffffffH
	DD	FLAT:__unwindfunclet$?MakeOptimization@ReplaceCDQ@@UAEXPAV?$vector@PAVAsmCmd@@V?$allocator@PAVAsmCmd@@@std@@@std@@AAI@Z$1
	DD	01H
	DD	FLAT:__unwindfunclet$?MakeOptimization@ReplaceCDQ@@UAEXPAV?$vector@PAVAsmCmd@@V?$allocator@PAVAsmCmd@@@std@@@std@@AAI@Z$2
	DD	0ffffffffH
	DD	FLAT:__unwindfunclet$?MakeOptimization@ReplaceCDQ@@UAEXPAV?$vector@PAVAsmCmd@@V?$allocator@PAVAsmCmd@@@std@@@std@@AAI@Z$5
	DD	0ffffffffH
	DD	FLAT:__unwindfunclet$?MakeOptimization@ReplaceCDQ@@UAEXPAV?$vector@PAVAsmCmd@@V?$allocator@PAVAsmCmd@@@std@@@std@@AAI@Z$7
	DD	04H
	DD	FLAT:__unwindfunclet$?MakeOptimization@ReplaceCDQ@@UAEXPAV?$vector@PAVAsmCmd@@V?$allocator@PAVAsmCmd@@@std@@@std@@AAI@Z$8
	DD	0ffffffffH
	DD	FLAT:__unwindfunclet$?MakeOptimization@ReplaceCDQ@@UAEXPAV?$vector@PAVAsmCmd@@V?$allocator@PAVAsmCmd@@@std@@@std@@AAI@Z$11
	DD	06H
	DD	FLAT:__unwindfunclet$?MakeOptimization@ReplaceCDQ@@UAEXPAV?$vector@PAVAsmCmd@@V?$allocator@PAVAsmCmd@@@std@@@std@@AAI@Z$12
; Function compile flags: /Odtp /RTCsu /ZI
xdata$x	ENDS
;	COMDAT ?MakeOptimization@ReplaceCDQ@@UAEXPAV?$vector@PAVAsmCmd@@V?$allocator@PAVAsmCmd@@@std@@@std@@AAI@Z
_TEXT	SEGMENT
tv259 = -556						; size = 4
tv258 = -552						; size = 4
tv254 = -548						; size = 4
tv245 = -548						; size = 4
tv275 = -544						; size = 4
tv268 = -544						; size = 4
tv244 = -544						; size = 4
tv267 = -540						; size = 4
tv252 = -540						; size = 4
tv240 = -540						; size = 4
tv274 = -536						; size = 4
tv272 = -536						; size = 4
tv264 = -536						; size = 4
tv277 = -532						; size = 4
tv238 = -532						; size = 4
tv187 = -532						; size = 4
tv271 = -528						; size = 4
tv262 = -528						; size = 4
tv167 = -528						; size = 4
tv276 = -524						; size = 4
tv250 = -524						; size = 4
tv128 = -524						; size = 4
tv249 = -520						; size = 4
tv222 = -520						; size = 4
tv76 = -520						; size = 4
$T65049 = -512						; size = 4
$T65050 = -500						; size = 4
$T65051 = -488						; size = 4
$T65054 = -476						; size = 4
$T65055 = -464						; size = 12
$T65056 = -444						; size = 12
$T65057 = -424						; size = 12
$T65058 = -404						; size = 4
$T65059 = -392						; size = 4
$T65060 = -380						; size = 4
$T65061 = -368						; size = 4
$T65064 = -356						; size = 4
$T65065 = -344						; size = 12
$T65066 = -324						; size = 12
$T65067 = -304						; size = 12
$T65068 = -284						; size = 4
$T65069 = -272						; size = 12
$T65070 = -252						; size = 12
$T65071 = -232						; size = 12
_this$ = -20						; size = 4
__$EHRec$ = -12						; size = 12
_commands$ = 8						; size = 4
_i$ = 12						; size = 4
?MakeOptimization@ReplaceCDQ@@UAEXPAV?$vector@PAVAsmCmd@@V?$allocator@PAVAsmCmd@@@std@@@std@@AAI@Z PROC ; ReplaceCDQ::MakeOptimization, COMDAT
; _this$ = ecx
; Line 113
	push	ebp
	mov	ebp, esp
	push	-1
	push	__ehhandler$?MakeOptimization@ReplaceCDQ@@UAEXPAV?$vector@PAVAsmCmd@@V?$allocator@PAVAsmCmd@@@std@@@std@@AAI@Z
	mov	eax, DWORD PTR fs:0
	push	eax
	sub	esp, 544				; 00000220H
	push	ebx
	push	esi
	push	edi
	push	ecx
	lea	edi, DWORD PTR [ebp-556]
	mov	ecx, 136				; 00000088H
	mov	eax, -858993460				; ccccccccH
	rep stosd
	pop	ecx
	mov	eax, DWORD PTR ___security_cookie
	xor	eax, ebp
	push	eax
	lea	eax, DWORD PTR __$EHRec$[ebp]
	mov	DWORD PTR fs:0, eax
	mov	DWORD PTR _this$[ebp], ecx
; Line 114
	push	112					; 00000070H
	call	??2@YAPAXI@Z				; operator new
	add	esp, 4
	mov	DWORD PTR $T65051[ebp], eax
	mov	DWORD PTR __$EHRec$[ebp+8], 0
	cmp	DWORD PTR $T65051[ebp], 0
	je	SHORT $LN3@MakeOptimi
	push	0
	push	3
	push	7
	mov	ecx, DWORD PTR $T65051[ebp]
	call	??0AsmCmd2@@QAE@W4OPCODE@@W4REG@@1@Z	; AsmCmd2::AsmCmd2
	mov	DWORD PTR tv76[ebp], eax
	jmp	SHORT $LN4@MakeOptimi
$LN3@MakeOptimi:
	mov	DWORD PTR tv76[ebp], 0
$LN4@MakeOptimi:
	mov	eax, DWORD PTR tv76[ebp]
	mov	DWORD PTR $T65050[ebp], eax
	mov	DWORD PTR __$EHRec$[ebp+8], -1
	mov	ecx, DWORD PTR $T65050[ebp]
	mov	DWORD PTR $T65049[ebp], ecx
	mov	edx, DWORD PTR _i$[ebp]
	mov	eax, DWORD PTR [edx]
	mov	DWORD PTR tv128[ebp], eax
	mov	ecx, DWORD PTR _i$[ebp]
	mov	edx, DWORD PTR [ecx]
	add	edx, 1
	mov	eax, DWORD PTR _i$[ebp]
	mov	DWORD PTR [eax], edx
	lea	ecx, DWORD PTR $T65049[ebp]
	push	ecx
	mov	edx, DWORD PTR tv128[ebp]
	push	edx
	lea	eax, DWORD PTR $T65056[ebp]
	push	eax
	lea	ecx, DWORD PTR $T65055[ebp]
	push	ecx
	mov	ecx, DWORD PTR _commands$[ebp]
	call	?begin@?$vector@PAVAsmCmd@@V?$allocator@PAVAsmCmd@@@std@@@std@@QAE?AV?$_Vector_iterator@V?$_Vector_val@PAVAsmCmd@@V?$allocator@PAVAsmCmd@@@std@@@std@@@2@XZ ; std::vector<AsmCmd *,std::allocator<AsmCmd *> >::begin
	mov	DWORD PTR tv271[ebp], eax
	mov	edx, DWORD PTR tv271[ebp]
	mov	DWORD PTR tv238[ebp], edx
	mov	DWORD PTR __$EHRec$[ebp+8], 1
	mov	ecx, DWORD PTR tv238[ebp]
	call	??H?$_Vector_iterator@V?$_Vector_val@PAVAsmCmd@@V?$allocator@PAVAsmCmd@@@std@@@std@@@std@@QBE?AV01@H@Z ; std::_Vector_iterator<std::_Vector_val<AsmCmd *,std::allocator<AsmCmd *> > >::operator+
	mov	DWORD PTR tv272[ebp], eax
	mov	eax, DWORD PTR tv272[ebp]
	mov	DWORD PTR tv240[ebp], eax
	mov	BYTE PTR __$EHRec$[ebp+8], 2
	sub	esp, 12					; 0000000cH
	mov	ecx, esp
	mov	DWORD PTR $T65054[ebp], esp
	mov	edx, DWORD PTR tv240[ebp]
	push	edx
	call	??0?$_Vector_const_iterator@V?$_Vector_val@PAVAsmCmd@@V?$allocator@PAVAsmCmd@@@std@@@std@@@std@@QAE@ABV01@@Z
	mov	DWORD PTR tv244[ebp], eax
	lea	eax, DWORD PTR $T65057[ebp]
	push	eax
	mov	ecx, DWORD PTR _commands$[ebp]
	call	??$insert@PAVAsmCmd2@@@?$vector@PAVAsmCmd@@V?$allocator@PAVAsmCmd@@@std@@@std@@QAE?AV?$_Vector_iterator@V?$_Vector_val@PAVAsmCmd@@V?$allocator@PAVAsmCmd@@@std@@@std@@@1@V?$_Vector_const_iterator@V?$_Vector_val@PAVAsmCmd@@V?$allocator@PAVAsmCmd@@@std@@@std@@@1@$$QAPAVAsmCmd2@@@Z ; std::vector<AsmCmd *,std::allocator<AsmCmd *> >::insert<AsmCmd2 *>
	mov	DWORD PTR tv245[ebp], eax
	lea	ecx, DWORD PTR $T65057[ebp]
	call	??1?$_Vector_iterator@V?$_Vector_val@PAVAsmCmd@@V?$allocator@PAVAsmCmd@@@std@@@std@@@std@@QAE@XZ
	mov	BYTE PTR __$EHRec$[ebp+8], 1
	lea	ecx, DWORD PTR $T65056[ebp]
	call	??1?$_Vector_iterator@V?$_Vector_val@PAVAsmCmd@@V?$allocator@PAVAsmCmd@@@std@@@std@@@std@@QAE@XZ
	mov	DWORD PTR __$EHRec$[ebp+8], -1
	lea	ecx, DWORD PTR $T65055[ebp]
	call	??1?$_Vector_iterator@V?$_Vector_val@PAVAsmCmd@@V?$allocator@PAVAsmCmd@@@std@@@std@@@std@@QAE@XZ
; Line 115
	push	112					; 00000070H
	call	??2@YAPAXI@Z				; operator new
	add	esp, 4
	mov	DWORD PTR $T65060[ebp], eax
	mov	DWORD PTR __$EHRec$[ebp+8], 3
	cmp	DWORD PTR $T65060[ebp], 0
	je	SHORT $LN5@MakeOptimi
	sub	esp, 32					; 00000020H
	mov	ecx, esp
	mov	DWORD PTR $T65061[ebp], esp
	push	OFFSET ??_C@_02OAMOHKJG@31?$AA@
	call	??0?$basic_string@DU?$char_traits@D@std@@V?$allocator@D@2@@std@@QAE@PBD@Z ; std::basic_string<char,std::char_traits<char>,std::allocator<char> >::basic_string<char,std::char_traits<char>,std::allocator<char> >
	mov	DWORD PTR tv249[ebp], eax
	push	3
	push	50					; 00000032H
	mov	ecx, DWORD PTR $T65060[ebp]
	call	??0AsmCmd2@@QAE@W4OPCODE@@W4REG@@V?$basic_string@DU?$char_traits@D@std@@V?$allocator@D@2@@std@@@Z ; AsmCmd2::AsmCmd2
	mov	DWORD PTR tv250[ebp], eax
	mov	eax, DWORD PTR tv250[ebp]
	mov	DWORD PTR tv167[ebp], eax
	jmp	SHORT $LN6@MakeOptimi
$LN5@MakeOptimi:
	mov	DWORD PTR tv167[ebp], 0
$LN6@MakeOptimi:
	mov	ecx, DWORD PTR tv167[ebp]
	mov	DWORD PTR $T65059[ebp], ecx
	mov	DWORD PTR __$EHRec$[ebp+8], -1
	mov	edx, DWORD PTR $T65059[ebp]
	mov	DWORD PTR $T65058[ebp], edx
	mov	eax, DWORD PTR _i$[ebp]
	mov	ecx, DWORD PTR [eax]
	mov	DWORD PTR tv187[ebp], ecx
	mov	edx, DWORD PTR _i$[ebp]
	mov	eax, DWORD PTR [edx]
	add	eax, 1
	mov	ecx, DWORD PTR _i$[ebp]
	mov	DWORD PTR [ecx], eax
	lea	edx, DWORD PTR $T65058[ebp]
	push	edx
	mov	eax, DWORD PTR tv187[ebp]
	push	eax
	lea	ecx, DWORD PTR $T65066[ebp]
	push	ecx
	lea	edx, DWORD PTR $T65065[ebp]
	push	edx
	mov	ecx, DWORD PTR _commands$[ebp]
	call	?begin@?$vector@PAVAsmCmd@@V?$allocator@PAVAsmCmd@@@std@@@std@@QAE?AV?$_Vector_iterator@V?$_Vector_val@PAVAsmCmd@@V?$allocator@PAVAsmCmd@@@std@@@std@@@2@XZ ; std::vector<AsmCmd *,std::allocator<AsmCmd *> >::begin
	mov	DWORD PTR tv274[ebp], eax
	mov	eax, DWORD PTR tv274[ebp]
	mov	DWORD PTR tv252[ebp], eax
	mov	DWORD PTR __$EHRec$[ebp+8], 4
	mov	ecx, DWORD PTR tv252[ebp]
	call	??H?$_Vector_iterator@V?$_Vector_val@PAVAsmCmd@@V?$allocator@PAVAsmCmd@@@std@@@std@@@std@@QBE?AV01@H@Z ; std::_Vector_iterator<std::_Vector_val<AsmCmd *,std::allocator<AsmCmd *> > >::operator+
	mov	DWORD PTR tv275[ebp], eax
	mov	ecx, DWORD PTR tv275[ebp]
	mov	DWORD PTR tv254[ebp], ecx
	mov	BYTE PTR __$EHRec$[ebp+8], 5
	sub	esp, 12					; 0000000cH
	mov	ecx, esp
	mov	DWORD PTR $T65064[ebp], esp
	mov	edx, DWORD PTR tv254[ebp]
	push	edx
	call	??0?$_Vector_const_iterator@V?$_Vector_val@PAVAsmCmd@@V?$allocator@PAVAsmCmd@@@std@@@std@@@std@@QAE@ABV01@@Z
	mov	DWORD PTR tv258[ebp], eax
	lea	eax, DWORD PTR $T65067[ebp]
	push	eax
	mov	ecx, DWORD PTR _commands$[ebp]
	call	??$insert@PAVAsmCmd2@@@?$vector@PAVAsmCmd@@V?$allocator@PAVAsmCmd@@@std@@@std@@QAE?AV?$_Vector_iterator@V?$_Vector_val@PAVAsmCmd@@V?$allocator@PAVAsmCmd@@@std@@@std@@@1@V?$_Vector_const_iterator@V?$_Vector_val@PAVAsmCmd@@V?$allocator@PAVAsmCmd@@@std@@@std@@@1@$$QAPAVAsmCmd2@@@Z ; std::vector<AsmCmd *,std::allocator<AsmCmd *> >::insert<AsmCmd2 *>
	mov	DWORD PTR tv259[ebp], eax
	lea	ecx, DWORD PTR $T65067[ebp]
	call	??1?$_Vector_iterator@V?$_Vector_val@PAVAsmCmd@@V?$allocator@PAVAsmCmd@@@std@@@std@@@std@@QAE@XZ
	mov	BYTE PTR __$EHRec$[ebp+8], 4
	lea	ecx, DWORD PTR $T65066[ebp]
	call	??1?$_Vector_iterator@V?$_Vector_val@PAVAsmCmd@@V?$allocator@PAVAsmCmd@@@std@@@std@@@std@@QAE@XZ
	mov	DWORD PTR __$EHRec$[ebp+8], -1
	lea	ecx, DWORD PTR $T65065[ebp]
	call	??1?$_Vector_iterator@V?$_Vector_val@PAVAsmCmd@@V?$allocator@PAVAsmCmd@@@std@@@std@@@std@@QAE@XZ
; Line 116
	mov	eax, DWORD PTR _i$[ebp]
	mov	ecx, DWORD PTR [eax]
	mov	DWORD PTR tv222[ebp], ecx
	mov	edx, DWORD PTR _i$[ebp]
	mov	eax, DWORD PTR [edx]
	sub	eax, 1
	mov	ecx, DWORD PTR _i$[ebp]
	mov	DWORD PTR [ecx], eax
	mov	edx, DWORD PTR tv222[ebp]
	push	edx
	lea	eax, DWORD PTR $T65070[ebp]
	push	eax
	lea	ecx, DWORD PTR $T65069[ebp]
	push	ecx
	mov	ecx, DWORD PTR _commands$[ebp]
	call	?begin@?$vector@PAVAsmCmd@@V?$allocator@PAVAsmCmd@@@std@@@std@@QAE?AV?$_Vector_iterator@V?$_Vector_val@PAVAsmCmd@@V?$allocator@PAVAsmCmd@@@std@@@std@@@2@XZ ; std::vector<AsmCmd *,std::allocator<AsmCmd *> >::begin
	mov	DWORD PTR tv276[ebp], eax
	mov	edx, DWORD PTR tv276[ebp]
	mov	DWORD PTR tv262[ebp], edx
	mov	DWORD PTR __$EHRec$[ebp+8], 6
	mov	ecx, DWORD PTR tv262[ebp]
	call	??H?$_Vector_iterator@V?$_Vector_val@PAVAsmCmd@@V?$allocator@PAVAsmCmd@@@std@@@std@@@std@@QBE?AV01@H@Z ; std::_Vector_iterator<std::_Vector_val<AsmCmd *,std::allocator<AsmCmd *> > >::operator+
	mov	DWORD PTR tv277[ebp], eax
	mov	eax, DWORD PTR tv277[ebp]
	mov	DWORD PTR tv264[ebp], eax
	mov	BYTE PTR __$EHRec$[ebp+8], 7
	sub	esp, 12					; 0000000cH
	mov	ecx, esp
	mov	DWORD PTR $T65068[ebp], esp
	mov	edx, DWORD PTR tv264[ebp]
	push	edx
	call	??0?$_Vector_const_iterator@V?$_Vector_val@PAVAsmCmd@@V?$allocator@PAVAsmCmd@@@std@@@std@@@std@@QAE@ABV01@@Z
	mov	DWORD PTR tv267[ebp], eax
	lea	eax, DWORD PTR $T65071[ebp]
	push	eax
	mov	ecx, DWORD PTR _commands$[ebp]
	call	?erase@?$vector@PAVAsmCmd@@V?$allocator@PAVAsmCmd@@@std@@@std@@QAE?AV?$_Vector_iterator@V?$_Vector_val@PAVAsmCmd@@V?$allocator@PAVAsmCmd@@@std@@@std@@@2@V?$_Vector_const_iterator@V?$_Vector_val@PAVAsmCmd@@V?$allocator@PAVAsmCmd@@@std@@@std@@@2@@Z ; std::vector<AsmCmd *,std::allocator<AsmCmd *> >::erase
	mov	DWORD PTR tv268[ebp], eax
	lea	ecx, DWORD PTR $T65071[ebp]
	call	??1?$_Vector_iterator@V?$_Vector_val@PAVAsmCmd@@V?$allocator@PAVAsmCmd@@@std@@@std@@@std@@QAE@XZ
	mov	BYTE PTR __$EHRec$[ebp+8], 6
	lea	ecx, DWORD PTR $T65070[ebp]
	call	??1?$_Vector_iterator@V?$_Vector_val@PAVAsmCmd@@V?$allocator@PAVAsmCmd@@@std@@@std@@@std@@QAE@XZ
	mov	DWORD PTR __$EHRec$[ebp+8], -1
	lea	ecx, DWORD PTR $T65069[ebp]
	call	??1?$_Vector_iterator@V?$_Vector_val@PAVAsmCmd@@V?$allocator@PAVAsmCmd@@@std@@@std@@@std@@QAE@XZ
; Line 117
	mov	ecx, DWORD PTR __$EHRec$[ebp]
	mov	DWORD PTR fs:0, ecx
	pop	ecx
	pop	edi
	pop	esi
	pop	ebx
	add	esp, 556				; 0000022cH
	cmp	ebp, esp
	call	__RTC_CheckEsp
	mov	esp, ebp
	pop	ebp
	ret	8
_TEXT	ENDS
;	COMDAT text$x
text$x	SEGMENT
__unwindfunclet$?MakeOptimization@ReplaceCDQ@@UAEXPAV?$vector@PAVAsmCmd@@V?$allocator@PAVAsmCmd@@@std@@@std@@AAI@Z$0:
	mov	eax, DWORD PTR $T65051[ebp]
	push	eax
	call	??3@YAXPAX@Z				; operator delete
	pop	ecx
	ret	0
__unwindfunclet$?MakeOptimization@ReplaceCDQ@@UAEXPAV?$vector@PAVAsmCmd@@V?$allocator@PAVAsmCmd@@@std@@@std@@AAI@Z$1:
	lea	ecx, DWORD PTR $T65055[ebp]
	jmp	??1?$_Vector_iterator@V?$_Vector_val@PAVAsmCmd@@V?$allocator@PAVAsmCmd@@@std@@@std@@@std@@QAE@XZ
__unwindfunclet$?MakeOptimization@ReplaceCDQ@@UAEXPAV?$vector@PAVAsmCmd@@V?$allocator@PAVAsmCmd@@@std@@@std@@AAI@Z$2:
	lea	ecx, DWORD PTR $T65056[ebp]
	jmp	??1?$_Vector_iterator@V?$_Vector_val@PAVAsmCmd@@V?$allocator@PAVAsmCmd@@@std@@@std@@@std@@QAE@XZ
__unwindfunclet$?MakeOptimization@ReplaceCDQ@@UAEXPAV?$vector@PAVAsmCmd@@V?$allocator@PAVAsmCmd@@@std@@@std@@AAI@Z$5:
	mov	eax, DWORD PTR $T65060[ebp]
	push	eax
	call	??3@YAXPAX@Z				; operator delete
	pop	ecx
	ret	0
__unwindfunclet$?MakeOptimization@ReplaceCDQ@@UAEXPAV?$vector@PAVAsmCmd@@V?$allocator@PAVAsmCmd@@@std@@@std@@AAI@Z$7:
	lea	ecx, DWORD PTR $T65065[ebp]
	jmp	??1?$_Vector_iterator@V?$_Vector_val@PAVAsmCmd@@V?$allocator@PAVAsmCmd@@@std@@@std@@@std@@QAE@XZ
__unwindfunclet$?MakeOptimization@ReplaceCDQ@@UAEXPAV?$vector@PAVAsmCmd@@V?$allocator@PAVAsmCmd@@@std@@@std@@AAI@Z$8:
	lea	ecx, DWORD PTR $T65066[ebp]
	jmp	??1?$_Vector_iterator@V?$_Vector_val@PAVAsmCmd@@V?$allocator@PAVAsmCmd@@@std@@@std@@@std@@QAE@XZ
__unwindfunclet$?MakeOptimization@ReplaceCDQ@@UAEXPAV?$vector@PAVAsmCmd@@V?$allocator@PAVAsmCmd@@@std@@@std@@AAI@Z$11:
	lea	ecx, DWORD PTR $T65069[ebp]
	jmp	??1?$_Vector_iterator@V?$_Vector_val@PAVAsmCmd@@V?$allocator@PAVAsmCmd@@@std@@@std@@@std@@QAE@XZ
__unwindfunclet$?MakeOptimization@ReplaceCDQ@@UAEXPAV?$vector@PAVAsmCmd@@V?$allocator@PAVAsmCmd@@@std@@@std@@AAI@Z$12:
	lea	ecx, DWORD PTR $T65070[ebp]
	jmp	??1?$_Vector_iterator@V?$_Vector_val@PAVAsmCmd@@V?$allocator@PAVAsmCmd@@@std@@@std@@@std@@QAE@XZ
__ehhandler$?MakeOptimization@ReplaceCDQ@@UAEXPAV?$vector@PAVAsmCmd@@V?$allocator@PAVAsmCmd@@@std@@@std@@AAI@Z:
	mov	edx, DWORD PTR [esp+8]
	lea	eax, DWORD PTR [edx+12]
	mov	ecx, DWORD PTR [edx-560]
	xor	ecx, eax
	call	@__security_check_cookie@4
	mov	eax, OFFSET __ehfuncinfo$?MakeOptimization@ReplaceCDQ@@UAEXPAV?$vector@PAVAsmCmd@@V?$allocator@PAVAsmCmd@@@std@@@std@@AAI@Z
	jmp	___CxxFrameHandler3
text$x	ENDS
?MakeOptimization@ReplaceCDQ@@UAEXPAV?$vector@PAVAsmCmd@@V?$allocator@PAVAsmCmd@@@std@@@std@@AAI@Z ENDP ; ReplaceCDQ::MakeOptimization
PUBLIC	??1?$basic_string@DU?$char_traits@D@std@@V?$allocator@D@2@@std@@QAE@XZ ; std::basic_string<char,std::char_traits<char>,std::allocator<char> >::~basic_string<char,std::char_traits<char>,std::allocator<char> >
PUBLIC	??1AsmCmd1@@QAE@XZ				; AsmCmd1::~AsmCmd1
PUBLIC	??0?$basic_string@DU?$char_traits@D@std@@V?$allocator@D@2@@std@@QAE@XZ ; std::basic_string<char,std::char_traits<char>,std::allocator<char> >::basic_string<char,std::char_traits<char>,std::allocator<char> >
PUBLIC	??_C@_00CNPNBAHC@?$AA@				; `string'
PUBLIC	??_7AsmCmd2@@6B@				; AsmCmd2::`vftable'
PUBLIC	??0AsmCmd1@@QAE@W4OPCODE@@W4REG@@@Z		; AsmCmd1::AsmCmd1
PUBLIC	??_R4AsmCmd2@@6B@				; AsmCmd2::`RTTI Complete Object Locator'
PUBLIC	??_R0?AVAsmCmd2@@@8				; AsmCmd2 `RTTI Type Descriptor'
PUBLIC	??_R3AsmCmd2@@8					; AsmCmd2::`RTTI Class Hierarchy Descriptor'
PUBLIC	??_R2AsmCmd2@@8					; AsmCmd2::`RTTI Base Class Array'
PUBLIC	??_R1A@?0A@EA@AsmCmd2@@8			; AsmCmd2::`RTTI Base Class Descriptor at (0,-1,0,64)'
PUBLIC	??_R1A@?0A@EA@AsmCmd1@@8			; AsmCmd1::`RTTI Base Class Descriptor at (0,-1,0,64)'
PUBLIC	??_R0?AVAsmCmd1@@@8				; AsmCmd1 `RTTI Type Descriptor'
PUBLIC	??_R3AsmCmd1@@8					; AsmCmd1::`RTTI Class Hierarchy Descriptor'
PUBLIC	??_R2AsmCmd1@@8					; AsmCmd1::`RTTI Base Class Array'
PUBLIC	??_R1A@?0A@EA@AsmCmd@@8				; AsmCmd::`RTTI Base Class Descriptor at (0,-1,0,64)'
PUBLIC	??_R0?AVAsmCmd@@@8				; AsmCmd `RTTI Type Descriptor'
PUBLIC	??_R3AsmCmd@@8					; AsmCmd::`RTTI Class Hierarchy Descriptor'
PUBLIC	??_R2AsmCmd@@8					; AsmCmd::`RTTI Base Class Array'
PUBLIC	?AsmCmd1Test@AsmCmd1@@UAE_NXZ			; AsmCmd1::AsmCmd1Test
PUBLIC	?AsmCmd2Test@AsmCmd2@@UAE_NXZ			; AsmCmd2::AsmCmd2Test
PUBLIC	?OP_ADD_Test@AsmCmd@@UAE_NXZ			; AsmCmd::OP_ADD_Test
PUBLIC	?OP_SUB_Test@AsmCmd@@UAE_NXZ			; AsmCmd::OP_SUB_Test
PUBLIC	?OP_IMUL_Test@AsmCmd@@UAE_NXZ			; AsmCmd::OP_IMUL_Test
PUBLIC	?OP_CDQ_Test@AsmCmd@@UAE_NXZ			; AsmCmd::OP_CDQ_Test
PUBLIC	?OP_NEG_Test@AsmCmd@@UAE_NXZ			; AsmCmd::OP_NEG_Test
PUBLIC	?OP_MOV_Test@AsmCmd@@UAE_NXZ			; AsmCmd::OP_MOV_Test
PUBLIC	?OP_CMP_Test@AsmCmd@@UAE_NXZ			; AsmCmd::OP_CMP_Test
PUBLIC	?OP_PUSH_Test@AsmCmd@@UAE_NXZ			; AsmCmd::OP_PUSH_Test
PUBLIC	?OP_POP_Test@AsmCmd@@UAE_NXZ			; AsmCmd::OP_POP_Test
PUBLIC	?TestRightOp@AsmCmd2@@UAE_NV?$basic_string@DU?$char_traits@D@std@@V?$allocator@D@2@@std@@@Z ; AsmCmd2::TestRightOp
PUBLIC	?GetRightStringOp@AsmCmd2@@UAE?AV?$basic_string@DU?$char_traits@D@std@@V?$allocator@D@2@@std@@XZ ; AsmCmd2::GetRightStringOp
PUBLIC	?GetLeftReg@AsmCmd1@@UAE?AW4REG@@XZ		; AsmCmd1::GetLeftReg
PUBLIC	?GetRightReg@AsmCmd2@@UAE?AW4REG@@XZ		; AsmCmd2::GetRightReg
PUBLIC	?GetLeftString@AsmCmd2@@UAE?AV?$basic_string@DU?$char_traits@D@std@@V?$allocator@D@2@@std@@XZ ; AsmCmd2::GetLeftString
EXTRN	?GenerateToFile@AsmCmd2@@UAEXAAV?$basic_ofstream@DU?$char_traits@D@std@@@std@@@Z:PROC ; AsmCmd2::GenerateToFile
;	COMDAT ??_R2AsmCmd@@8
; File c:\users\дмитрий\documents\visual studio 2010\projects\scanner\scanner\asmcommands.h
rdata$r	SEGMENT
??_R2AsmCmd@@8 DD FLAT:??_R1A@?0A@EA@AsmCmd@@8		; AsmCmd::`RTTI Base Class Array'
rdata$r	ENDS
;	COMDAT ??_R3AsmCmd@@8
rdata$r	SEGMENT
??_R3AsmCmd@@8 DD 00H					; AsmCmd::`RTTI Class Hierarchy Descriptor'
	DD	00H
	DD	01H
	DD	FLAT:??_R2AsmCmd@@8
rdata$r	ENDS
;	COMDAT ??_R0?AVAsmCmd@@@8
_DATA	SEGMENT
??_R0?AVAsmCmd@@@8 DD FLAT:??_7type_info@@6B@		; AsmCmd `RTTI Type Descriptor'
	DD	00H
	DB	'.?AVAsmCmd@@', 00H
_DATA	ENDS
;	COMDAT ??_R1A@?0A@EA@AsmCmd@@8
rdata$r	SEGMENT
??_R1A@?0A@EA@AsmCmd@@8 DD FLAT:??_R0?AVAsmCmd@@@8	; AsmCmd::`RTTI Base Class Descriptor at (0,-1,0,64)'
	DD	00H
	DD	00H
	DD	0ffffffffH
	DD	00H
	DD	040H
	DD	FLAT:??_R3AsmCmd@@8
rdata$r	ENDS
;	COMDAT ??_R2AsmCmd1@@8
rdata$r	SEGMENT
??_R2AsmCmd1@@8 DD FLAT:??_R1A@?0A@EA@AsmCmd1@@8	; AsmCmd1::`RTTI Base Class Array'
	DD	FLAT:??_R1A@?0A@EA@AsmCmd@@8
rdata$r	ENDS
;	COMDAT ??_R3AsmCmd1@@8
rdata$r	SEGMENT
??_R3AsmCmd1@@8 DD 00H					; AsmCmd1::`RTTI Class Hierarchy Descriptor'
	DD	00H
	DD	02H
	DD	FLAT:??_R2AsmCmd1@@8
rdata$r	ENDS
;	COMDAT ??_R0?AVAsmCmd1@@@8
_DATA	SEGMENT
??_R0?AVAsmCmd1@@@8 DD FLAT:??_7type_info@@6B@		; AsmCmd1 `RTTI Type Descriptor'
	DD	00H
	DB	'.?AVAsmCmd1@@', 00H
_DATA	ENDS
;	COMDAT ??_R1A@?0A@EA@AsmCmd1@@8
rdata$r	SEGMENT
??_R1A@?0A@EA@AsmCmd1@@8 DD FLAT:??_R0?AVAsmCmd1@@@8	; AsmCmd1::`RTTI Base Class Descriptor at (0,-1,0,64)'
	DD	01H
	DD	00H
	DD	0ffffffffH
	DD	00H
	DD	040H
	DD	FLAT:??_R3AsmCmd1@@8
rdata$r	ENDS
;	COMDAT ??_R1A@?0A@EA@AsmCmd2@@8
rdata$r	SEGMENT
??_R1A@?0A@EA@AsmCmd2@@8 DD FLAT:??_R0?AVAsmCmd2@@@8	; AsmCmd2::`RTTI Base Class Descriptor at (0,-1,0,64)'
	DD	02H
	DD	00H
	DD	0ffffffffH
	DD	00H
	DD	040H
	DD	FLAT:??_R3AsmCmd2@@8
rdata$r	ENDS
;	COMDAT ??_R2AsmCmd2@@8
rdata$r	SEGMENT
??_R2AsmCmd2@@8 DD FLAT:??_R1A@?0A@EA@AsmCmd2@@8	; AsmCmd2::`RTTI Base Class Array'
	DD	FLAT:??_R1A@?0A@EA@AsmCmd1@@8
	DD	FLAT:??_R1A@?0A@EA@AsmCmd@@8
rdata$r	ENDS
;	COMDAT ??_R3AsmCmd2@@8
rdata$r	SEGMENT
??_R3AsmCmd2@@8 DD 00H					; AsmCmd2::`RTTI Class Hierarchy Descriptor'
	DD	00H
	DD	03H
	DD	FLAT:??_R2AsmCmd2@@8
rdata$r	ENDS
;	COMDAT ??_R0?AVAsmCmd2@@@8
_DATA	SEGMENT
??_R0?AVAsmCmd2@@@8 DD FLAT:??_7type_info@@6B@		; AsmCmd2 `RTTI Type Descriptor'
	DD	00H
	DB	'.?AVAsmCmd2@@', 00H
_DATA	ENDS
;	COMDAT ??_R4AsmCmd2@@6B@
rdata$r	SEGMENT
??_R4AsmCmd2@@6B@ DD 00H				; AsmCmd2::`RTTI Complete Object Locator'
	DD	00H
	DD	00H
	DD	FLAT:??_R0?AVAsmCmd2@@@8
	DD	FLAT:??_R3AsmCmd2@@8
rdata$r	ENDS
;	COMDAT ??_C@_00CNPNBAHC@?$AA@
CONST	SEGMENT
??_C@_00CNPNBAHC@?$AA@ DB 00H				; `string'
CONST	ENDS
;	COMDAT ??_7AsmCmd2@@6B@
CONST	SEGMENT
??_7AsmCmd2@@6B@ DD FLAT:??_R4AsmCmd2@@6B@		; AsmCmd2::`vftable'
	DD	FLAT:?GenerateToFile@AsmCmd2@@UAEXAAV?$basic_ofstream@DU?$char_traits@D@std@@@std@@@Z
	DD	FLAT:?AsmCmd1Test@AsmCmd1@@UAE_NXZ
	DD	FLAT:?AsmCmd2Test@AsmCmd2@@UAE_NXZ
	DD	FLAT:?OP_ADD_Test@AsmCmd@@UAE_NXZ
	DD	FLAT:?OP_SUB_Test@AsmCmd@@UAE_NXZ
	DD	FLAT:?OP_IMUL_Test@AsmCmd@@UAE_NXZ
	DD	FLAT:?OP_CDQ_Test@AsmCmd@@UAE_NXZ
	DD	FLAT:?OP_NEG_Test@AsmCmd@@UAE_NXZ
	DD	FLAT:?OP_MOV_Test@AsmCmd@@UAE_NXZ
	DD	FLAT:?OP_CMP_Test@AsmCmd@@UAE_NXZ
	DD	FLAT:?OP_PUSH_Test@AsmCmd@@UAE_NXZ
	DD	FLAT:?OP_POP_Test@AsmCmd@@UAE_NXZ
	DD	FLAT:?TestRightOp@AsmCmd2@@UAE_NV?$basic_string@DU?$char_traits@D@std@@V?$allocator@D@2@@std@@@Z
	DD	FLAT:?GetRightStringOp@AsmCmd2@@UAE?AV?$basic_string@DU?$char_traits@D@std@@V?$allocator@D@2@@std@@XZ
	DD	FLAT:?GetLeftReg@AsmCmd1@@UAE?AW4REG@@XZ
	DD	FLAT:?GetRightReg@AsmCmd2@@UAE?AW4REG@@XZ
	DD	FLAT:?GetLeftString@AsmCmd2@@UAE?AV?$basic_string@DU?$char_traits@D@std@@V?$allocator@D@2@@std@@XZ
CONST	ENDS
;	COMDAT xdata$x
xdata$x	SEGMENT
__unwindtable$??0AsmCmd2@@QAE@W4OPCODE@@W4REG@@1@Z DD 0ffffffffH
	DD	FLAT:__unwindfunclet$??0AsmCmd2@@QAE@W4OPCODE@@W4REG@@1@Z$0
	DD	00H
	DD	FLAT:__unwindfunclet$??0AsmCmd2@@QAE@W4OPCODE@@W4REG@@1@Z$1
__ehfuncinfo$??0AsmCmd2@@QAE@W4OPCODE@@W4REG@@1@Z DD 019930522H
	DD	02H
	DD	FLAT:__unwindtable$??0AsmCmd2@@QAE@W4OPCODE@@W4REG@@1@Z
	DD	2 DUP(00H)
	DD	2 DUP(00H)
	DD	00H
	DD	01H
; Function compile flags: /Odtp /RTCsu /ZI
xdata$x	ENDS
;	COMDAT ??0AsmCmd2@@QAE@W4OPCODE@@W4REG@@1@Z
_TEXT	SEGMENT
_this$ = -20						; size = 4
__$EHRec$ = -12						; size = 12
_op$ = 8						; size = 4
_oper1$ = 12						; size = 4
_oper2$ = 16						; size = 4
??0AsmCmd2@@QAE@W4OPCODE@@W4REG@@1@Z PROC		; AsmCmd2::AsmCmd2, COMDAT
; _this$ = ecx
; Line 49
	push	ebp
	mov	ebp, esp
	push	-1
	push	__ehhandler$??0AsmCmd2@@QAE@W4OPCODE@@W4REG@@1@Z
	mov	eax, DWORD PTR fs:0
	push	eax
	sub	esp, 204				; 000000ccH
	push	ebx
	push	esi
	push	edi
	push	ecx
	lea	edi, DWORD PTR [ebp-216]
	mov	ecx, 51					; 00000033H
	mov	eax, -858993460				; ccccccccH
	rep stosd
	pop	ecx
	mov	eax, DWORD PTR ___security_cookie
	xor	eax, ebp
	push	eax
	lea	eax, DWORD PTR __$EHRec$[ebp]
	mov	DWORD PTR fs:0, eax
	mov	DWORD PTR _this$[ebp], ecx
	mov	eax, DWORD PTR _oper1$[ebp]
	push	eax
	mov	ecx, DWORD PTR _op$[ebp]
	push	ecx
	mov	ecx, DWORD PTR _this$[ebp]
	call	??0AsmCmd1@@QAE@W4OPCODE@@W4REG@@@Z	; AsmCmd1::AsmCmd1
	mov	DWORD PTR __$EHRec$[ebp+8], 0
	mov	eax, DWORD PTR _this$[ebp]
	mov	DWORD PTR [eax], OFFSET ??_7AsmCmd2@@6B@
	push	OFFSET ??_C@_00CNPNBAHC@?$AA@
	mov	ecx, DWORD PTR _this$[ebp]
	add	ecx, 44					; 0000002cH
	call	??0?$basic_string@DU?$char_traits@D@std@@V?$allocator@D@2@@std@@QAE@PBD@Z ; std::basic_string<char,std::char_traits<char>,std::allocator<char> >::basic_string<char,std::char_traits<char>,std::allocator<char> >
	mov	BYTE PTR __$EHRec$[ebp+8], 1
	mov	eax, DWORD PTR _this$[ebp]
	mov	ecx, DWORD PTR _oper2$[ebp]
	mov	DWORD PTR [eax+76], ecx
	mov	ecx, DWORD PTR _this$[ebp]
	add	ecx, 80					; 00000050H
	call	??0?$basic_string@DU?$char_traits@D@std@@V?$allocator@D@2@@std@@QAE@XZ ; std::basic_string<char,std::char_traits<char>,std::allocator<char> >::basic_string<char,std::char_traits<char>,std::allocator<char> >
	mov	DWORD PTR __$EHRec$[ebp+8], -1
	mov	eax, DWORD PTR _this$[ebp]
	mov	ecx, DWORD PTR __$EHRec$[ebp]
	mov	DWORD PTR fs:0, ecx
	pop	ecx
	pop	edi
	pop	esi
	pop	ebx
	add	esp, 216				; 000000d8H
	cmp	ebp, esp
	call	__RTC_CheckEsp
	mov	esp, ebp
	pop	ebp
	ret	12					; 0000000cH
_TEXT	ENDS
;	COMDAT text$x
text$x	SEGMENT
__unwindfunclet$??0AsmCmd2@@QAE@W4OPCODE@@W4REG@@1@Z$0:
	mov	ecx, DWORD PTR _this$[ebp]
	jmp	??1AsmCmd1@@QAE@XZ
__unwindfunclet$??0AsmCmd2@@QAE@W4OPCODE@@W4REG@@1@Z$1:
	mov	ecx, DWORD PTR _this$[ebp]
	add	ecx, 44					; 0000002cH
	jmp	??1?$basic_string@DU?$char_traits@D@std@@V?$allocator@D@2@@std@@QAE@XZ ; std::basic_string<char,std::char_traits<char>,std::allocator<char> >::~basic_string<char,std::char_traits<char>,std::allocator<char> >
__ehhandler$??0AsmCmd2@@QAE@W4OPCODE@@W4REG@@1@Z:
	mov	edx, DWORD PTR [esp+8]
	lea	eax, DWORD PTR [edx+12]
	mov	ecx, DWORD PTR [edx-220]
	xor	ecx, eax
	call	@__security_check_cookie@4
	mov	eax, OFFSET __ehfuncinfo$??0AsmCmd2@@QAE@W4OPCODE@@W4REG@@1@Z
	jmp	___CxxFrameHandler3
text$x	ENDS
??0AsmCmd2@@QAE@W4OPCODE@@W4REG@@1@Z ENDP		; AsmCmd2::AsmCmd2
; Function compile flags: /Odtp /RTCsu /ZI
;	COMDAT ?OP_ADD_Test@AsmCmd@@UAE_NXZ
_TEXT	SEGMENT
_this$ = -8						; size = 4
?OP_ADD_Test@AsmCmd@@UAE_NXZ PROC			; AsmCmd::OP_ADD_Test, COMDAT
; _this$ = ecx
; Line 12
	push	ebp
	mov	ebp, esp
	sub	esp, 204				; 000000ccH
	push	ebx
	push	esi
	push	edi
	push	ecx
	lea	edi, DWORD PTR [ebp-204]
	mov	ecx, 51					; 00000033H
	mov	eax, -858993460				; ccccccccH
	rep stosd
	pop	ecx
	mov	DWORD PTR _this$[ebp], ecx
	mov	eax, DWORD PTR _this$[ebp]
	cmp	DWORD PTR [eax+4], 0
	sete	al
	pop	edi
	pop	esi
	pop	ebx
	mov	esp, ebp
	pop	ebp
	ret	0
?OP_ADD_Test@AsmCmd@@UAE_NXZ ENDP			; AsmCmd::OP_ADD_Test
; Function compile flags: /Odtp /RTCsu /ZI
_TEXT	ENDS
;	COMDAT ?OP_SUB_Test@AsmCmd@@UAE_NXZ
_TEXT	SEGMENT
_this$ = -8						; size = 4
?OP_SUB_Test@AsmCmd@@UAE_NXZ PROC			; AsmCmd::OP_SUB_Test, COMDAT
; _this$ = ecx
; Line 13
	push	ebp
	mov	ebp, esp
	sub	esp, 204				; 000000ccH
	push	ebx
	push	esi
	push	edi
	push	ecx
	lea	edi, DWORD PTR [ebp-204]
	mov	ecx, 51					; 00000033H
	mov	eax, -858993460				; ccccccccH
	rep stosd
	pop	ecx
	mov	DWORD PTR _this$[ebp], ecx
	mov	eax, DWORD PTR _this$[ebp]
	cmp	DWORD PTR [eax+4], 1
	sete	al
	pop	edi
	pop	esi
	pop	ebx
	mov	esp, ebp
	pop	ebp
	ret	0
?OP_SUB_Test@AsmCmd@@UAE_NXZ ENDP			; AsmCmd::OP_SUB_Test
; Function compile flags: /Odtp /RTCsu /ZI
_TEXT	ENDS
;	COMDAT ?OP_IMUL_Test@AsmCmd@@UAE_NXZ
_TEXT	SEGMENT
_this$ = -8						; size = 4
?OP_IMUL_Test@AsmCmd@@UAE_NXZ PROC			; AsmCmd::OP_IMUL_Test, COMDAT
; _this$ = ecx
; Line 14
	push	ebp
	mov	ebp, esp
	sub	esp, 204				; 000000ccH
	push	ebx
	push	esi
	push	edi
	push	ecx
	lea	edi, DWORD PTR [ebp-204]
	mov	ecx, 51					; 00000033H
	mov	eax, -858993460				; ccccccccH
	rep stosd
	pop	ecx
	mov	DWORD PTR _this$[ebp], ecx
	mov	eax, DWORD PTR _this$[ebp]
	cmp	DWORD PTR [eax+4], 2
	sete	al
	pop	edi
	pop	esi
	pop	ebx
	mov	esp, ebp
	pop	ebp
	ret	0
?OP_IMUL_Test@AsmCmd@@UAE_NXZ ENDP			; AsmCmd::OP_IMUL_Test
; Function compile flags: /Odtp /RTCsu /ZI
_TEXT	ENDS
;	COMDAT ?OP_CDQ_Test@AsmCmd@@UAE_NXZ
_TEXT	SEGMENT
_this$ = -8						; size = 4
?OP_CDQ_Test@AsmCmd@@UAE_NXZ PROC			; AsmCmd::OP_CDQ_Test, COMDAT
; _this$ = ecx
; Line 15
	push	ebp
	mov	ebp, esp
	sub	esp, 204				; 000000ccH
	push	ebx
	push	esi
	push	edi
	push	ecx
	lea	edi, DWORD PTR [ebp-204]
	mov	ecx, 51					; 00000033H
	mov	eax, -858993460				; ccccccccH
	rep stosd
	pop	ecx
	mov	DWORD PTR _this$[ebp], ecx
	mov	eax, DWORD PTR _this$[ebp]
	cmp	DWORD PTR [eax+4], 6
	sete	al
	pop	edi
	pop	esi
	pop	ebx
	mov	esp, ebp
	pop	ebp
	ret	0
?OP_CDQ_Test@AsmCmd@@UAE_NXZ ENDP			; AsmCmd::OP_CDQ_Test
; Function compile flags: /Odtp /RTCsu /ZI
_TEXT	ENDS
;	COMDAT ?OP_NEG_Test@AsmCmd@@UAE_NXZ
_TEXT	SEGMENT
_this$ = -8						; size = 4
?OP_NEG_Test@AsmCmd@@UAE_NXZ PROC			; AsmCmd::OP_NEG_Test, COMDAT
; _this$ = ecx
; Line 16
	push	ebp
	mov	ebp, esp
	sub	esp, 204				; 000000ccH
	push	ebx
	push	esi
	push	edi
	push	ecx
	lea	edi, DWORD PTR [ebp-204]
	mov	ecx, 51					; 00000033H
	mov	eax, -858993460				; ccccccccH
	rep stosd
	pop	ecx
	mov	DWORD PTR _this$[ebp], ecx
	mov	eax, DWORD PTR _this$[ebp]
	cmp	DWORD PTR [eax+4], 15			; 0000000fH
	sete	al
	pop	edi
	pop	esi
	pop	ebx
	mov	esp, ebp
	pop	ebp
	ret	0
?OP_NEG_Test@AsmCmd@@UAE_NXZ ENDP			; AsmCmd::OP_NEG_Test
; Function compile flags: /Odtp /RTCsu /ZI
_TEXT	ENDS
;	COMDAT ?OP_MOV_Test@AsmCmd@@UAE_NXZ
_TEXT	SEGMENT
_this$ = -8						; size = 4
?OP_MOV_Test@AsmCmd@@UAE_NXZ PROC			; AsmCmd::OP_MOV_Test, COMDAT
; _this$ = ecx
; Line 17
	push	ebp
	mov	ebp, esp
	sub	esp, 204				; 000000ccH
	push	ebx
	push	esi
	push	edi
	push	ecx
	lea	edi, DWORD PTR [ebp-204]
	mov	ecx, 51					; 00000033H
	mov	eax, -858993460				; ccccccccH
	rep stosd
	pop	ecx
	mov	DWORD PTR _this$[ebp], ecx
	mov	eax, DWORD PTR _this$[ebp]
	cmp	DWORD PTR [eax+4], 7
	sete	al
	pop	edi
	pop	esi
	pop	ebx
	mov	esp, ebp
	pop	ebp
	ret	0
?OP_MOV_Test@AsmCmd@@UAE_NXZ ENDP			; AsmCmd::OP_MOV_Test
; Function compile flags: /Odtp /RTCsu /ZI
_TEXT	ENDS
;	COMDAT ?OP_CMP_Test@AsmCmd@@UAE_NXZ
_TEXT	SEGMENT
_this$ = -8						; size = 4
?OP_CMP_Test@AsmCmd@@UAE_NXZ PROC			; AsmCmd::OP_CMP_Test, COMDAT
; _this$ = ecx
; Line 18
	push	ebp
	mov	ebp, esp
	sub	esp, 204				; 000000ccH
	push	ebx
	push	esi
	push	edi
	push	ecx
	lea	edi, DWORD PTR [ebp-204]
	mov	ecx, 51					; 00000033H
	mov	eax, -858993460				; ccccccccH
	rep stosd
	pop	ecx
	mov	DWORD PTR _this$[ebp], ecx
	mov	eax, DWORD PTR _this$[ebp]
	cmp	DWORD PTR [eax+4], 22			; 00000016H
	sete	al
	pop	edi
	pop	esi
	pop	ebx
	mov	esp, ebp
	pop	ebp
	ret	0
?OP_CMP_Test@AsmCmd@@UAE_NXZ ENDP			; AsmCmd::OP_CMP_Test
; Function compile flags: /Odtp /RTCsu /ZI
_TEXT	ENDS
;	COMDAT ?OP_PUSH_Test@AsmCmd@@UAE_NXZ
_TEXT	SEGMENT
_this$ = -8						; size = 4
?OP_PUSH_Test@AsmCmd@@UAE_NXZ PROC			; AsmCmd::OP_PUSH_Test, COMDAT
; _this$ = ecx
; Line 19
	push	ebp
	mov	ebp, esp
	sub	esp, 204				; 000000ccH
	push	ebx
	push	esi
	push	edi
	push	ecx
	lea	edi, DWORD PTR [ebp-204]
	mov	ecx, 51					; 00000033H
	mov	eax, -858993460				; ccccccccH
	rep stosd
	pop	ecx
	mov	DWORD PTR _this$[ebp], ecx
	mov	eax, DWORD PTR _this$[ebp]
	cmp	DWORD PTR [eax+4], 5
	sete	al
	pop	edi
	pop	esi
	pop	ebx
	mov	esp, ebp
	pop	ebp
	ret	0
?OP_PUSH_Test@AsmCmd@@UAE_NXZ ENDP			; AsmCmd::OP_PUSH_Test
; Function compile flags: /Odtp /RTCsu /ZI
_TEXT	ENDS
;	COMDAT ?OP_POP_Test@AsmCmd@@UAE_NXZ
_TEXT	SEGMENT
_this$ = -8						; size = 4
?OP_POP_Test@AsmCmd@@UAE_NXZ PROC			; AsmCmd::OP_POP_Test, COMDAT
; _this$ = ecx
; Line 20
	push	ebp
	mov	ebp, esp
	sub	esp, 204				; 000000ccH
	push	ebx
	push	esi
	push	edi
	push	ecx
	lea	edi, DWORD PTR [ebp-204]
	mov	ecx, 51					; 00000033H
	mov	eax, -858993460				; ccccccccH
	rep stosd
	pop	ecx
	mov	DWORD PTR _this$[ebp], ecx
	mov	eax, DWORD PTR _this$[ebp]
	cmp	DWORD PTR [eax+4], 4
	sete	al
	pop	edi
	pop	esi
	pop	ebx
	mov	esp, ebp
	pop	ebp
	ret	0
?OP_POP_Test@AsmCmd@@UAE_NXZ ENDP			; AsmCmd::OP_POP_Test
_TEXT	ENDS
PUBLIC	??_7AsmCmd1@@6B@				; AsmCmd1::`vftable'
PUBLIC	??0AsmCmd@@QAE@W4OPCODE@@@Z			; AsmCmd::AsmCmd
PUBLIC	??_R4AsmCmd1@@6B@				; AsmCmd1::`RTTI Complete Object Locator'
PUBLIC	?AsmCmd2Test@AsmCmd@@UAE_NXZ			; AsmCmd::AsmCmd2Test
PUBLIC	?TestRightOp@AsmCmd@@UAE_NV?$basic_string@DU?$char_traits@D@std@@V?$allocator@D@2@@std@@@Z ; AsmCmd::TestRightOp
PUBLIC	?GetRightStringOp@AsmCmd@@UAE?AV?$basic_string@DU?$char_traits@D@std@@V?$allocator@D@2@@std@@XZ ; AsmCmd::GetRightStringOp
PUBLIC	?GetRightReg@AsmCmd@@UAE?AW4REG@@XZ		; AsmCmd::GetRightReg
PUBLIC	?GetLeftString@AsmCmd1@@UAE?AV?$basic_string@DU?$char_traits@D@std@@V?$allocator@D@2@@std@@XZ ; AsmCmd1::GetLeftString
EXTRN	?GenerateToFile@AsmCmd1@@UAEXAAV?$basic_ofstream@DU?$char_traits@D@std@@@std@@@Z:PROC ; AsmCmd1::GenerateToFile
;	COMDAT ??_R4AsmCmd1@@6B@
rdata$r	SEGMENT
??_R4AsmCmd1@@6B@ DD 00H				; AsmCmd1::`RTTI Complete Object Locator'
	DD	00H
	DD	00H
	DD	FLAT:??_R0?AVAsmCmd1@@@8
	DD	FLAT:??_R3AsmCmd1@@8
rdata$r	ENDS
;	COMDAT ??_7AsmCmd1@@6B@
CONST	SEGMENT
??_7AsmCmd1@@6B@ DD FLAT:??_R4AsmCmd1@@6B@		; AsmCmd1::`vftable'
	DD	FLAT:?GenerateToFile@AsmCmd1@@UAEXAAV?$basic_ofstream@DU?$char_traits@D@std@@@std@@@Z
	DD	FLAT:?AsmCmd1Test@AsmCmd1@@UAE_NXZ
	DD	FLAT:?AsmCmd2Test@AsmCmd@@UAE_NXZ
	DD	FLAT:?OP_ADD_Test@AsmCmd@@UAE_NXZ
	DD	FLAT:?OP_SUB_Test@AsmCmd@@UAE_NXZ
	DD	FLAT:?OP_IMUL_Test@AsmCmd@@UAE_NXZ
	DD	FLAT:?OP_CDQ_Test@AsmCmd@@UAE_NXZ
	DD	FLAT:?OP_NEG_Test@AsmCmd@@UAE_NXZ
	DD	FLAT:?OP_MOV_Test@AsmCmd@@UAE_NXZ
	DD	FLAT:?OP_CMP_Test@AsmCmd@@UAE_NXZ
	DD	FLAT:?OP_PUSH_Test@AsmCmd@@UAE_NXZ
	DD	FLAT:?OP_POP_Test@AsmCmd@@UAE_NXZ
	DD	FLAT:?TestRightOp@AsmCmd@@UAE_NV?$basic_string@DU?$char_traits@D@std@@V?$allocator@D@2@@std@@@Z
	DD	FLAT:?GetRightStringOp@AsmCmd@@UAE?AV?$basic_string@DU?$char_traits@D@std@@V?$allocator@D@2@@std@@XZ
	DD	FLAT:?GetLeftReg@AsmCmd1@@UAE?AW4REG@@XZ
	DD	FLAT:?GetRightReg@AsmCmd@@UAE?AW4REG@@XZ
	DD	FLAT:?GetLeftString@AsmCmd1@@UAE?AV?$basic_string@DU?$char_traits@D@std@@V?$allocator@D@2@@std@@XZ
; Function compile flags: /Odtp /RTCsu /ZI
CONST	ENDS
;	COMDAT ??0AsmCmd1@@QAE@W4OPCODE@@W4REG@@@Z
_TEXT	SEGMENT
_this$ = -8						; size = 4
_op$ = 8						; size = 4
_oper1$ = 12						; size = 4
??0AsmCmd1@@QAE@W4OPCODE@@W4REG@@@Z PROC		; AsmCmd1::AsmCmd1, COMDAT
; _this$ = ecx
; Line 34
	push	ebp
	mov	ebp, esp
	sub	esp, 204				; 000000ccH
	push	ebx
	push	esi
	push	edi
	push	ecx
	lea	edi, DWORD PTR [ebp-204]
	mov	ecx, 51					; 00000033H
	mov	eax, -858993460				; ccccccccH
	rep stosd
	pop	ecx
	mov	DWORD PTR _this$[ebp], ecx
	mov	eax, DWORD PTR _op$[ebp]
	push	eax
	mov	ecx, DWORD PTR _this$[ebp]
	call	??0AsmCmd@@QAE@W4OPCODE@@@Z		; AsmCmd::AsmCmd
	mov	eax, DWORD PTR _this$[ebp]
	mov	DWORD PTR [eax], OFFSET ??_7AsmCmd1@@6B@
	push	OFFSET ??_C@_00CNPNBAHC@?$AA@
	mov	ecx, DWORD PTR _this$[ebp]
	add	ecx, 8
	call	??0?$basic_string@DU?$char_traits@D@std@@V?$allocator@D@2@@std@@QAE@PBD@Z ; std::basic_string<char,std::char_traits<char>,std::allocator<char> >::basic_string<char,std::char_traits<char>,std::allocator<char> >
	mov	eax, DWORD PTR _this$[ebp]
	mov	ecx, DWORD PTR _oper1$[ebp]
	mov	DWORD PTR [eax+40], ecx
	mov	eax, DWORD PTR _this$[ebp]
	pop	edi
	pop	esi
	pop	ebx
	add	esp, 204				; 000000ccH
	cmp	ebp, esp
	call	__RTC_CheckEsp
	mov	esp, ebp
	pop	ebp
	ret	8
??0AsmCmd1@@QAE@W4OPCODE@@W4REG@@@Z ENDP		; AsmCmd1::AsmCmd1
_TEXT	ENDS
PUBLIC	??_7AsmCmd@@6B@					; AsmCmd::`vftable'
PUBLIC	??_R4AsmCmd@@6B@				; AsmCmd::`RTTI Complete Object Locator'
PUBLIC	?AsmCmd1Test@AsmCmd@@UAE_NXZ			; AsmCmd::AsmCmd1Test
PUBLIC	?GetLeftReg@AsmCmd@@UAE?AW4REG@@XZ		; AsmCmd::GetLeftReg
PUBLIC	?GetLeftString@AsmCmd@@UAE?AV?$basic_string@DU?$char_traits@D@std@@V?$allocator@D@2@@std@@XZ ; AsmCmd::GetLeftString
EXTRN	?GenerateToFile@AsmCmd@@UAEXAAV?$basic_ofstream@DU?$char_traits@D@std@@@std@@@Z:PROC ; AsmCmd::GenerateToFile
;	COMDAT ??_R4AsmCmd@@6B@
rdata$r	SEGMENT
??_R4AsmCmd@@6B@ DD 00H					; AsmCmd::`RTTI Complete Object Locator'
	DD	00H
	DD	00H
	DD	FLAT:??_R0?AVAsmCmd@@@8
	DD	FLAT:??_R3AsmCmd@@8
rdata$r	ENDS
;	COMDAT ??_7AsmCmd@@6B@
CONST	SEGMENT
??_7AsmCmd@@6B@ DD FLAT:??_R4AsmCmd@@6B@		; AsmCmd::`vftable'
	DD	FLAT:?GenerateToFile@AsmCmd@@UAEXAAV?$basic_ofstream@DU?$char_traits@D@std@@@std@@@Z
	DD	FLAT:?AsmCmd1Test@AsmCmd@@UAE_NXZ
	DD	FLAT:?AsmCmd2Test@AsmCmd@@UAE_NXZ
	DD	FLAT:?OP_ADD_Test@AsmCmd@@UAE_NXZ
	DD	FLAT:?OP_SUB_Test@AsmCmd@@UAE_NXZ
	DD	FLAT:?OP_IMUL_Test@AsmCmd@@UAE_NXZ
	DD	FLAT:?OP_CDQ_Test@AsmCmd@@UAE_NXZ
	DD	FLAT:?OP_NEG_Test@AsmCmd@@UAE_NXZ
	DD	FLAT:?OP_MOV_Test@AsmCmd@@UAE_NXZ
	DD	FLAT:?OP_CMP_Test@AsmCmd@@UAE_NXZ
	DD	FLAT:?OP_PUSH_Test@AsmCmd@@UAE_NXZ
	DD	FLAT:?OP_POP_Test@AsmCmd@@UAE_NXZ
	DD	FLAT:?TestRightOp@AsmCmd@@UAE_NV?$basic_string@DU?$char_traits@D@std@@V?$allocator@D@2@@std@@@Z
	DD	FLAT:?GetRightStringOp@AsmCmd@@UAE?AV?$basic_string@DU?$char_traits@D@std@@V?$allocator@D@2@@std@@XZ
	DD	FLAT:?GetLeftReg@AsmCmd@@UAE?AW4REG@@XZ
	DD	FLAT:?GetRightReg@AsmCmd@@UAE?AW4REG@@XZ
	DD	FLAT:?GetLeftString@AsmCmd@@UAE?AV?$basic_string@DU?$char_traits@D@std@@V?$allocator@D@2@@std@@XZ
; Function compile flags: /Odtp /RTCsu /ZI
CONST	ENDS
;	COMDAT ??0AsmCmd@@QAE@W4OPCODE@@@Z
_TEXT	SEGMENT
_this$ = -8						; size = 4
_cmd$ = 8						; size = 4
??0AsmCmd@@QAE@W4OPCODE@@@Z PROC			; AsmCmd::AsmCmd, COMDAT
; _this$ = ecx
; Line 8
	push	ebp
	mov	ebp, esp
	sub	esp, 204				; 000000ccH
	push	ebx
	push	esi
	push	edi
	push	ecx
	lea	edi, DWORD PTR [ebp-204]
	mov	ecx, 51					; 00000033H
	mov	eax, -858993460				; ccccccccH
	rep stosd
	pop	ecx
	mov	DWORD PTR _this$[ebp], ecx
	mov	eax, DWORD PTR _this$[ebp]
	mov	DWORD PTR [eax], OFFSET ??_7AsmCmd@@6B@
	mov	eax, DWORD PTR _this$[ebp]
	mov	ecx, DWORD PTR _cmd$[ebp]
	mov	DWORD PTR [eax+4], ecx
	mov	eax, DWORD PTR _this$[ebp]
	pop	edi
	pop	esi
	pop	ebx
	mov	esp, ebp
	pop	ebp
	ret	4
??0AsmCmd@@QAE@W4OPCODE@@@Z ENDP			; AsmCmd::AsmCmd
; Function compile flags: /Odtp /RTCsu /ZI
_TEXT	ENDS
;	COMDAT ?AsmCmd1Test@AsmCmd@@UAE_NXZ
_TEXT	SEGMENT
_this$ = -8						; size = 4
?AsmCmd1Test@AsmCmd@@UAE_NXZ PROC			; AsmCmd::AsmCmd1Test, COMDAT
; _this$ = ecx
; Line 10
	push	ebp
	mov	ebp, esp
	sub	esp, 204				; 000000ccH
	push	ebx
	push	esi
	push	edi
	push	ecx
	lea	edi, DWORD PTR [ebp-204]
	mov	ecx, 51					; 00000033H
	mov	eax, -858993460				; ccccccccH
	rep stosd
	pop	ecx
	mov	DWORD PTR _this$[ebp], ecx
	xor	al, al
	pop	edi
	pop	esi
	pop	ebx
	mov	esp, ebp
	pop	ebp
	ret	0
?AsmCmd1Test@AsmCmd@@UAE_NXZ ENDP			; AsmCmd::AsmCmd1Test
; Function compile flags: /Odtp /RTCsu /ZI
_TEXT	ENDS
;	COMDAT ?AsmCmd2Test@AsmCmd@@UAE_NXZ
_TEXT	SEGMENT
_this$ = -8						; size = 4
?AsmCmd2Test@AsmCmd@@UAE_NXZ PROC			; AsmCmd::AsmCmd2Test, COMDAT
; _this$ = ecx
; Line 11
	push	ebp
	mov	ebp, esp
	sub	esp, 204				; 000000ccH
	push	ebx
	push	esi
	push	edi
	push	ecx
	lea	edi, DWORD PTR [ebp-204]
	mov	ecx, 51					; 00000033H
	mov	eax, -858993460				; ccccccccH
	rep stosd
	pop	ecx
	mov	DWORD PTR _this$[ebp], ecx
	xor	al, al
	pop	edi
	pop	esi
	pop	ebx
	mov	esp, ebp
	pop	ebp
	ret	0
?AsmCmd2Test@AsmCmd@@UAE_NXZ ENDP			; AsmCmd::AsmCmd2Test
; Function compile flags: /Odtp /RTCsu /ZI
_TEXT	ENDS
;	COMDAT ?TestRightOp@AsmCmd@@UAE_NV?$basic_string@DU?$char_traits@D@std@@V?$allocator@D@2@@std@@@Z
_TEXT	SEGMENT
$T65134 = -221						; size = 1
_this$ = -8						; size = 4
_pattern$ = 8						; size = 32
?TestRightOp@AsmCmd@@UAE_NV?$basic_string@DU?$char_traits@D@std@@V?$allocator@D@2@@std@@@Z PROC ; AsmCmd::TestRightOp, COMDAT
; _this$ = ecx
; Line 21
	push	ebp
	mov	ebp, esp
	sub	esp, 228				; 000000e4H
	push	ebx
	push	esi
	push	edi
	push	ecx
	lea	edi, DWORD PTR [ebp-228]
	mov	ecx, 57					; 00000039H
	mov	eax, -858993460				; ccccccccH
	rep stosd
	pop	ecx
	mov	DWORD PTR _this$[ebp], ecx
	mov	BYTE PTR $T65134[ebp], 0
	lea	ecx, DWORD PTR _pattern$[ebp]
	call	??1?$basic_string@DU?$char_traits@D@std@@V?$allocator@D@2@@std@@QAE@XZ ; std::basic_string<char,std::char_traits<char>,std::allocator<char> >::~basic_string<char,std::char_traits<char>,std::allocator<char> >
	mov	al, BYTE PTR $T65134[ebp]
	push	edx
	mov	ecx, ebp
	push	eax
	lea	edx, DWORD PTR $LN6@TestRightO
	call	@_RTC_CheckStackVars@8
	pop	eax
	pop	edx
	pop	edi
	pop	esi
	pop	ebx
	add	esp, 228				; 000000e4H
	cmp	ebp, esp
	call	__RTC_CheckEsp
	mov	esp, ebp
	pop	ebp
	ret	32					; 00000020H
	npad	1
$LN6@TestRightO:
	DD	1
	DD	$LN5@TestRightO
$LN5@TestRightO:
	DD	-20					; ffffffecH
	DD	4
	DD	$LN4@TestRightO
$LN4@TestRightO:
	DB	95					; 0000005fH
	DB	36					; 00000024H
	DB	65					; 00000041H
	DB	114					; 00000072H
	DB	114					; 00000072H
	DB	97					; 00000061H
	DB	121					; 00000079H
	DB	80					; 00000050H
	DB	97					; 00000061H
	DB	100					; 00000064H
	DB	0
?TestRightOp@AsmCmd@@UAE_NV?$basic_string@DU?$char_traits@D@std@@V?$allocator@D@2@@std@@@Z ENDP ; AsmCmd::TestRightOp
; Function compile flags: /Odtp /RTCsu /ZI
_TEXT	ENDS
;	COMDAT ?GetRightStringOp@AsmCmd@@UAE?AV?$basic_string@DU?$char_traits@D@std@@V?$allocator@D@2@@std@@XZ
_TEXT	SEGMENT
$T65142 = -212						; size = 4
_this$ = -8						; size = 4
___$ReturnUdt$ = 8					; size = 4
?GetRightStringOp@AsmCmd@@UAE?AV?$basic_string@DU?$char_traits@D@std@@V?$allocator@D@2@@std@@XZ PROC ; AsmCmd::GetRightStringOp, COMDAT
; _this$ = ecx
; Line 22
	push	ebp
	mov	ebp, esp
	sub	esp, 216				; 000000d8H
	push	ebx
	push	esi
	push	edi
	push	ecx
	lea	edi, DWORD PTR [ebp-216]
	mov	ecx, 54					; 00000036H
	mov	eax, -858993460				; ccccccccH
	rep stosd
	pop	ecx
	mov	DWORD PTR _this$[ebp], ecx
	mov	DWORD PTR $T65142[ebp], 0
	push	OFFSET ??_C@_00CNPNBAHC@?$AA@
	mov	ecx, DWORD PTR ___$ReturnUdt$[ebp]
	call	??0?$basic_string@DU?$char_traits@D@std@@V?$allocator@D@2@@std@@QAE@PBD@Z ; std::basic_string<char,std::char_traits<char>,std::allocator<char> >::basic_string<char,std::char_traits<char>,std::allocator<char> >
	mov	eax, DWORD PTR $T65142[ebp]
	or	eax, 1
	mov	DWORD PTR $T65142[ebp], eax
	mov	eax, DWORD PTR ___$ReturnUdt$[ebp]
	pop	edi
	pop	esi
	pop	ebx
	add	esp, 216				; 000000d8H
	cmp	ebp, esp
	call	__RTC_CheckEsp
	mov	esp, ebp
	pop	ebp
	ret	4
?GetRightStringOp@AsmCmd@@UAE?AV?$basic_string@DU?$char_traits@D@std@@V?$allocator@D@2@@std@@XZ ENDP ; AsmCmd::GetRightStringOp
; Function compile flags: /Odtp /RTCsu /ZI
_TEXT	ENDS
;	COMDAT ?GetLeftReg@AsmCmd@@UAE?AW4REG@@XZ
_TEXT	SEGMENT
_this$ = -8						; size = 4
?GetLeftReg@AsmCmd@@UAE?AW4REG@@XZ PROC			; AsmCmd::GetLeftReg, COMDAT
; _this$ = ecx
; Line 23
	push	ebp
	mov	ebp, esp
	sub	esp, 204				; 000000ccH
	push	ebx
	push	esi
	push	edi
	push	ecx
	lea	edi, DWORD PTR [ebp-204]
	mov	ecx, 51					; 00000033H
	mov	eax, -858993460				; ccccccccH
	rep stosd
	pop	ecx
	mov	DWORD PTR _this$[ebp], ecx
	or	eax, -1
	pop	edi
	pop	esi
	pop	ebx
	mov	esp, ebp
	pop	ebp
	ret	0
?GetLeftReg@AsmCmd@@UAE?AW4REG@@XZ ENDP			; AsmCmd::GetLeftReg
; Function compile flags: /Odtp /RTCsu /ZI
_TEXT	ENDS
;	COMDAT ?GetRightReg@AsmCmd@@UAE?AW4REG@@XZ
_TEXT	SEGMENT
_this$ = -8						; size = 4
?GetRightReg@AsmCmd@@UAE?AW4REG@@XZ PROC		; AsmCmd::GetRightReg, COMDAT
; _this$ = ecx
; Line 24
	push	ebp
	mov	ebp, esp
	sub	esp, 204				; 000000ccH
	push	ebx
	push	esi
	push	edi
	push	ecx
	lea	edi, DWORD PTR [ebp-204]
	mov	ecx, 51					; 00000033H
	mov	eax, -858993460				; ccccccccH
	rep stosd
	pop	ecx
	mov	DWORD PTR _this$[ebp], ecx
	or	eax, -1
	pop	edi
	pop	esi
	pop	ebx
	mov	esp, ebp
	pop	ebp
	ret	0
?GetRightReg@AsmCmd@@UAE?AW4REG@@XZ ENDP		; AsmCmd::GetRightReg
; Function compile flags: /Odtp /RTCsu /ZI
_TEXT	ENDS
;	COMDAT ?GetLeftString@AsmCmd@@UAE?AV?$basic_string@DU?$char_traits@D@std@@V?$allocator@D@2@@std@@XZ
_TEXT	SEGMENT
$T65151 = -212						; size = 4
_this$ = -8						; size = 4
___$ReturnUdt$ = 8					; size = 4
?GetLeftString@AsmCmd@@UAE?AV?$basic_string@DU?$char_traits@D@std@@V?$allocator@D@2@@std@@XZ PROC ; AsmCmd::GetLeftString, COMDAT
; _this$ = ecx
; Line 25
	push	ebp
	mov	ebp, esp
	sub	esp, 216				; 000000d8H
	push	ebx
	push	esi
	push	edi
	push	ecx
	lea	edi, DWORD PTR [ebp-216]
	mov	ecx, 54					; 00000036H
	mov	eax, -858993460				; ccccccccH
	rep stosd
	pop	ecx
	mov	DWORD PTR _this$[ebp], ecx
	mov	DWORD PTR $T65151[ebp], 0
	push	OFFSET ??_C@_00CNPNBAHC@?$AA@
	mov	ecx, DWORD PTR ___$ReturnUdt$[ebp]
	call	??0?$basic_string@DU?$char_traits@D@std@@V?$allocator@D@2@@std@@QAE@PBD@Z ; std::basic_string<char,std::char_traits<char>,std::allocator<char> >::basic_string<char,std::char_traits<char>,std::allocator<char> >
	mov	eax, DWORD PTR $T65151[ebp]
	or	eax, 1
	mov	DWORD PTR $T65151[ebp], eax
	mov	eax, DWORD PTR ___$ReturnUdt$[ebp]
	pop	edi
	pop	esi
	pop	ebx
	add	esp, 216				; 000000d8H
	cmp	ebp, esp
	call	__RTC_CheckEsp
	mov	esp, ebp
	pop	ebp
	ret	4
?GetLeftString@AsmCmd@@UAE?AV?$basic_string@DU?$char_traits@D@std@@V?$allocator@D@2@@std@@XZ ENDP ; AsmCmd::GetLeftString
; Function compile flags: /Odtp /RTCsu /ZI
_TEXT	ENDS
;	COMDAT ?AsmCmd1Test@AsmCmd1@@UAE_NXZ
_TEXT	SEGMENT
_this$ = -8						; size = 4
?AsmCmd1Test@AsmCmd1@@UAE_NXZ PROC			; AsmCmd1::AsmCmd1Test, COMDAT
; _this$ = ecx
; Line 37
	push	ebp
	mov	ebp, esp
	sub	esp, 204				; 000000ccH
	push	ebx
	push	esi
	push	edi
	push	ecx
	lea	edi, DWORD PTR [ebp-204]
	mov	ecx, 51					; 00000033H
	mov	eax, -858993460				; ccccccccH
	rep stosd
	pop	ecx
	mov	DWORD PTR _this$[ebp], ecx
	mov	al, 1
	pop	edi
	pop	esi
	pop	ebx
	mov	esp, ebp
	pop	ebp
	ret	0
?AsmCmd1Test@AsmCmd1@@UAE_NXZ ENDP			; AsmCmd1::AsmCmd1Test
; Function compile flags: /Odtp /RTCsu /ZI
_TEXT	ENDS
;	COMDAT ?GetLeftReg@AsmCmd1@@UAE?AW4REG@@XZ
_TEXT	SEGMENT
_this$ = -8						; size = 4
?GetLeftReg@AsmCmd1@@UAE?AW4REG@@XZ PROC		; AsmCmd1::GetLeftReg, COMDAT
; _this$ = ecx
; Line 38
	push	ebp
	mov	ebp, esp
	sub	esp, 204				; 000000ccH
	push	ebx
	push	esi
	push	edi
	push	ecx
	lea	edi, DWORD PTR [ebp-204]
	mov	ecx, 51					; 00000033H
	mov	eax, -858993460				; ccccccccH
	rep stosd
	pop	ecx
	mov	DWORD PTR _this$[ebp], ecx
	mov	eax, DWORD PTR _this$[ebp]
	mov	eax, DWORD PTR [eax+40]
	pop	edi
	pop	esi
	pop	ebx
	mov	esp, ebp
	pop	ebp
	ret	0
?GetLeftReg@AsmCmd1@@UAE?AW4REG@@XZ ENDP		; AsmCmd1::GetLeftReg
_TEXT	ENDS
PUBLIC	??0?$basic_string@DU?$char_traits@D@std@@V?$allocator@D@2@@std@@QAE@ABV01@@Z ; std::basic_string<char,std::char_traits<char>,std::allocator<char> >::basic_string<char,std::char_traits<char>,std::allocator<char> >
; Function compile flags: /Odtp /RTCsu /ZI
;	COMDAT ?GetLeftString@AsmCmd1@@UAE?AV?$basic_string@DU?$char_traits@D@std@@V?$allocator@D@2@@std@@XZ
_TEXT	SEGMENT
$T65160 = -212						; size = 4
_this$ = -8						; size = 4
___$ReturnUdt$ = 8					; size = 4
?GetLeftString@AsmCmd1@@UAE?AV?$basic_string@DU?$char_traits@D@std@@V?$allocator@D@2@@std@@XZ PROC ; AsmCmd1::GetLeftString, COMDAT
; _this$ = ecx
; Line 39
	push	ebp
	mov	ebp, esp
	sub	esp, 216				; 000000d8H
	push	ebx
	push	esi
	push	edi
	push	ecx
	lea	edi, DWORD PTR [ebp-216]
	mov	ecx, 54					; 00000036H
	mov	eax, -858993460				; ccccccccH
	rep stosd
	pop	ecx
	mov	DWORD PTR _this$[ebp], ecx
	mov	DWORD PTR $T65160[ebp], 0
	mov	eax, DWORD PTR _this$[ebp]
	add	eax, 8
	push	eax
	mov	ecx, DWORD PTR ___$ReturnUdt$[ebp]
	call	??0?$basic_string@DU?$char_traits@D@std@@V?$allocator@D@2@@std@@QAE@ABV01@@Z ; std::basic_string<char,std::char_traits<char>,std::allocator<char> >::basic_string<char,std::char_traits<char>,std::allocator<char> >
	mov	ecx, DWORD PTR $T65160[ebp]
	or	ecx, 1
	mov	DWORD PTR $T65160[ebp], ecx
	mov	eax, DWORD PTR ___$ReturnUdt$[ebp]
	pop	edi
	pop	esi
	pop	ebx
	add	esp, 216				; 000000d8H
	cmp	ebp, esp
	call	__RTC_CheckEsp
	mov	esp, ebp
	pop	ebp
	ret	4
?GetLeftString@AsmCmd1@@UAE?AV?$basic_string@DU?$char_traits@D@std@@V?$allocator@D@2@@std@@XZ ENDP ; AsmCmd1::GetLeftString
_TEXT	ENDS
;	COMDAT xdata$x
xdata$x	SEGMENT
__unwindtable$??0AsmCmd2@@QAE@W4OPCODE@@W4REG@@V?$basic_string@DU?$char_traits@D@std@@V?$allocator@D@2@@std@@@Z DD 0ffffffffH
	DD	FLAT:__unwindfunclet$??0AsmCmd2@@QAE@W4OPCODE@@W4REG@@V?$basic_string@DU?$char_traits@D@std@@V?$allocator@D@2@@std@@@Z$0
	DD	00H
	DD	FLAT:__unwindfunclet$??0AsmCmd2@@QAE@W4OPCODE@@W4REG@@V?$basic_string@DU?$char_traits@D@std@@V?$allocator@D@2@@std@@@Z$1
	DD	01H
	DD	FLAT:__unwindfunclet$??0AsmCmd2@@QAE@W4OPCODE@@W4REG@@V?$basic_string@DU?$char_traits@D@std@@V?$allocator@D@2@@std@@@Z$2
__ehfuncinfo$??0AsmCmd2@@QAE@W4OPCODE@@W4REG@@V?$basic_string@DU?$char_traits@D@std@@V?$allocator@D@2@@std@@@Z DD 019930522H
	DD	03H
	DD	FLAT:__unwindtable$??0AsmCmd2@@QAE@W4OPCODE@@W4REG@@V?$basic_string@DU?$char_traits@D@std@@V?$allocator@D@2@@std@@@Z
	DD	2 DUP(00H)
	DD	2 DUP(00H)
	DD	00H
	DD	01H
; Function compile flags: /Odtp /RTCsu /ZI
xdata$x	ENDS
;	COMDAT ??0AsmCmd2@@QAE@W4OPCODE@@W4REG@@V?$basic_string@DU?$char_traits@D@std@@V?$allocator@D@2@@std@@@Z
_TEXT	SEGMENT
_this$ = -20						; size = 4
__$EHRec$ = -12						; size = 12
_op$ = 8						; size = 4
_oper1$ = 12						; size = 4
_immed$ = 16						; size = 32
??0AsmCmd2@@QAE@W4OPCODE@@W4REG@@V?$basic_string@DU?$char_traits@D@std@@V?$allocator@D@2@@std@@@Z PROC ; AsmCmd2::AsmCmd2, COMDAT
; _this$ = ecx
; Line 50
	push	ebp
	mov	ebp, esp
	push	-1
	push	__ehhandler$??0AsmCmd2@@QAE@W4OPCODE@@W4REG@@V?$basic_string@DU?$char_traits@D@std@@V?$allocator@D@2@@std@@@Z
	mov	eax, DWORD PTR fs:0
	push	eax
	sub	esp, 216				; 000000d8H
	push	ebx
	push	esi
	push	edi
	push	ecx
	lea	edi, DWORD PTR [ebp-228]
	mov	ecx, 54					; 00000036H
	mov	eax, -858993460				; ccccccccH
	rep stosd
	pop	ecx
	mov	eax, DWORD PTR ___security_cookie
	xor	eax, ebp
	push	eax
	lea	eax, DWORD PTR __$EHRec$[ebp]
	mov	DWORD PTR fs:0, eax
	mov	DWORD PTR _this$[ebp], ecx
	mov	DWORD PTR __$EHRec$[ebp+8], 0
	mov	eax, DWORD PTR _oper1$[ebp]
	push	eax
	mov	ecx, DWORD PTR _op$[ebp]
	push	ecx
	mov	ecx, DWORD PTR _this$[ebp]
	call	??0AsmCmd1@@QAE@W4OPCODE@@W4REG@@@Z	; AsmCmd1::AsmCmd1
	mov	BYTE PTR __$EHRec$[ebp+8], 1
	mov	eax, DWORD PTR _this$[ebp]
	mov	DWORD PTR [eax], OFFSET ??_7AsmCmd2@@6B@
	lea	eax, DWORD PTR _immed$[ebp]
	push	eax
	mov	ecx, DWORD PTR _this$[ebp]
	add	ecx, 44					; 0000002cH
	call	??0?$basic_string@DU?$char_traits@D@std@@V?$allocator@D@2@@std@@QAE@ABV01@@Z ; std::basic_string<char,std::char_traits<char>,std::allocator<char> >::basic_string<char,std::char_traits<char>,std::allocator<char> >
	mov	BYTE PTR __$EHRec$[ebp+8], 2
	mov	eax, DWORD PTR _this$[ebp]
	mov	DWORD PTR [eax+76], -1
	mov	ecx, DWORD PTR _this$[ebp]
	add	ecx, 80					; 00000050H
	call	??0?$basic_string@DU?$char_traits@D@std@@V?$allocator@D@2@@std@@QAE@XZ ; std::basic_string<char,std::char_traits<char>,std::allocator<char> >::basic_string<char,std::char_traits<char>,std::allocator<char> >
	mov	DWORD PTR __$EHRec$[ebp+8], -1
	lea	ecx, DWORD PTR _immed$[ebp]
	call	??1?$basic_string@DU?$char_traits@D@std@@V?$allocator@D@2@@std@@QAE@XZ ; std::basic_string<char,std::char_traits<char>,std::allocator<char> >::~basic_string<char,std::char_traits<char>,std::allocator<char> >
	mov	eax, DWORD PTR _this$[ebp]
	push	edx
	mov	ecx, ebp
	push	eax
	lea	edx, DWORD PTR $LN10@AsmCmd2
	call	@_RTC_CheckStackVars@8
	pop	eax
	pop	edx
	mov	ecx, DWORD PTR __$EHRec$[ebp]
	mov	DWORD PTR fs:0, ecx
	pop	ecx
	pop	edi
	pop	esi
	pop	ebx
	add	esp, 228				; 000000e4H
	cmp	ebp, esp
	call	__RTC_CheckEsp
	mov	esp, ebp
	pop	ebp
	ret	40					; 00000028H
	npad	2
$LN10@AsmCmd2:
	DD	1
	DD	$LN9@AsmCmd2
$LN9@AsmCmd2:
	DD	-32					; ffffffe0H
	DD	4
	DD	$LN7@AsmCmd2
$LN7@AsmCmd2:
	DB	95					; 0000005fH
	DB	36					; 00000024H
	DB	65					; 00000041H
	DB	114					; 00000072H
	DB	114					; 00000072H
	DB	97					; 00000061H
	DB	121					; 00000079H
	DB	80					; 00000050H
	DB	97					; 00000061H
	DB	100					; 00000064H
	DB	0
_TEXT	ENDS
;	COMDAT text$x
text$x	SEGMENT
__unwindfunclet$??0AsmCmd2@@QAE@W4OPCODE@@W4REG@@V?$basic_string@DU?$char_traits@D@std@@V?$allocator@D@2@@std@@@Z$0:
	lea	ecx, DWORD PTR _immed$[ebp]
	jmp	??1?$basic_string@DU?$char_traits@D@std@@V?$allocator@D@2@@std@@QAE@XZ ; std::basic_string<char,std::char_traits<char>,std::allocator<char> >::~basic_string<char,std::char_traits<char>,std::allocator<char> >
__unwindfunclet$??0AsmCmd2@@QAE@W4OPCODE@@W4REG@@V?$basic_string@DU?$char_traits@D@std@@V?$allocator@D@2@@std@@@Z$1:
	mov	ecx, DWORD PTR _this$[ebp]
	jmp	??1AsmCmd1@@QAE@XZ
__unwindfunclet$??0AsmCmd2@@QAE@W4OPCODE@@W4REG@@V?$basic_string@DU?$char_traits@D@std@@V?$allocator@D@2@@std@@@Z$2:
	mov	ecx, DWORD PTR _this$[ebp]
	add	ecx, 44					; 0000002cH
	jmp	??1?$basic_string@DU?$char_traits@D@std@@V?$allocator@D@2@@std@@QAE@XZ ; std::basic_string<char,std::char_traits<char>,std::allocator<char> >::~basic_string<char,std::char_traits<char>,std::allocator<char> >
__ehhandler$??0AsmCmd2@@QAE@W4OPCODE@@W4REG@@V?$basic_string@DU?$char_traits@D@std@@V?$allocator@D@2@@std@@@Z:
	mov	edx, DWORD PTR [esp+8]
	lea	eax, DWORD PTR [edx+12]
	mov	ecx, DWORD PTR [edx-232]
	xor	ecx, eax
	call	@__security_check_cookie@4
	mov	eax, OFFSET __ehfuncinfo$??0AsmCmd2@@QAE@W4OPCODE@@W4REG@@V?$basic_string@DU?$char_traits@D@std@@V?$allocator@D@2@@std@@@Z
	jmp	___CxxFrameHandler3
text$x	ENDS
??0AsmCmd2@@QAE@W4OPCODE@@W4REG@@V?$basic_string@DU?$char_traits@D@std@@V?$allocator@D@2@@std@@@Z ENDP ; AsmCmd2::AsmCmd2
; Function compile flags: /Odtp /RTCsu /ZI
;	COMDAT ?AsmCmd2Test@AsmCmd2@@UAE_NXZ
_TEXT	SEGMENT
_this$ = -8						; size = 4
?AsmCmd2Test@AsmCmd2@@UAE_NXZ PROC			; AsmCmd2::AsmCmd2Test, COMDAT
; _this$ = ecx
; Line 54
	push	ebp
	mov	ebp, esp
	sub	esp, 204				; 000000ccH
	push	ebx
	push	esi
	push	edi
	push	ecx
	lea	edi, DWORD PTR [ebp-204]
	mov	ecx, 51					; 00000033H
	mov	eax, -858993460				; ccccccccH
	rep stosd
	pop	ecx
	mov	DWORD PTR _this$[ebp], ecx
	mov	al, 1
	pop	edi
	pop	esi
	pop	ebx
	mov	esp, ebp
	pop	ebp
	ret	0
?AsmCmd2Test@AsmCmd2@@UAE_NXZ ENDP			; AsmCmd2::AsmCmd2Test
_TEXT	ENDS
PUBLIC	??$?8DU?$char_traits@D@std@@V?$allocator@D@1@@std@@YA_NABV?$basic_string@DU?$char_traits@D@std@@V?$allocator@D@2@@0@0@Z ; std::operator==<char,std::char_traits<char>,std::allocator<char> >
;	COMDAT xdata$x
xdata$x	SEGMENT
__unwindtable$?TestRightOp@AsmCmd2@@UAE_NV?$basic_string@DU?$char_traits@D@std@@V?$allocator@D@2@@std@@@Z DD 0ffffffffH
	DD	FLAT:__unwindfunclet$?TestRightOp@AsmCmd2@@UAE_NV?$basic_string@DU?$char_traits@D@std@@V?$allocator@D@2@@std@@@Z$0
__ehfuncinfo$?TestRightOp@AsmCmd2@@UAE_NV?$basic_string@DU?$char_traits@D@std@@V?$allocator@D@2@@std@@@Z DD 019930522H
	DD	01H
	DD	FLAT:__unwindtable$?TestRightOp@AsmCmd2@@UAE_NV?$basic_string@DU?$char_traits@D@std@@V?$allocator@D@2@@std@@@Z
	DD	2 DUP(00H)
	DD	2 DUP(00H)
	DD	00H
	DD	01H
; Function compile flags: /Odtp /RTCsu /ZI
xdata$x	ENDS
;	COMDAT ?TestRightOp@AsmCmd2@@UAE_NV?$basic_string@DU?$char_traits@D@std@@V?$allocator@D@2@@std@@@Z
_TEXT	SEGMENT
$T65183 = -233						; size = 1
_this$ = -20						; size = 4
__$EHRec$ = -12						; size = 12
_pattern$ = 8						; size = 32
?TestRightOp@AsmCmd2@@UAE_NV?$basic_string@DU?$char_traits@D@std@@V?$allocator@D@2@@std@@@Z PROC ; AsmCmd2::TestRightOp, COMDAT
; _this$ = ecx
; Line 55
	push	ebp
	mov	ebp, esp
	push	-1
	push	__ehhandler$?TestRightOp@AsmCmd2@@UAE_NV?$basic_string@DU?$char_traits@D@std@@V?$allocator@D@2@@std@@@Z
	mov	eax, DWORD PTR fs:0
	push	eax
	sub	esp, 228				; 000000e4H
	push	ebx
	push	esi
	push	edi
	push	ecx
	lea	edi, DWORD PTR [ebp-240]
	mov	ecx, 57					; 00000039H
	mov	eax, -858993460				; ccccccccH
	rep stosd
	pop	ecx
	mov	eax, DWORD PTR ___security_cookie
	xor	eax, ebp
	push	eax
	lea	eax, DWORD PTR __$EHRec$[ebp]
	mov	DWORD PTR fs:0, eax
	mov	DWORD PTR _this$[ebp], ecx
	mov	DWORD PTR __$EHRec$[ebp+8], 0
	lea	eax, DWORD PTR _pattern$[ebp]
	push	eax
	mov	ecx, DWORD PTR _this$[ebp]
	add	ecx, 44					; 0000002cH
	push	ecx
	call	??$?8DU?$char_traits@D@std@@V?$allocator@D@1@@std@@YA_NABV?$basic_string@DU?$char_traits@D@std@@V?$allocator@D@2@@0@0@Z ; std::operator==<char,std::char_traits<char>,std::allocator<char> >
	add	esp, 8
	mov	BYTE PTR $T65183[ebp], al
	mov	DWORD PTR __$EHRec$[ebp+8], -1
	lea	ecx, DWORD PTR _pattern$[ebp]
	call	??1?$basic_string@DU?$char_traits@D@std@@V?$allocator@D@2@@std@@QAE@XZ ; std::basic_string<char,std::char_traits<char>,std::allocator<char> >::~basic_string<char,std::char_traits<char>,std::allocator<char> >
	mov	al, BYTE PTR $T65183[ebp]
	push	edx
	mov	ecx, ebp
	push	eax
	lea	edx, DWORD PTR $LN7@TestRightO@2
	call	@_RTC_CheckStackVars@8
	pop	eax
	pop	edx
	mov	ecx, DWORD PTR __$EHRec$[ebp]
	mov	DWORD PTR fs:0, ecx
	pop	ecx
	pop	edi
	pop	esi
	pop	ebx
	add	esp, 240				; 000000f0H
	cmp	ebp, esp
	call	__RTC_CheckEsp
	mov	esp, ebp
	pop	ebp
	ret	32					; 00000020H
	npad	3
$LN7@TestRightO@2:
	DD	1
	DD	$LN6@TestRightO@2
$LN6@TestRightO@2:
	DD	-32					; ffffffe0H
	DD	4
	DD	$LN4@TestRightO@2
$LN4@TestRightO@2:
	DB	95					; 0000005fH
	DB	36					; 00000024H
	DB	65					; 00000041H
	DB	114					; 00000072H
	DB	114					; 00000072H
	DB	97					; 00000061H
	DB	121					; 00000079H
	DB	80					; 00000050H
	DB	97					; 00000061H
	DB	100					; 00000064H
	DB	0
_TEXT	ENDS
;	COMDAT text$x
text$x	SEGMENT
__unwindfunclet$?TestRightOp@AsmCmd2@@UAE_NV?$basic_string@DU?$char_traits@D@std@@V?$allocator@D@2@@std@@@Z$0:
	lea	ecx, DWORD PTR _pattern$[ebp]
	jmp	??1?$basic_string@DU?$char_traits@D@std@@V?$allocator@D@2@@std@@QAE@XZ ; std::basic_string<char,std::char_traits<char>,std::allocator<char> >::~basic_string<char,std::char_traits<char>,std::allocator<char> >
__ehhandler$?TestRightOp@AsmCmd2@@UAE_NV?$basic_string@DU?$char_traits@D@std@@V?$allocator@D@2@@std@@@Z:
	mov	edx, DWORD PTR [esp+8]
	lea	eax, DWORD PTR [edx+12]
	mov	ecx, DWORD PTR [edx-244]
	xor	ecx, eax
	call	@__security_check_cookie@4
	mov	eax, OFFSET __ehfuncinfo$?TestRightOp@AsmCmd2@@UAE_NV?$basic_string@DU?$char_traits@D@std@@V?$allocator@D@2@@std@@@Z
	jmp	___CxxFrameHandler3
text$x	ENDS
?TestRightOp@AsmCmd2@@UAE_NV?$basic_string@DU?$char_traits@D@std@@V?$allocator@D@2@@std@@@Z ENDP ; AsmCmd2::TestRightOp
PUBLIC	??$?8DU?$char_traits@D@std@@V?$allocator@D@1@@std@@YA_NABV?$basic_string@DU?$char_traits@D@std@@V?$allocator@D@2@@0@PBD@Z ; std::operator==<char,std::char_traits<char>,std::allocator<char> >
; Function compile flags: /Odtp /RTCsu /ZI
;	COMDAT ?GetRightStringOp@AsmCmd2@@UAE?AV?$basic_string@DU?$char_traits@D@std@@V?$allocator@D@2@@std@@XZ
_TEXT	SEGMENT
tv74 = -232						; size = 4
$T65196 = -224						; size = 4
$T65200 = -212						; size = 4
_this$ = -8						; size = 4
___$ReturnUdt$ = 8					; size = 4
