; Listing generated by Microsoft (R) Optimizing Compiler Version 16.00.30319.01 

	TITLE	C:\Users\Дмитрий\Documents\Visual Studio 2010\Projects\Scanner\Scanner\Scanner.cpp
	.686P
	.XMM
	include listing.inc
	.model	flat

INCLUDELIB LIBCMTD
INCLUDELIB OLDNAMES

PUBLIC	?has_denorm@_Num_base@std@@2W4float_denorm_style@2@B ; std::_Num_base::has_denorm
PUBLIC	?has_denorm_loss@_Num_base@std@@2_NB		; std::_Num_base::has_denorm_loss
PUBLIC	?has_infinity@_Num_base@std@@2_NB		; std::_Num_base::has_infinity
PUBLIC	?has_quiet_NaN@_Num_base@std@@2_NB		; std::_Num_base::has_quiet_NaN
PUBLIC	?has_signaling_NaN@_Num_base@std@@2_NB		; std::_Num_base::has_signaling_NaN
PUBLIC	?is_bounded@_Num_base@std@@2_NB			; std::_Num_base::is_bounded
PUBLIC	?is_exact@_Num_base@std@@2_NB			; std::_Num_base::is_exact
PUBLIC	?is_iec559@_Num_base@std@@2_NB			; std::_Num_base::is_iec559
PUBLIC	?is_integer@_Num_base@std@@2_NB			; std::_Num_base::is_integer
PUBLIC	?is_modulo@_Num_base@std@@2_NB			; std::_Num_base::is_modulo
PUBLIC	?is_signed@_Num_base@std@@2_NB			; std::_Num_base::is_signed
PUBLIC	?is_specialized@_Num_base@std@@2_NB		; std::_Num_base::is_specialized
PUBLIC	?tinyness_before@_Num_base@std@@2_NB		; std::_Num_base::tinyness_before
PUBLIC	?traps@_Num_base@std@@2_NB			; std::_Num_base::traps
PUBLIC	?round_style@_Num_base@std@@2W4float_round_style@2@B ; std::_Num_base::round_style
PUBLIC	?digits@_Num_base@std@@2HB			; std::_Num_base::digits
PUBLIC	?digits10@_Num_base@std@@2HB			; std::_Num_base::digits10
PUBLIC	?max_digits10@_Num_base@std@@2HB		; std::_Num_base::max_digits10
PUBLIC	?max_exponent@_Num_base@std@@2HB		; std::_Num_base::max_exponent
PUBLIC	?max_exponent10@_Num_base@std@@2HB		; std::_Num_base::max_exponent10
PUBLIC	?min_exponent@_Num_base@std@@2HB		; std::_Num_base::min_exponent
PUBLIC	?min_exponent10@_Num_base@std@@2HB		; std::_Num_base::min_exponent10
PUBLIC	?radix@_Num_base@std@@2HB			; std::_Num_base::radix
PUBLIC	?is_bounded@_Num_int_base@std@@2_NB		; std::_Num_int_base::is_bounded
PUBLIC	?is_exact@_Num_int_base@std@@2_NB		; std::_Num_int_base::is_exact
PUBLIC	?is_integer@_Num_int_base@std@@2_NB		; std::_Num_int_base::is_integer
PUBLIC	?is_modulo@_Num_int_base@std@@2_NB		; std::_Num_int_base::is_modulo
PUBLIC	?is_specialized@_Num_int_base@std@@2_NB		; std::_Num_int_base::is_specialized
PUBLIC	?radix@_Num_int_base@std@@2HB			; std::_Num_int_base::radix
PUBLIC	?has_denorm@_Num_float_base@std@@2W4float_denorm_style@2@B ; std::_Num_float_base::has_denorm
PUBLIC	?has_denorm_loss@_Num_float_base@std@@2_NB	; std::_Num_float_base::has_denorm_loss
PUBLIC	?has_infinity@_Num_float_base@std@@2_NB		; std::_Num_float_base::has_infinity
PUBLIC	?has_quiet_NaN@_Num_float_base@std@@2_NB	; std::_Num_float_base::has_quiet_NaN
PUBLIC	?has_signaling_NaN@_Num_float_base@std@@2_NB	; std::_Num_float_base::has_signaling_NaN
PUBLIC	?is_bounded@_Num_float_base@std@@2_NB		; std::_Num_float_base::is_bounded
PUBLIC	?is_exact@_Num_float_base@std@@2_NB		; std::_Num_float_base::is_exact
PUBLIC	?is_iec559@_Num_float_base@std@@2_NB		; std::_Num_float_base::is_iec559
PUBLIC	?is_integer@_Num_float_base@std@@2_NB		; std::_Num_float_base::is_integer
PUBLIC	?is_modulo@_Num_float_base@std@@2_NB		; std::_Num_float_base::is_modulo
PUBLIC	?is_signed@_Num_float_base@std@@2_NB		; std::_Num_float_base::is_signed
PUBLIC	?is_specialized@_Num_float_base@std@@2_NB	; std::_Num_float_base::is_specialized
PUBLIC	?tinyness_before@_Num_float_base@std@@2_NB	; std::_Num_float_base::tinyness_before
PUBLIC	?traps@_Num_float_base@std@@2_NB		; std::_Num_float_base::traps
PUBLIC	?round_style@_Num_float_base@std@@2W4float_round_style@2@B ; std::_Num_float_base::round_style
PUBLIC	?radix@_Num_float_base@std@@2HB			; std::_Num_float_base::radix
PUBLIC	?is_signed@?$numeric_limits@D@std@@2_NB		; std::numeric_limits<char>::is_signed
PUBLIC	?digits@?$numeric_limits@D@std@@2HB		; std::numeric_limits<char>::digits
PUBLIC	?digits10@?$numeric_limits@D@std@@2HB		; std::numeric_limits<char>::digits10
PUBLIC	?max_digits10@?$numeric_limits@D@std@@2HB	; std::numeric_limits<char>::max_digits10
PUBLIC	?is_signed@?$numeric_limits@_W@std@@2_NB	; std::numeric_limits<wchar_t>::is_signed
PUBLIC	?digits@?$numeric_limits@_W@std@@2HB		; std::numeric_limits<wchar_t>::digits
PUBLIC	?digits10@?$numeric_limits@_W@std@@2HB		; std::numeric_limits<wchar_t>::digits10
PUBLIC	?max_digits10@?$numeric_limits@_W@std@@2HB	; std::numeric_limits<wchar_t>::max_digits10
PUBLIC	?is_modulo@?$numeric_limits@_N@std@@2_NB	; std::numeric_limits<bool>::is_modulo
PUBLIC	?is_signed@?$numeric_limits@_N@std@@2_NB	; std::numeric_limits<bool>::is_signed
PUBLIC	?digits@?$numeric_limits@_N@std@@2HB		; std::numeric_limits<bool>::digits
PUBLIC	?digits10@?$numeric_limits@_N@std@@2HB		; std::numeric_limits<bool>::digits10
PUBLIC	?max_digits10@?$numeric_limits@_N@std@@2HB	; std::numeric_limits<bool>::max_digits10
PUBLIC	?is_signed@?$numeric_limits@C@std@@2_NB		; std::numeric_limits<signed char>::is_signed
PUBLIC	?digits@?$numeric_limits@C@std@@2HB		; std::numeric_limits<signed char>::digits
PUBLIC	?digits10@?$numeric_limits@C@std@@2HB		; std::numeric_limits<signed char>::digits10
PUBLIC	?max_digits10@?$numeric_limits@C@std@@2HB	; std::numeric_limits<signed char>::max_digits10
PUBLIC	?is_signed@?$numeric_limits@E@std@@2_NB		; std::numeric_limits<unsigned char>::is_signed
PUBLIC	?digits@?$numeric_limits@E@std@@2HB		; std::numeric_limits<unsigned char>::digits
PUBLIC	?digits10@?$numeric_limits@E@std@@2HB		; std::numeric_limits<unsigned char>::digits10
PUBLIC	?max_digits10@?$numeric_limits@E@std@@2HB	; std::numeric_limits<unsigned char>::max_digits10
PUBLIC	?is_signed@?$numeric_limits@F@std@@2_NB		; std::numeric_limits<short>::is_signed
PUBLIC	?digits@?$numeric_limits@F@std@@2HB		; std::numeric_limits<short>::digits
PUBLIC	?digits10@?$numeric_limits@F@std@@2HB		; std::numeric_limits<short>::digits10
PUBLIC	?max_digits10@?$numeric_limits@F@std@@2HB	; std::numeric_limits<short>::max_digits10
PUBLIC	?is_signed@?$numeric_limits@G@std@@2_NB		; std::numeric_limits<unsigned short>::is_signed
PUBLIC	?digits@?$numeric_limits@G@std@@2HB		; std::numeric_limits<unsigned short>::digits
PUBLIC	?digits10@?$numeric_limits@G@std@@2HB		; std::numeric_limits<unsigned short>::digits10
PUBLIC	?max_digits10@?$numeric_limits@G@std@@2HB	; std::numeric_limits<unsigned short>::max_digits10
PUBLIC	?is_signed@?$numeric_limits@H@std@@2_NB		; std::numeric_limits<int>::is_signed
PUBLIC	?digits@?$numeric_limits@H@std@@2HB		; std::numeric_limits<int>::digits
PUBLIC	?digits10@?$numeric_limits@H@std@@2HB		; std::numeric_limits<int>::digits10
PUBLIC	?max_digits10@?$numeric_limits@H@std@@2HB	; std::numeric_limits<int>::max_digits10
PUBLIC	?is_signed@?$numeric_limits@I@std@@2_NB		; std::numeric_limits<unsigned int>::is_signed
PUBLIC	?digits@?$numeric_limits@I@std@@2HB		; std::numeric_limits<unsigned int>::digits
PUBLIC	?digits10@?$numeric_limits@I@std@@2HB		; std::numeric_limits<unsigned int>::digits10
PUBLIC	?max_digits10@?$numeric_limits@I@std@@2HB	; std::numeric_limits<unsigned int>::max_digits10
PUBLIC	?is_signed@?$numeric_limits@J@std@@2_NB		; std::numeric_limits<long>::is_signed
PUBLIC	?digits@?$numeric_limits@J@std@@2HB		; std::numeric_limits<long>::digits
PUBLIC	?digits10@?$numeric_limits@J@std@@2HB		; std::numeric_limits<long>::digits10
PUBLIC	?max_digits10@?$numeric_limits@J@std@@2HB	; std::numeric_limits<long>::max_digits10
PUBLIC	?is_signed@?$numeric_limits@K@std@@2_NB		; std::numeric_limits<unsigned long>::is_signed
PUBLIC	?digits@?$numeric_limits@K@std@@2HB		; std::numeric_limits<unsigned long>::digits
PUBLIC	?digits10@?$numeric_limits@K@std@@2HB		; std::numeric_limits<unsigned long>::digits10
PUBLIC	?max_digits10@?$numeric_limits@K@std@@2HB	; std::numeric_limits<unsigned long>::max_digits10
PUBLIC	?is_signed@?$numeric_limits@_J@std@@2_NB	; std::numeric_limits<__int64>::is_signed
PUBLIC	?digits@?$numeric_limits@_J@std@@2HB		; std::numeric_limits<__int64>::digits
PUBLIC	?digits10@?$numeric_limits@_J@std@@2HB		; std::numeric_limits<__int64>::digits10
PUBLIC	?max_digits10@?$numeric_limits@_J@std@@2HB	; std::numeric_limits<__int64>::max_digits10
PUBLIC	?is_signed@?$numeric_limits@_K@std@@2_NB	; std::numeric_limits<unsigned __int64>::is_signed
PUBLIC	?digits@?$numeric_limits@_K@std@@2HB		; std::numeric_limits<unsigned __int64>::digits
PUBLIC	?digits10@?$numeric_limits@_K@std@@2HB		; std::numeric_limits<unsigned __int64>::digits10
PUBLIC	?max_digits10@?$numeric_limits@_K@std@@2HB	; std::numeric_limits<unsigned __int64>::max_digits10
PUBLIC	?digits@?$numeric_limits@M@std@@2HB		; std::numeric_limits<float>::digits
PUBLIC	?digits10@?$numeric_limits@M@std@@2HB		; std::numeric_limits<float>::digits10
PUBLIC	?max_digits10@?$numeric_limits@M@std@@2HB	; std::numeric_limits<float>::max_digits10
PUBLIC	?max_exponent@?$numeric_limits@M@std@@2HB	; std::numeric_limits<float>::max_exponent
PUBLIC	?max_exponent10@?$numeric_limits@M@std@@2HB	; std::numeric_limits<float>::max_exponent10
PUBLIC	?min_exponent@?$numeric_limits@M@std@@2HB	; std::numeric_limits<float>::min_exponent
PUBLIC	?min_exponent10@?$numeric_limits@M@std@@2HB	; std::numeric_limits<float>::min_exponent10
PUBLIC	?digits@?$numeric_limits@N@std@@2HB		; std::numeric_limits<double>::digits
PUBLIC	?digits10@?$numeric_limits@N@std@@2HB		; std::numeric_limits<double>::digits10
PUBLIC	?max_digits10@?$numeric_limits@N@std@@2HB	; std::numeric_limits<double>::max_digits10
PUBLIC	?max_exponent@?$numeric_limits@N@std@@2HB	; std::numeric_limits<double>::max_exponent
PUBLIC	?max_exponent10@?$numeric_limits@N@std@@2HB	; std::numeric_limits<double>::max_exponent10
PUBLIC	?min_exponent@?$numeric_limits@N@std@@2HB	; std::numeric_limits<double>::min_exponent
PUBLIC	?min_exponent10@?$numeric_limits@N@std@@2HB	; std::numeric_limits<double>::min_exponent10
PUBLIC	?digits@?$numeric_limits@O@std@@2HB		; std::numeric_limits<long double>::digits
PUBLIC	?digits10@?$numeric_limits@O@std@@2HB		; std::numeric_limits<long double>::digits10
PUBLIC	?max_digits10@?$numeric_limits@O@std@@2HB	; std::numeric_limits<long double>::max_digits10
PUBLIC	?max_exponent@?$numeric_limits@O@std@@2HB	; std::numeric_limits<long double>::max_exponent
PUBLIC	?max_exponent10@?$numeric_limits@O@std@@2HB	; std::numeric_limits<long double>::max_exponent10
PUBLIC	?min_exponent@?$numeric_limits@O@std@@2HB	; std::numeric_limits<long double>::min_exponent
PUBLIC	?min_exponent10@?$numeric_limits@O@std@@2HB	; std::numeric_limits<long double>::min_exponent10
PUBLIC	?value@?$integral_constant@_N$0A@@tr1@std@@2_NB	; std::tr1::integral_constant<bool,0>::value
PUBLIC	?value@?$integral_constant@_N$00@tr1@std@@2_NB	; std::tr1::integral_constant<bool,1>::value
PUBLIC	?value@?$integral_constant@I$0A@@tr1@std@@2IB	; std::tr1::integral_constant<unsigned int,0>::value
PUBLIC	?_Rank@?$_Arithmetic_traits@_N@std@@2HB		; std::_Arithmetic_traits<bool>::_Rank
PUBLIC	?_Rank@?$_Arithmetic_traits@D@std@@2HB		; std::_Arithmetic_traits<char>::_Rank
PUBLIC	?_Rank@?$_Arithmetic_traits@C@std@@2HB		; std::_Arithmetic_traits<signed char>::_Rank
PUBLIC	?_Rank@?$_Arithmetic_traits@E@std@@2HB		; std::_Arithmetic_traits<unsigned char>::_Rank
PUBLIC	?_Rank@?$_Arithmetic_traits@F@std@@2HB		; std::_Arithmetic_traits<short>::_Rank
PUBLIC	?_Rank@?$_Arithmetic_traits@G@std@@2HB		; std::_Arithmetic_traits<unsigned short>::_Rank
PUBLIC	?_Rank@?$_Arithmetic_traits@H@std@@2HB		; std::_Arithmetic_traits<int>::_Rank
PUBLIC	?_Rank@?$_Arithmetic_traits@I@std@@2HB		; std::_Arithmetic_traits<unsigned int>::_Rank
PUBLIC	?_Rank@?$_Arithmetic_traits@J@std@@2HB		; std::_Arithmetic_traits<long>::_Rank
PUBLIC	?_Rank@?$_Arithmetic_traits@K@std@@2HB		; std::_Arithmetic_traits<unsigned long>::_Rank
PUBLIC	?_Rank@?$_Arithmetic_traits@_J@std@@2HB		; std::_Arithmetic_traits<__int64>::_Rank
PUBLIC	?_Rank@?$_Arithmetic_traits@_K@std@@2HB		; std::_Arithmetic_traits<unsigned __int64>::_Rank
PUBLIC	?_Rank@?$_Arithmetic_traits@M@std@@2HB		; std::_Arithmetic_traits<float>::_Rank
PUBLIC	?_Rank@?$_Arithmetic_traits@N@std@@2HB		; std::_Arithmetic_traits<double>::_Rank
PUBLIC	?_Rank@?$_Arithmetic_traits@O@std@@2HB		; std::_Arithmetic_traits<long double>::_Rank
PUBLIC	?collate@?$_Locbase@H@std@@2HB			; std::_Locbase<int>::collate
PUBLIC	?ctype@?$_Locbase@H@std@@2HB			; std::_Locbase<int>::ctype
PUBLIC	?monetary@?$_Locbase@H@std@@2HB			; std::_Locbase<int>::monetary
PUBLIC	?numeric@?$_Locbase@H@std@@2HB			; std::_Locbase<int>::numeric
PUBLIC	?time@?$_Locbase@H@std@@2HB			; std::_Locbase<int>::time
PUBLIC	?messages@?$_Locbase@H@std@@2HB			; std::_Locbase<int>::messages
PUBLIC	?all@?$_Locbase@H@std@@2HB			; std::_Locbase<int>::all
PUBLIC	?none@?$_Locbase@H@std@@2HB			; std::_Locbase<int>::none
PUBLIC	?table_size@?$ctype@D@std@@2IB			; std::ctype<char>::table_size
PUBLIC	?skipws@?$_Iosb@H@std@@2W4_Fmtflags@12@B	; std::_Iosb<int>::skipws
PUBLIC	?unitbuf@?$_Iosb@H@std@@2W4_Fmtflags@12@B	; std::_Iosb<int>::unitbuf
PUBLIC	?uppercase@?$_Iosb@H@std@@2W4_Fmtflags@12@B	; std::_Iosb<int>::uppercase
PUBLIC	?showbase@?$_Iosb@H@std@@2W4_Fmtflags@12@B	; std::_Iosb<int>::showbase
PUBLIC	?showpoint@?$_Iosb@H@std@@2W4_Fmtflags@12@B	; std::_Iosb<int>::showpoint
PUBLIC	?showpos@?$_Iosb@H@std@@2W4_Fmtflags@12@B	; std::_Iosb<int>::showpos
PUBLIC	?left@?$_Iosb@H@std@@2W4_Fmtflags@12@B		; std::_Iosb<int>::left
PUBLIC	?right@?$_Iosb@H@std@@2W4_Fmtflags@12@B		; std::_Iosb<int>::right
PUBLIC	?internal@?$_Iosb@H@std@@2W4_Fmtflags@12@B	; std::_Iosb<int>::internal
PUBLIC	?dec@?$_Iosb@H@std@@2W4_Fmtflags@12@B		; std::_Iosb<int>::dec
PUBLIC	?oct@?$_Iosb@H@std@@2W4_Fmtflags@12@B		; std::_Iosb<int>::oct
PUBLIC	?hex@?$_Iosb@H@std@@2W4_Fmtflags@12@B		; std::_Iosb<int>::hex
PUBLIC	?scientific@?$_Iosb@H@std@@2W4_Fmtflags@12@B	; std::_Iosb<int>::scientific
PUBLIC	?fixed@?$_Iosb@H@std@@2W4_Fmtflags@12@B		; std::_Iosb<int>::fixed
PUBLIC	?hexfloat@?$_Iosb@H@std@@2W4_Fmtflags@12@B	; std::_Iosb<int>::hexfloat
PUBLIC	?boolalpha@?$_Iosb@H@std@@2W4_Fmtflags@12@B	; std::_Iosb<int>::boolalpha
PUBLIC	?_Stdio@?$_Iosb@H@std@@2W4_Fmtflags@12@B	; std::_Iosb<int>::_Stdio
PUBLIC	?adjustfield@?$_Iosb@H@std@@2W4_Fmtflags@12@B	; std::_Iosb<int>::adjustfield
PUBLIC	?basefield@?$_Iosb@H@std@@2W4_Fmtflags@12@B	; std::_Iosb<int>::basefield
PUBLIC	?floatfield@?$_Iosb@H@std@@2W4_Fmtflags@12@B	; std::_Iosb<int>::floatfield
PUBLIC	?goodbit@?$_Iosb@H@std@@2W4_Iostate@12@B	; std::_Iosb<int>::goodbit
PUBLIC	?eofbit@?$_Iosb@H@std@@2W4_Iostate@12@B		; std::_Iosb<int>::eofbit
PUBLIC	?failbit@?$_Iosb@H@std@@2W4_Iostate@12@B	; std::_Iosb<int>::failbit
PUBLIC	?badbit@?$_Iosb@H@std@@2W4_Iostate@12@B		; std::_Iosb<int>::badbit
PUBLIC	?_Hardfail@?$_Iosb@H@std@@2W4_Iostate@12@B	; std::_Iosb<int>::_Hardfail
PUBLIC	?in@?$_Iosb@H@std@@2W4_Openmode@12@B		; std::_Iosb<int>::in
PUBLIC	?out@?$_Iosb@H@std@@2W4_Openmode@12@B		; std::_Iosb<int>::out
PUBLIC	?ate@?$_Iosb@H@std@@2W4_Openmode@12@B		; std::_Iosb<int>::ate
PUBLIC	?app@?$_Iosb@H@std@@2W4_Openmode@12@B		; std::_Iosb<int>::app
PUBLIC	?trunc@?$_Iosb@H@std@@2W4_Openmode@12@B		; std::_Iosb<int>::trunc
PUBLIC	?_Nocreate@?$_Iosb@H@std@@2W4_Openmode@12@B	; std::_Iosb<int>::_Nocreate
PUBLIC	?_Noreplace@?$_Iosb@H@std@@2W4_Openmode@12@B	; std::_Iosb<int>::_Noreplace
PUBLIC	?binary@?$_Iosb@H@std@@2W4_Openmode@12@B	; std::_Iosb<int>::binary
PUBLIC	?beg@?$_Iosb@H@std@@2W4_Seekdir@12@B		; std::_Iosb<int>::beg
PUBLIC	?cur@?$_Iosb@H@std@@2W4_Seekdir@12@B		; std::_Iosb<int>::cur
PUBLIC	?end@?$_Iosb@H@std@@2W4_Seekdir@12@B		; std::_Iosb<int>::end
PUBLIC	?_EEM_DS@?$deque@DV?$allocator@D@std@@@std@@2HB	; std::deque<char,std::allocator<char> >::_EEM_DS
;	COMDAT ?_EEM_DS@?$deque@DV?$allocator@D@std@@@std@@2HB
CONST	SEGMENT
?_EEM_DS@?$deque@DV?$allocator@D@std@@@std@@2HB DD 010H	; std::deque<char,std::allocator<char> >::_EEM_DS
CONST	ENDS
;	COMDAT ?end@?$_Iosb@H@std@@2W4_Seekdir@12@B
CONST	SEGMENT
?end@?$_Iosb@H@std@@2W4_Seekdir@12@B DD 02H		; std::_Iosb<int>::end
CONST	ENDS
;	COMDAT ?cur@?$_Iosb@H@std@@2W4_Seekdir@12@B
CONST	SEGMENT
?cur@?$_Iosb@H@std@@2W4_Seekdir@12@B DD 01H		; std::_Iosb<int>::cur
CONST	ENDS
;	COMDAT ?beg@?$_Iosb@H@std@@2W4_Seekdir@12@B
CONST	SEGMENT
?beg@?$_Iosb@H@std@@2W4_Seekdir@12@B DD 00H		; std::_Iosb<int>::beg
CONST	ENDS
;	COMDAT ?binary@?$_Iosb@H@std@@2W4_Openmode@12@B
CONST	SEGMENT
?binary@?$_Iosb@H@std@@2W4_Openmode@12@B DD 020H	; std::_Iosb<int>::binary
CONST	ENDS
;	COMDAT ?_Noreplace@?$_Iosb@H@std@@2W4_Openmode@12@B
CONST	SEGMENT
?_Noreplace@?$_Iosb@H@std@@2W4_Openmode@12@B DD 080H	; std::_Iosb<int>::_Noreplace
CONST	ENDS
;	COMDAT ?_Nocreate@?$_Iosb@H@std@@2W4_Openmode@12@B
CONST	SEGMENT
?_Nocreate@?$_Iosb@H@std@@2W4_Openmode@12@B DD 040H	; std::_Iosb<int>::_Nocreate
CONST	ENDS
;	COMDAT ?trunc@?$_Iosb@H@std@@2W4_Openmode@12@B
CONST	SEGMENT
?trunc@?$_Iosb@H@std@@2W4_Openmode@12@B DD 010H		; std::_Iosb<int>::trunc
CONST	ENDS
;	COMDAT ?app@?$_Iosb@H@std@@2W4_Openmode@12@B
CONST	SEGMENT
?app@?$_Iosb@H@std@@2W4_Openmode@12@B DD 08H		; std::_Iosb<int>::app
CONST	ENDS
;	COMDAT ?ate@?$_Iosb@H@std@@2W4_Openmode@12@B
CONST	SEGMENT
?ate@?$_Iosb@H@std@@2W4_Openmode@12@B DD 04H		; std::_Iosb<int>::ate
CONST	ENDS
;	COMDAT ?out@?$_Iosb@H@std@@2W4_Openmode@12@B
CONST	SEGMENT
?out@?$_Iosb@H@std@@2W4_Openmode@12@B DD 02H		; std::_Iosb<int>::out
CONST	ENDS
;	COMDAT ?in@?$_Iosb@H@std@@2W4_Openmode@12@B
CONST	SEGMENT
?in@?$_Iosb@H@std@@2W4_Openmode@12@B DD 01H		; std::_Iosb<int>::in
CONST	ENDS
;	COMDAT ?_Hardfail@?$_Iosb@H@std@@2W4_Iostate@12@B
CONST	SEGMENT
?_Hardfail@?$_Iosb@H@std@@2W4_Iostate@12@B DD 010H	; std::_Iosb<int>::_Hardfail
CONST	ENDS
;	COMDAT ?badbit@?$_Iosb@H@std@@2W4_Iostate@12@B
CONST	SEGMENT
?badbit@?$_Iosb@H@std@@2W4_Iostate@12@B DD 04H		; std::_Iosb<int>::badbit
CONST	ENDS
;	COMDAT ?failbit@?$_Iosb@H@std@@2W4_Iostate@12@B
CONST	SEGMENT
?failbit@?$_Iosb@H@std@@2W4_Iostate@12@B DD 02H		; std::_Iosb<int>::failbit
CONST	ENDS
;	COMDAT ?eofbit@?$_Iosb@H@std@@2W4_Iostate@12@B
CONST	SEGMENT
?eofbit@?$_Iosb@H@std@@2W4_Iostate@12@B DD 01H		; std::_Iosb<int>::eofbit
CONST	ENDS
;	COMDAT ?goodbit@?$_Iosb@H@std@@2W4_Iostate@12@B
CONST	SEGMENT
?goodbit@?$_Iosb@H@std@@2W4_Iostate@12@B DD 00H		; std::_Iosb<int>::goodbit
CONST	ENDS
;	COMDAT ?floatfield@?$_Iosb@H@std@@2W4_Fmtflags@12@B
CONST	SEGMENT
?floatfield@?$_Iosb@H@std@@2W4_Fmtflags@12@B DD 03000H	; std::_Iosb<int>::floatfield
CONST	ENDS
;	COMDAT ?basefield@?$_Iosb@H@std@@2W4_Fmtflags@12@B
CONST	SEGMENT
?basefield@?$_Iosb@H@std@@2W4_Fmtflags@12@B DD 0e00H	; std::_Iosb<int>::basefield
CONST	ENDS
;	COMDAT ?adjustfield@?$_Iosb@H@std@@2W4_Fmtflags@12@B
CONST	SEGMENT
?adjustfield@?$_Iosb@H@std@@2W4_Fmtflags@12@B DD 01c0H	; std::_Iosb<int>::adjustfield
CONST	ENDS
;	COMDAT ?_Stdio@?$_Iosb@H@std@@2W4_Fmtflags@12@B
CONST	SEGMENT
?_Stdio@?$_Iosb@H@std@@2W4_Fmtflags@12@B DD 08000H	; std::_Iosb<int>::_Stdio
CONST	ENDS
;	COMDAT ?boolalpha@?$_Iosb@H@std@@2W4_Fmtflags@12@B
CONST	SEGMENT
?boolalpha@?$_Iosb@H@std@@2W4_Fmtflags@12@B DD 04000H	; std::_Iosb<int>::boolalpha
CONST	ENDS
;	COMDAT ?hexfloat@?$_Iosb@H@std@@2W4_Fmtflags@12@B
CONST	SEGMENT
?hexfloat@?$_Iosb@H@std@@2W4_Fmtflags@12@B DD 03000H	; std::_Iosb<int>::hexfloat
CONST	ENDS
;	COMDAT ?fixed@?$_Iosb@H@std@@2W4_Fmtflags@12@B
CONST	SEGMENT
?fixed@?$_Iosb@H@std@@2W4_Fmtflags@12@B DD 02000H	; std::_Iosb<int>::fixed
CONST	ENDS
;	COMDAT ?scientific@?$_Iosb@H@std@@2W4_Fmtflags@12@B
CONST	SEGMENT
?scientific@?$_Iosb@H@std@@2W4_Fmtflags@12@B DD 01000H	; std::_Iosb<int>::scientific
CONST	ENDS
;	COMDAT ?hex@?$_Iosb@H@std@@2W4_Fmtflags@12@B
CONST	SEGMENT
?hex@?$_Iosb@H@std@@2W4_Fmtflags@12@B DD 0800H		; std::_Iosb<int>::hex
CONST	ENDS
;	COMDAT ?oct@?$_Iosb@H@std@@2W4_Fmtflags@12@B
CONST	SEGMENT
?oct@?$_Iosb@H@std@@2W4_Fmtflags@12@B DD 0400H		; std::_Iosb<int>::oct
CONST	ENDS
;	COMDAT ?dec@?$_Iosb@H@std@@2W4_Fmtflags@12@B
CONST	SEGMENT
?dec@?$_Iosb@H@std@@2W4_Fmtflags@12@B DD 0200H		; std::_Iosb<int>::dec
CONST	ENDS
;	COMDAT ?internal@?$_Iosb@H@std@@2W4_Fmtflags@12@B
CONST	SEGMENT
?internal@?$_Iosb@H@std@@2W4_Fmtflags@12@B DD 0100H	; std::_Iosb<int>::internal
CONST	ENDS
;	COMDAT ?right@?$_Iosb@H@std@@2W4_Fmtflags@12@B
CONST	SEGMENT
?right@?$_Iosb@H@std@@2W4_Fmtflags@12@B DD 080H		; std::_Iosb<int>::right
CONST	ENDS
;	COMDAT ?left@?$_Iosb@H@std@@2W4_Fmtflags@12@B
CONST	SEGMENT
?left@?$_Iosb@H@std@@2W4_Fmtflags@12@B DD 040H		; std::_Iosb<int>::left
CONST	ENDS
;	COMDAT ?showpos@?$_Iosb@H@std@@2W4_Fmtflags@12@B
CONST	SEGMENT
?showpos@?$_Iosb@H@std@@2W4_Fmtflags@12@B DD 020H	; std::_Iosb<int>::showpos
CONST	ENDS
;	COMDAT ?showpoint@?$_Iosb@H@std@@2W4_Fmtflags@12@B
CONST	SEGMENT
?showpoint@?$_Iosb@H@std@@2W4_Fmtflags@12@B DD 010H	; std::_Iosb<int>::showpoint
CONST	ENDS
;	COMDAT ?showbase@?$_Iosb@H@std@@2W4_Fmtflags@12@B
CONST	SEGMENT
?showbase@?$_Iosb@H@std@@2W4_Fmtflags@12@B DD 08H	; std::_Iosb<int>::showbase
CONST	ENDS
;	COMDAT ?uppercase@?$_Iosb@H@std@@2W4_Fmtflags@12@B
CONST	SEGMENT
?uppercase@?$_Iosb@H@std@@2W4_Fmtflags@12@B DD 04H	; std::_Iosb<int>::uppercase
CONST	ENDS
;	COMDAT ?unitbuf@?$_Iosb@H@std@@2W4_Fmtflags@12@B
CONST	SEGMENT
?unitbuf@?$_Iosb@H@std@@2W4_Fmtflags@12@B DD 02H	; std::_Iosb<int>::unitbuf
CONST	ENDS
;	COMDAT ?skipws@?$_Iosb@H@std@@2W4_Fmtflags@12@B
CONST	SEGMENT
?skipws@?$_Iosb@H@std@@2W4_Fmtflags@12@B DD 01H		; std::_Iosb<int>::skipws
CONST	ENDS
;	COMDAT ?table_size@?$ctype@D@std@@2IB
CONST	SEGMENT
?table_size@?$ctype@D@std@@2IB DD 0100H			; std::ctype<char>::table_size
CONST	ENDS
;	COMDAT ?none@?$_Locbase@H@std@@2HB
CONST	SEGMENT
?none@?$_Locbase@H@std@@2HB DD 00H			; std::_Locbase<int>::none
CONST	ENDS
;	COMDAT ?all@?$_Locbase@H@std@@2HB
CONST	SEGMENT
?all@?$_Locbase@H@std@@2HB DD 03fH			; std::_Locbase<int>::all
CONST	ENDS
;	COMDAT ?messages@?$_Locbase@H@std@@2HB
CONST	SEGMENT
?messages@?$_Locbase@H@std@@2HB DD 020H			; std::_Locbase<int>::messages
CONST	ENDS
;	COMDAT ?time@?$_Locbase@H@std@@2HB
CONST	SEGMENT
?time@?$_Locbase@H@std@@2HB DD 010H			; std::_Locbase<int>::time
CONST	ENDS
;	COMDAT ?numeric@?$_Locbase@H@std@@2HB
CONST	SEGMENT
?numeric@?$_Locbase@H@std@@2HB DD 08H			; std::_Locbase<int>::numeric
CONST	ENDS
;	COMDAT ?monetary@?$_Locbase@H@std@@2HB
CONST	SEGMENT
?monetary@?$_Locbase@H@std@@2HB DD 04H			; std::_Locbase<int>::monetary
CONST	ENDS
;	COMDAT ?ctype@?$_Locbase@H@std@@2HB
CONST	SEGMENT
?ctype@?$_Locbase@H@std@@2HB DD 02H			; std::_Locbase<int>::ctype
CONST	ENDS
;	COMDAT ?collate@?$_Locbase@H@std@@2HB
CONST	SEGMENT
?collate@?$_Locbase@H@std@@2HB DD 01H			; std::_Locbase<int>::collate
CONST	ENDS
;	COMDAT ?_Rank@?$_Arithmetic_traits@O@std@@2HB
CONST	SEGMENT
?_Rank@?$_Arithmetic_traits@O@std@@2HB DD 09H		; std::_Arithmetic_traits<long double>::_Rank
CONST	ENDS
;	COMDAT ?_Rank@?$_Arithmetic_traits@N@std@@2HB
CONST	SEGMENT
?_Rank@?$_Arithmetic_traits@N@std@@2HB DD 08H		; std::_Arithmetic_traits<double>::_Rank
CONST	ENDS
;	COMDAT ?_Rank@?$_Arithmetic_traits@M@std@@2HB
CONST	SEGMENT
?_Rank@?$_Arithmetic_traits@M@std@@2HB DD 07H		; std::_Arithmetic_traits<float>::_Rank
CONST	ENDS
;	COMDAT ?_Rank@?$_Arithmetic_traits@_K@std@@2HB
CONST	SEGMENT
?_Rank@?$_Arithmetic_traits@_K@std@@2HB DD 06H		; std::_Arithmetic_traits<unsigned __int64>::_Rank
CONST	ENDS
;	COMDAT ?_Rank@?$_Arithmetic_traits@_J@std@@2HB
CONST	SEGMENT
?_Rank@?$_Arithmetic_traits@_J@std@@2HB DD 06H		; std::_Arithmetic_traits<__int64>::_Rank
CONST	ENDS
;	COMDAT ?_Rank@?$_Arithmetic_traits@K@std@@2HB
CONST	SEGMENT
?_Rank@?$_Arithmetic_traits@K@std@@2HB DD 05H		; std::_Arithmetic_traits<unsigned long>::_Rank
CONST	ENDS
;	COMDAT ?_Rank@?$_Arithmetic_traits@J@std@@2HB
CONST	SEGMENT
?_Rank@?$_Arithmetic_traits@J@std@@2HB DD 05H		; std::_Arithmetic_traits<long>::_Rank
CONST	ENDS
;	COMDAT ?_Rank@?$_Arithmetic_traits@I@std@@2HB
CONST	SEGMENT
?_Rank@?$_Arithmetic_traits@I@std@@2HB DD 04H		; std::_Arithmetic_traits<unsigned int>::_Rank
CONST	ENDS
;	COMDAT ?_Rank@?$_Arithmetic_traits@H@std@@2HB
CONST	SEGMENT
?_Rank@?$_Arithmetic_traits@H@std@@2HB DD 04H		; std::_Arithmetic_traits<int>::_Rank
CONST	ENDS
;	COMDAT ?_Rank@?$_Arithmetic_traits@G@std@@2HB
CONST	SEGMENT
?_Rank@?$_Arithmetic_traits@G@std@@2HB DD 03H		; std::_Arithmetic_traits<unsigned short>::_Rank
CONST	ENDS
;	COMDAT ?_Rank@?$_Arithmetic_traits@F@std@@2HB
CONST	SEGMENT
?_Rank@?$_Arithmetic_traits@F@std@@2HB DD 03H		; std::_Arithmetic_traits<short>::_Rank
CONST	ENDS
;	COMDAT ?_Rank@?$_Arithmetic_traits@E@std@@2HB
CONST	SEGMENT
?_Rank@?$_Arithmetic_traits@E@std@@2HB DD 02H		; std::_Arithmetic_traits<unsigned char>::_Rank
CONST	ENDS
;	COMDAT ?_Rank@?$_Arithmetic_traits@C@std@@2HB
CONST	SEGMENT
?_Rank@?$_Arithmetic_traits@C@std@@2HB DD 02H		; std::_Arithmetic_traits<signed char>::_Rank
CONST	ENDS
;	COMDAT ?_Rank@?$_Arithmetic_traits@D@std@@2HB
CONST	SEGMENT
?_Rank@?$_Arithmetic_traits@D@std@@2HB DD 02H		; std::_Arithmetic_traits<char>::_Rank
CONST	ENDS
;	COMDAT ?_Rank@?$_Arithmetic_traits@_N@std@@2HB
CONST	SEGMENT
?_Rank@?$_Arithmetic_traits@_N@std@@2HB DD 01H		; std::_Arithmetic_traits<bool>::_Rank
CONST	ENDS
;	COMDAT ?value@?$integral_constant@I$0A@@tr1@std@@2IB
CONST	SEGMENT
?value@?$integral_constant@I$0A@@tr1@std@@2IB DD 00H	; std::tr1::integral_constant<unsigned int,0>::value
CONST	ENDS
;	COMDAT ?value@?$integral_constant@_N$00@tr1@std@@2_NB
CONST	SEGMENT
?value@?$integral_constant@_N$00@tr1@std@@2_NB DB 01H	; std::tr1::integral_constant<bool,1>::value
CONST	ENDS
;	COMDAT ?value@?$integral_constant@_N$0A@@tr1@std@@2_NB
CONST	SEGMENT
?value@?$integral_constant@_N$0A@@tr1@std@@2_NB DB 00H	; std::tr1::integral_constant<bool,0>::value
CONST	ENDS
;	COMDAT ?min_exponent10@?$numeric_limits@O@std@@2HB
CONST	SEGMENT
?min_exponent10@?$numeric_limits@O@std@@2HB DD 0fffffecdH ; std::numeric_limits<long double>::min_exponent10
CONST	ENDS
;	COMDAT ?min_exponent@?$numeric_limits@O@std@@2HB
CONST	SEGMENT
?min_exponent@?$numeric_limits@O@std@@2HB DD 0fffffc03H	; std::numeric_limits<long double>::min_exponent
CONST	ENDS
;	COMDAT ?max_exponent10@?$numeric_limits@O@std@@2HB
CONST	SEGMENT
?max_exponent10@?$numeric_limits@O@std@@2HB DD 0134H	; std::numeric_limits<long double>::max_exponent10
CONST	ENDS
;	COMDAT ?max_exponent@?$numeric_limits@O@std@@2HB
CONST	SEGMENT
?max_exponent@?$numeric_limits@O@std@@2HB DD 0400H	; std::numeric_limits<long double>::max_exponent
CONST	ENDS
;	COMDAT ?max_digits10@?$numeric_limits@O@std@@2HB
CONST	SEGMENT
?max_digits10@?$numeric_limits@O@std@@2HB DD 011H	; std::numeric_limits<long double>::max_digits10
CONST	ENDS
;	COMDAT ?digits10@?$numeric_limits@O@std@@2HB
CONST	SEGMENT
?digits10@?$numeric_limits@O@std@@2HB DD 0fH		; std::numeric_limits<long double>::digits10
CONST	ENDS
;	COMDAT ?digits@?$numeric_limits@O@std@@2HB
CONST	SEGMENT
?digits@?$numeric_limits@O@std@@2HB DD 035H		; std::numeric_limits<long double>::digits
CONST	ENDS
;	COMDAT ?min_exponent10@?$numeric_limits@N@std@@2HB
CONST	SEGMENT
?min_exponent10@?$numeric_limits@N@std@@2HB DD 0fffffecdH ; std::numeric_limits<double>::min_exponent10
CONST	ENDS
;	COMDAT ?min_exponent@?$numeric_limits@N@std@@2HB
CONST	SEGMENT
?min_exponent@?$numeric_limits@N@std@@2HB DD 0fffffc03H	; std::numeric_limits<double>::min_exponent
CONST	ENDS
;	COMDAT ?max_exponent10@?$numeric_limits@N@std@@2HB
CONST	SEGMENT
?max_exponent10@?$numeric_limits@N@std@@2HB DD 0134H	; std::numeric_limits<double>::max_exponent10
CONST	ENDS
;	COMDAT ?max_exponent@?$numeric_limits@N@std@@2HB
CONST	SEGMENT
?max_exponent@?$numeric_limits@N@std@@2HB DD 0400H	; std::numeric_limits<double>::max_exponent
CONST	ENDS
;	COMDAT ?max_digits10@?$numeric_limits@N@std@@2HB
CONST	SEGMENT
?max_digits10@?$numeric_limits@N@std@@2HB DD 011H	; std::numeric_limits<double>::max_digits10
CONST	ENDS
;	COMDAT ?digits10@?$numeric_limits@N@std@@2HB
CONST	SEGMENT
?digits10@?$numeric_limits@N@std@@2HB DD 0fH		; std::numeric_limits<double>::digits10
CONST	ENDS
;	COMDAT ?digits@?$numeric_limits@N@std@@2HB
CONST	SEGMENT
?digits@?$numeric_limits@N@std@@2HB DD 035H		; std::numeric_limits<double>::digits
CONST	ENDS
;	COMDAT ?min_exponent10@?$numeric_limits@M@std@@2HB
CONST	SEGMENT
?min_exponent10@?$numeric_limits@M@std@@2HB DD 0ffffffdbH ; std::numeric_limits<float>::min_exponent10
CONST	ENDS
;	COMDAT ?min_exponent@?$numeric_limits@M@std@@2HB
CONST	SEGMENT
?min_exponent@?$numeric_limits@M@std@@2HB DD 0ffffff83H	; std::numeric_limits<float>::min_exponent
CONST	ENDS
;	COMDAT ?max_exponent10@?$numeric_limits@M@std@@2HB
CONST	SEGMENT
?max_exponent10@?$numeric_limits@M@std@@2HB DD 026H	; std::numeric_limits<float>::max_exponent10
CONST	ENDS
;	COMDAT ?max_exponent@?$numeric_limits@M@std@@2HB
CONST	SEGMENT
?max_exponent@?$numeric_limits@M@std@@2HB DD 080H	; std::numeric_limits<float>::max_exponent
CONST	ENDS
;	COMDAT ?max_digits10@?$numeric_limits@M@std@@2HB
CONST	SEGMENT
?max_digits10@?$numeric_limits@M@std@@2HB DD 08H	; std::numeric_limits<float>::max_digits10
CONST	ENDS
;	COMDAT ?digits10@?$numeric_limits@M@std@@2HB
CONST	SEGMENT
?digits10@?$numeric_limits@M@std@@2HB DD 06H		; std::numeric_limits<float>::digits10
CONST	ENDS
;	COMDAT ?digits@?$numeric_limits@M@std@@2HB
CONST	SEGMENT
?digits@?$numeric_limits@M@std@@2HB DD 018H		; std::numeric_limits<float>::digits
CONST	ENDS
;	COMDAT ?max_digits10@?$numeric_limits@_K@std@@2HB
CONST	SEGMENT
?max_digits10@?$numeric_limits@_K@std@@2HB DD 015H	; std::numeric_limits<unsigned __int64>::max_digits10
CONST	ENDS
;	COMDAT ?digits10@?$numeric_limits@_K@std@@2HB
CONST	SEGMENT
?digits10@?$numeric_limits@_K@std@@2HB DD 013H		; std::numeric_limits<unsigned __int64>::digits10
CONST	ENDS
;	COMDAT ?digits@?$numeric_limits@_K@std@@2HB
CONST	SEGMENT
?digits@?$numeric_limits@_K@std@@2HB DD 040H		; std::numeric_limits<unsigned __int64>::digits
CONST	ENDS
;	COMDAT ?is_signed@?$numeric_limits@_K@std@@2_NB
CONST	SEGMENT
?is_signed@?$numeric_limits@_K@std@@2_NB DB 00H		; std::numeric_limits<unsigned __int64>::is_signed
CONST	ENDS
;	COMDAT ?max_digits10@?$numeric_limits@_J@std@@2HB
CONST	SEGMENT
?max_digits10@?$numeric_limits@_J@std@@2HB DD 014H	; std::numeric_limits<__int64>::max_digits10
CONST	ENDS
;	COMDAT ?digits10@?$numeric_limits@_J@std@@2HB
CONST	SEGMENT
?digits10@?$numeric_limits@_J@std@@2HB DD 012H		; std::numeric_limits<__int64>::digits10
CONST	ENDS
;	COMDAT ?digits@?$numeric_limits@_J@std@@2HB
CONST	SEGMENT
?digits@?$numeric_limits@_J@std@@2HB DD 03fH		; std::numeric_limits<__int64>::digits
CONST	ENDS
;	COMDAT ?is_signed@?$numeric_limits@_J@std@@2_NB
CONST	SEGMENT
?is_signed@?$numeric_limits@_J@std@@2_NB DB 01H		; std::numeric_limits<__int64>::is_signed
CONST	ENDS
;	COMDAT ?max_digits10@?$numeric_limits@K@std@@2HB
CONST	SEGMENT
?max_digits10@?$numeric_limits@K@std@@2HB DD 0bH	; std::numeric_limits<unsigned long>::max_digits10
CONST	ENDS
;	COMDAT ?digits10@?$numeric_limits@K@std@@2HB
CONST	SEGMENT
?digits10@?$numeric_limits@K@std@@2HB DD 09H		; std::numeric_limits<unsigned long>::digits10
CONST	ENDS
;	COMDAT ?digits@?$numeric_limits@K@std@@2HB
CONST	SEGMENT
?digits@?$numeric_limits@K@std@@2HB DD 020H		; std::numeric_limits<unsigned long>::digits
CONST	ENDS
;	COMDAT ?is_signed@?$numeric_limits@K@std@@2_NB
CONST	SEGMENT
?is_signed@?$numeric_limits@K@std@@2_NB DB 00H		; std::numeric_limits<unsigned long>::is_signed
CONST	ENDS
;	COMDAT ?max_digits10@?$numeric_limits@J@std@@2HB
CONST	SEGMENT
?max_digits10@?$numeric_limits@J@std@@2HB DD 0bH	; std::numeric_limits<long>::max_digits10
CONST	ENDS
;	COMDAT ?digits10@?$numeric_limits@J@std@@2HB
CONST	SEGMENT
?digits10@?$numeric_limits@J@std@@2HB DD 09H		; std::numeric_limits<long>::digits10
CONST	ENDS
;	COMDAT ?digits@?$numeric_limits@J@std@@2HB
CONST	SEGMENT
?digits@?$numeric_limits@J@std@@2HB DD 01fH		; std::numeric_limits<long>::digits
CONST	ENDS
;	COMDAT ?is_signed@?$numeric_limits@J@std@@2_NB
CONST	SEGMENT
?is_signed@?$numeric_limits@J@std@@2_NB DB 01H		; std::numeric_limits<long>::is_signed
CONST	ENDS
;	COMDAT ?max_digits10@?$numeric_limits@I@std@@2HB
CONST	SEGMENT
?max_digits10@?$numeric_limits@I@std@@2HB DD 0bH	; std::numeric_limits<unsigned int>::max_digits10
CONST	ENDS
;	COMDAT ?digits10@?$numeric_limits@I@std@@2HB
CONST	SEGMENT
?digits10@?$numeric_limits@I@std@@2HB DD 09H		; std::numeric_limits<unsigned int>::digits10
CONST	ENDS
;	COMDAT ?digits@?$numeric_limits@I@std@@2HB
CONST	SEGMENT
?digits@?$numeric_limits@I@std@@2HB DD 020H		; std::numeric_limits<unsigned int>::digits
CONST	ENDS
;	COMDAT ?is_signed@?$numeric_limits@I@std@@2_NB
CONST	SEGMENT
?is_signed@?$numeric_limits@I@std@@2_NB DB 00H		; std::numeric_limits<unsigned int>::is_signed
CONST	ENDS
;	COMDAT ?max_digits10@?$numeric_limits@H@std@@2HB
CONST	SEGMENT
?max_digits10@?$numeric_limits@H@std@@2HB DD 0bH	; std::numeric_limits<int>::max_digits10
CONST	ENDS
;	COMDAT ?digits10@?$numeric_limits@H@std@@2HB
CONST	SEGMENT
?digits10@?$numeric_limits@H@std@@2HB DD 09H		; std::numeric_limits<int>::digits10
CONST	ENDS
;	COMDAT ?digits@?$numeric_limits@H@std@@2HB
CONST	SEGMENT
?digits@?$numeric_limits@H@std@@2HB DD 01fH		; std::numeric_limits<int>::digits
CONST	ENDS
;	COMDAT ?is_signed@?$numeric_limits@H@std@@2_NB
CONST	SEGMENT
?is_signed@?$numeric_limits@H@std@@2_NB DB 01H		; std::numeric_limits<int>::is_signed
CONST	ENDS
;	COMDAT ?max_digits10@?$numeric_limits@G@std@@2HB
CONST	SEGMENT
?max_digits10@?$numeric_limits@G@std@@2HB DD 06H	; std::numeric_limits<unsigned short>::max_digits10
CONST	ENDS
;	COMDAT ?digits10@?$numeric_limits@G@std@@2HB
CONST	SEGMENT
?digits10@?$numeric_limits@G@std@@2HB DD 04H		; std::numeric_limits<unsigned short>::digits10
CONST	ENDS
;	COMDAT ?digits@?$numeric_limits@G@std@@2HB
CONST	SEGMENT
?digits@?$numeric_limits@G@std@@2HB DD 010H		; std::numeric_limits<unsigned short>::digits
CONST	ENDS
;	COMDAT ?is_signed@?$numeric_limits@G@std@@2_NB
CONST	SEGMENT
?is_signed@?$numeric_limits@G@std@@2_NB DB 00H		; std::numeric_limits<unsigned short>::is_signed
CONST	ENDS
;	COMDAT ?max_digits10@?$numeric_limits@F@std@@2HB
CONST	SEGMENT
?max_digits10@?$numeric_limits@F@std@@2HB DD 06H	; std::numeric_limits<short>::max_digits10
CONST	ENDS
;	COMDAT ?digits10@?$numeric_limits@F@std@@2HB
CONST	SEGMENT
?digits10@?$numeric_limits@F@std@@2HB DD 04H		; std::numeric_limits<short>::digits10
CONST	ENDS
;	COMDAT ?digits@?$numeric_limits@F@std@@2HB
CONST	SEGMENT
?digits@?$numeric_limits@F@std@@2HB DD 0fH		; std::numeric_limits<short>::digits
CONST	ENDS
;	COMDAT ?is_signed@?$numeric_limits@F@std@@2_NB
CONST	SEGMENT
?is_signed@?$numeric_limits@F@std@@2_NB DB 01H		; std::numeric_limits<short>::is_signed
CONST	ENDS
;	COMDAT ?max_digits10@?$numeric_limits@E@std@@2HB
CONST	SEGMENT
?max_digits10@?$numeric_limits@E@std@@2HB DD 04H	; std::numeric_limits<unsigned char>::max_digits10
CONST	ENDS
;	COMDAT ?digits10@?$numeric_limits@E@std@@2HB
CONST	SEGMENT
?digits10@?$numeric_limits@E@std@@2HB DD 02H		; std::numeric_limits<unsigned char>::digits10
CONST	ENDS
;	COMDAT ?digits@?$numeric_limits@E@std@@2HB
CONST	SEGMENT
?digits@?$numeric_limits@E@std@@2HB DD 08H		; std::numeric_limits<unsigned char>::digits
CONST	ENDS
;	COMDAT ?is_signed@?$numeric_limits@E@std@@2_NB
CONST	SEGMENT
?is_signed@?$numeric_limits@E@std@@2_NB DB 00H		; std::numeric_limits<unsigned char>::is_signed
CONST	ENDS
;	COMDAT ?max_digits10@?$numeric_limits@C@std@@2HB
CONST	SEGMENT
?max_digits10@?$numeric_limits@C@std@@2HB DD 04H	; std::numeric_limits<signed char>::max_digits10
CONST	ENDS
;	COMDAT ?digits10@?$numeric_limits@C@std@@2HB
CONST	SEGMENT
?digits10@?$numeric_limits@C@std@@2HB DD 02H		; std::numeric_limits<signed char>::digits10
CONST	ENDS
;	COMDAT ?digits@?$numeric_limits@C@std@@2HB
CONST	SEGMENT
?digits@?$numeric_limits@C@std@@2HB DD 07H		; std::numeric_limits<signed char>::digits
CONST	ENDS
;	COMDAT ?is_signed@?$numeric_limits@C@std@@2_NB
CONST	SEGMENT
?is_signed@?$numeric_limits@C@std@@2_NB DB 01H		; std::numeric_limits<signed char>::is_signed
CONST	ENDS
;	COMDAT ?max_digits10@?$numeric_limits@_N@std@@2HB
CONST	SEGMENT
?max_digits10@?$numeric_limits@_N@std@@2HB DD 00H	; std::numeric_limits<bool>::max_digits10
CONST	ENDS
;	COMDAT ?digits10@?$numeric_limits@_N@std@@2HB
CONST	SEGMENT
?digits10@?$numeric_limits@_N@std@@2HB DD 00H		; std::numeric_limits<bool>::digits10
CONST	ENDS
;	COMDAT ?digits@?$numeric_limits@_N@std@@2HB
CONST	SEGMENT
?digits@?$numeric_limits@_N@std@@2HB DD 01H		; std::numeric_limits<bool>::digits
CONST	ENDS
;	COMDAT ?is_signed@?$numeric_limits@_N@std@@2_NB
CONST	SEGMENT
?is_signed@?$numeric_limits@_N@std@@2_NB DB 00H		; std::numeric_limits<bool>::is_signed
CONST	ENDS
;	COMDAT ?is_modulo@?$numeric_limits@_N@std@@2_NB
CONST	SEGMENT
?is_modulo@?$numeric_limits@_N@std@@2_NB DB 00H		; std::numeric_limits<bool>::is_modulo
CONST	ENDS
;	COMDAT ?max_digits10@?$numeric_limits@_W@std@@2HB
CONST	SEGMENT
?max_digits10@?$numeric_limits@_W@std@@2HB DD 06H	; std::numeric_limits<wchar_t>::max_digits10
CONST	ENDS
;	COMDAT ?digits10@?$numeric_limits@_W@std@@2HB
CONST	SEGMENT
?digits10@?$numeric_limits@_W@std@@2HB DD 04H		; std::numeric_limits<wchar_t>::digits10
CONST	ENDS
;	COMDAT ?digits@?$numeric_limits@_W@std@@2HB
CONST	SEGMENT
?digits@?$numeric_limits@_W@std@@2HB DD 010H		; std::numeric_limits<wchar_t>::digits
CONST	ENDS
;	COMDAT ?is_signed@?$numeric_limits@_W@std@@2_NB
CONST	SEGMENT
?is_signed@?$numeric_limits@_W@std@@2_NB DB 00H		; std::numeric_limits<wchar_t>::is_signed
CONST	ENDS
;	COMDAT ?max_digits10@?$numeric_limits@D@std@@2HB
CONST	SEGMENT
?max_digits10@?$numeric_limits@D@std@@2HB DD 04H	; std::numeric_limits<char>::max_digits10
CONST	ENDS
;	COMDAT ?digits10@?$numeric_limits@D@std@@2HB
CONST	SEGMENT
?digits10@?$numeric_limits@D@std@@2HB DD 02H		; std::numeric_limits<char>::digits10
CONST	ENDS
;	COMDAT ?digits@?$numeric_limits@D@std@@2HB
CONST	SEGMENT
?digits@?$numeric_limits@D@std@@2HB DD 07H		; std::numeric_limits<char>::digits
CONST	ENDS
;	COMDAT ?is_signed@?$numeric_limits@D@std@@2_NB
CONST	SEGMENT
?is_signed@?$numeric_limits@D@std@@2_NB DB 01H		; std::numeric_limits<char>::is_signed
CONST	ENDS
;	COMDAT ?radix@_Num_float_base@std@@2HB
CONST	SEGMENT
?radix@_Num_float_base@std@@2HB DD 02H			; std::_Num_float_base::radix
CONST	ENDS
;	COMDAT ?round_style@_Num_float_base@std@@2W4float_round_style@2@B
CONST	SEGMENT
?round_style@_Num_float_base@std@@2W4float_round_style@2@B DD 01H ; std::_Num_float_base::round_style
CONST	ENDS
;	COMDAT ?traps@_Num_float_base@std@@2_NB
CONST	SEGMENT
?traps@_Num_float_base@std@@2_NB DB 01H			; std::_Num_float_base::traps
CONST	ENDS
;	COMDAT ?tinyness_before@_Num_float_base@std@@2_NB
CONST	SEGMENT
?tinyness_before@_Num_float_base@std@@2_NB DB 01H	; std::_Num_float_base::tinyness_before
CONST	ENDS
;	COMDAT ?is_specialized@_Num_float_base@std@@2_NB
CONST	SEGMENT
?is_specialized@_Num_float_base@std@@2_NB DB 01H	; std::_Num_float_base::is_specialized
CONST	ENDS
;	COMDAT ?is_signed@_Num_float_base@std@@2_NB
CONST	SEGMENT
?is_signed@_Num_float_base@std@@2_NB DB 01H		; std::_Num_float_base::is_signed
CONST	ENDS
;	COMDAT ?is_modulo@_Num_float_base@std@@2_NB
CONST	SEGMENT
?is_modulo@_Num_float_base@std@@2_NB DB 00H		; std::_Num_float_base::is_modulo
CONST	ENDS
;	COMDAT ?is_integer@_Num_float_base@std@@2_NB
CONST	SEGMENT
?is_integer@_Num_float_base@std@@2_NB DB 00H		; std::_Num_float_base::is_integer
CONST	ENDS
;	COMDAT ?is_iec559@_Num_float_base@std@@2_NB
CONST	SEGMENT
?is_iec559@_Num_float_base@std@@2_NB DB 01H		; std::_Num_float_base::is_iec559
CONST	ENDS
;	COMDAT ?is_exact@_Num_float_base@std@@2_NB
CONST	SEGMENT
?is_exact@_Num_float_base@std@@2_NB DB 00H		; std::_Num_float_base::is_exact
CONST	ENDS
;	COMDAT ?is_bounded@_Num_float_base@std@@2_NB
CONST	SEGMENT
?is_bounded@_Num_float_base@std@@2_NB DB 01H		; std::_Num_float_base::is_bounded
CONST	ENDS
;	COMDAT ?has_signaling_NaN@_Num_float_base@std@@2_NB
CONST	SEGMENT
?has_signaling_NaN@_Num_float_base@std@@2_NB DB 01H	; std::_Num_float_base::has_signaling_NaN
CONST	ENDS
;	COMDAT ?has_quiet_NaN@_Num_float_base@std@@2_NB
CONST	SEGMENT
?has_quiet_NaN@_Num_float_base@std@@2_NB DB 01H		; std::_Num_float_base::has_quiet_NaN
CONST	ENDS
;	COMDAT ?has_infinity@_Num_float_base@std@@2_NB
CONST	SEGMENT
?has_infinity@_Num_float_base@std@@2_NB DB 01H		; std::_Num_float_base::has_infinity
CONST	ENDS
;	COMDAT ?has_denorm_loss@_Num_float_base@std@@2_NB
CONST	SEGMENT
?has_denorm_loss@_Num_float_base@std@@2_NB DB 01H	; std::_Num_float_base::has_denorm_loss
CONST	ENDS
;	COMDAT ?has_denorm@_Num_float_base@std@@2W4float_denorm_style@2@B
CONST	SEGMENT
?has_denorm@_Num_float_base@std@@2W4float_denorm_style@2@B DD 01H ; std::_Num_float_base::has_denorm
CONST	ENDS
;	COMDAT ?radix@_Num_int_base@std@@2HB
CONST	SEGMENT
?radix@_Num_int_base@std@@2HB DD 02H			; std::_Num_int_base::radix
CONST	ENDS
;	COMDAT ?is_specialized@_Num_int_base@std@@2_NB
CONST	SEGMENT
?is_specialized@_Num_int_base@std@@2_NB DB 01H		; std::_Num_int_base::is_specialized
CONST	ENDS
;	COMDAT ?is_modulo@_Num_int_base@std@@2_NB
CONST	SEGMENT
?is_modulo@_Num_int_base@std@@2_NB DB 01H		; std::_Num_int_base::is_modulo
CONST	ENDS
;	COMDAT ?is_integer@_Num_int_base@std@@2_NB
CONST	SEGMENT
?is_integer@_Num_int_base@std@@2_NB DB 01H		; std::_Num_int_base::is_integer
CONST	ENDS
;	COMDAT ?is_exact@_Num_int_base@std@@2_NB
CONST	SEGMENT
?is_exact@_Num_int_base@std@@2_NB DB 01H		; std::_Num_int_base::is_exact
CONST	ENDS
;	COMDAT ?is_bounded@_Num_int_base@std@@2_NB
CONST	SEGMENT
?is_bounded@_Num_int_base@std@@2_NB DB 01H		; std::_Num_int_base::is_bounded
CONST	ENDS
;	COMDAT ?radix@_Num_base@std@@2HB
CONST	SEGMENT
?radix@_Num_base@std@@2HB DD 00H			; std::_Num_base::radix
CONST	ENDS
;	COMDAT ?min_exponent10@_Num_base@std@@2HB
CONST	SEGMENT
?min_exponent10@_Num_base@std@@2HB DD 00H		; std::_Num_base::min_exponent10
CONST	ENDS
;	COMDAT ?min_exponent@_Num_base@std@@2HB
CONST	SEGMENT
?min_exponent@_Num_base@std@@2HB DD 00H			; std::_Num_base::min_exponent
CONST	ENDS
;	COMDAT ?max_exponent10@_Num_base@std@@2HB
CONST	SEGMENT
?max_exponent10@_Num_base@std@@2HB DD 00H		; std::_Num_base::max_exponent10
CONST	ENDS
;	COMDAT ?max_exponent@_Num_base@std@@2HB
CONST	SEGMENT
?max_exponent@_Num_base@std@@2HB DD 00H			; std::_Num_base::max_exponent
CONST	ENDS
;	COMDAT ?max_digits10@_Num_base@std@@2HB
CONST	SEGMENT
?max_digits10@_Num_base@std@@2HB DD 00H			; std::_Num_base::max_digits10
CONST	ENDS
;	COMDAT ?digits10@_Num_base@std@@2HB
CONST	SEGMENT
?digits10@_Num_base@std@@2HB DD 00H			; std::_Num_base::digits10
CONST	ENDS
;	COMDAT ?digits@_Num_base@std@@2HB
CONST	SEGMENT
?digits@_Num_base@std@@2HB DD 00H			; std::_Num_base::digits
CONST	ENDS
;	COMDAT ?round_style@_Num_base@std@@2W4float_round_style@2@B
CONST	SEGMENT
?round_style@_Num_base@std@@2W4float_round_style@2@B DD 00H ; std::_Num_base::round_style
CONST	ENDS
;	COMDAT ?traps@_Num_base@std@@2_NB
CONST	SEGMENT
?traps@_Num_base@std@@2_NB DB 00H			; std::_Num_base::traps
CONST	ENDS
;	COMDAT ?tinyness_before@_Num_base@std@@2_NB
CONST	SEGMENT
?tinyness_before@_Num_base@std@@2_NB DB 00H		; std::_Num_base::tinyness_before
CONST	ENDS
;	COMDAT ?is_specialized@_Num_base@std@@2_NB
CONST	SEGMENT
?is_specialized@_Num_base@std@@2_NB DB 00H		; std::_Num_base::is_specialized
CONST	ENDS
;	COMDAT ?is_signed@_Num_base@std@@2_NB
CONST	SEGMENT
?is_signed@_Num_base@std@@2_NB DB 00H			; std::_Num_base::is_signed
CONST	ENDS
;	COMDAT ?is_modulo@_Num_base@std@@2_NB
CONST	SEGMENT
?is_modulo@_Num_base@std@@2_NB DB 00H			; std::_Num_base::is_modulo
CONST	ENDS
;	COMDAT ?is_integer@_Num_base@std@@2_NB
CONST	SEGMENT
?is_integer@_Num_base@std@@2_NB DB 00H			; std::_Num_base::is_integer
CONST	ENDS
;	COMDAT ?is_iec559@_Num_base@std@@2_NB
CONST	SEGMENT
?is_iec559@_Num_base@std@@2_NB DB 00H			; std::_Num_base::is_iec559
CONST	ENDS
;	COMDAT ?is_exact@_Num_base@std@@2_NB
CONST	SEGMENT
?is_exact@_Num_base@std@@2_NB DB 00H			; std::_Num_base::is_exact
CONST	ENDS
;	COMDAT ?is_bounded@_Num_base@std@@2_NB
CONST	SEGMENT
?is_bounded@_Num_base@std@@2_NB DB 00H			; std::_Num_base::is_bounded
CONST	ENDS
;	COMDAT ?has_signaling_NaN@_Num_base@std@@2_NB
CONST	SEGMENT
?has_signaling_NaN@_Num_base@std@@2_NB DB 00H		; std::_Num_base::has_signaling_NaN
CONST	ENDS
;	COMDAT ?has_quiet_NaN@_Num_base@std@@2_NB
CONST	SEGMENT
?has_quiet_NaN@_Num_base@std@@2_NB DB 00H		; std::_Num_base::has_quiet_NaN
CONST	ENDS
;	COMDAT ?has_infinity@_Num_base@std@@2_NB
CONST	SEGMENT
?has_infinity@_Num_base@std@@2_NB DB 00H		; std::_Num_base::has_infinity
CONST	ENDS
;	COMDAT ?has_denorm_loss@_Num_base@std@@2_NB
CONST	SEGMENT
?has_denorm_loss@_Num_base@std@@2_NB DB 00H		; std::_Num_base::has_denorm_loss
CONST	ENDS
;	COMDAT ?has_denorm@_Num_base@std@@2W4float_denorm_style@2@B
CONST	SEGMENT
?has_denorm@_Num_base@std@@2W4float_denorm_style@2@B DD 00H ; std::_Num_base::has_denorm
CONST	ENDS
PUBLIC	?compare@?$basic_string@DU?$char_traits@D@std@@V?$allocator@D@2@@std@@QBEHABV12@@Z ; std::basic_string<char,std::char_traits<char>,std::allocator<char> >::compare
PUBLIC	?str_reserved@@YA_NABV?$basic_string@DU?$char_traits@D@std@@V?$allocator@D@2@@std@@@Z ; str_reserved
EXTRN	__RTC_CheckEsp:PROC
EXTRN	__RTC_Shutdown:PROC
EXTRN	__RTC_InitBase:PROC
;	COMDAT rtc$TMZ
; File c:\users\дмитрий\documents\visual studio 2010\projects\scanner\scanner\cases.cpp
rtc$TMZ	SEGMENT
__RTC_Shutdown.rtc$TMZ DD FLAT:__RTC_Shutdown
rtc$TMZ	ENDS
;	COMDAT rtc$IMZ
rtc$IMZ	SEGMENT
__RTC_InitBase.rtc$IMZ DD FLAT:__RTC_InitBase
; Function compile flags: /Odtp /RTCsu /ZI
rtc$IMZ	ENDS
;	COMDAT ?str_reserved@@YA_NABV?$basic_string@DU?$char_traits@D@std@@V?$allocator@D@2@@std@@@Z
_TEXT	SEGMENT
_i$34523 = -8						; size = 4
_str$ = 8						; size = 4
?str_reserved@@YA_NABV?$basic_string@DU?$char_traits@D@std@@V?$allocator@D@2@@std@@@Z PROC ; str_reserved, COMDAT
; Line 2
	push	ebp
	mov	ebp, esp
	sub	esp, 204				; 000000ccH
	push	ebx
	push	esi
	push	edi
	lea	edi, DWORD PTR [ebp-204]
	mov	ecx, 51					; 00000033H
	mov	eax, -858993460				; ccccccccH
	rep stosd
; Line 3
	mov	DWORD PTR _i$34523[ebp], 0
	jmp	SHORT $LN4@str_reserv
$LN3@str_reserv:
	mov	eax, DWORD PTR _i$34523[ebp]
	add	eax, 1
	mov	DWORD PTR _i$34523[ebp], eax
$LN4@str_reserv:
	cmp	DWORD PTR _i$34523[ebp], 43		; 0000002bH
	jae	SHORT $LN2@str_reserv
; Line 5
	mov	eax, DWORD PTR _i$34523[ebp]
	shl	eax, 5
	add	eax, OFFSET _Reserved
	push	eax
	mov	ecx, DWORD PTR _str$[ebp]
	call	?compare@?$basic_string@DU?$char_traits@D@std@@V?$allocator@D@2@@std@@QBEHABV12@@Z ; std::basic_string<char,std::char_traits<char>,std::allocator<char> >::compare
	test	eax, eax
	jne	SHORT $LN1@str_reserv
	mov	al, 1
	jmp	SHORT $LN5@str_reserv
$LN1@str_reserv:
; Line 6
	jmp	SHORT $LN3@str_reserv
$LN2@str_reserv:
; Line 7
	xor	al, al
$LN5@str_reserv:
; Line 8
	pop	edi
	pop	esi
	pop	ebx
	add	esp, 204				; 000000ccH
	cmp	ebp, esp
	call	__RTC_CheckEsp
	mov	esp, ebp
	pop	ebp
	ret	0
?str_reserved@@YA_NABV?$basic_string@DU?$char_traits@D@std@@V?$allocator@D@2@@std@@@Z ENDP ; str_reserved
_TEXT	ENDS
PUBLIC	?str_TypeTest@@YA_NABV?$basic_string@DU?$char_traits@D@std@@V?$allocator@D@2@@std@@@Z ; str_TypeTest
; Function compile flags: /Odtp /RTCsu /ZI
;	COMDAT ?str_TypeTest@@YA_NABV?$basic_string@DU?$char_traits@D@std@@V?$allocator@D@2@@std@@@Z
_TEXT	SEGMENT
_i$34532 = -8						; size = 4
_str$ = 8						; size = 4
?str_TypeTest@@YA_NABV?$basic_string@DU?$char_traits@D@std@@V?$allocator@D@2@@std@@@Z PROC ; str_TypeTest, COMDAT
; Line 11
	push	ebp
	mov	ebp, esp
	sub	esp, 204				; 000000ccH
	push	ebx
	push	esi
	push	edi
	lea	edi, DWORD PTR [ebp-204]
	mov	ecx, 51					; 00000033H
	mov	eax, -858993460				; ccccccccH
	rep stosd
; Line 12
	mov	DWORD PTR _i$34532[ebp], 0
	jmp	SHORT $LN4@str_TypeTe
$LN3@str_TypeTe:
	mov	eax, DWORD PTR _i$34532[ebp]
	add	eax, 1
	mov	DWORD PTR _i$34532[ebp], eax
$LN4@str_TypeTe:
	cmp	DWORD PTR _i$34532[ebp], 43		; 0000002bH
	jae	SHORT $LN2@str_TypeTe
; Line 14
	mov	eax, DWORD PTR _i$34532[ebp]
	shl	eax, 5
	add	eax, OFFSET _Type
	push	eax
	mov	ecx, DWORD PTR _str$[ebp]
	call	?compare@?$basic_string@DU?$char_traits@D@std@@V?$allocator@D@2@@std@@QBEHABV12@@Z ; std::basic_string<char,std::char_traits<char>,std::allocator<char> >::compare
	test	eax, eax
	jne	SHORT $LN1@str_TypeTe
	mov	al, 1
	jmp	SHORT $LN5@str_TypeTe
$LN1@str_TypeTe:
; Line 15
	jmp	SHORT $LN3@str_TypeTe
$LN2@str_TypeTe:
; Line 16
	xor	al, al
$LN5@str_TypeTe:
; Line 17
	pop	edi
	pop	esi
	pop	ebx
	add	esp, 204				; 000000ccH
	cmp	ebp, esp
	call	__RTC_CheckEsp
	mov	esp, ebp
	pop	ebp
	ret	0
?str_TypeTest@@YA_NABV?$basic_string@DU?$char_traits@D@std@@V?$allocator@D@2@@std@@@Z ENDP ; str_TypeTest
_TEXT	ENDS
PUBLIC	?isSpace@@YA_ND@Z				; isSpace
; Function compile flags: /Odtp /RTCsu /ZI
;	COMDAT ?isSpace@@YA_ND@Z
_TEXT	SEGMENT
tv68 = -196						; size = 4
_ch$ = 8						; size = 1
?isSpace@@YA_ND@Z PROC					; isSpace, COMDAT
; Line 20
	push	ebp
	mov	ebp, esp
	sub	esp, 196				; 000000c4H
	push	ebx
	push	esi
	push	edi
	lea	edi, DWORD PTR [ebp-196]
	mov	ecx, 49					; 00000031H
	mov	eax, -858993460				; ccccccccH
	rep stosd
	movsx	eax, BYTE PTR _ch$[ebp]
	test	eax, eax
	jl	SHORT $LN3@isSpace
	movsx	ecx, BYTE PTR _ch$[ebp]
	cmp	ecx, 32					; 00000020H
	jg	SHORT $LN3@isSpace
	mov	DWORD PTR tv68[ebp], 1
	jmp	SHORT $LN4@isSpace
$LN3@isSpace:
	mov	DWORD PTR tv68[ebp], 0
$LN4@isSpace:
	mov	al, BYTE PTR tv68[ebp]
	pop	edi
	pop	esi
	pop	ebx
	mov	esp, ebp
	pop	ebp
	ret	0
?isSpace@@YA_ND@Z ENDP					; isSpace
_TEXT	ENDS
PUBLIC	?isDigit@@YA_ND@Z				; isDigit
; Function compile flags: /Odtp /RTCsu /ZI
;	COMDAT ?isDigit@@YA_ND@Z
_TEXT	SEGMENT
tv68 = -196						; size = 4
_ch$ = 8						; size = 1
?isDigit@@YA_ND@Z PROC					; isDigit, COMDAT
; Line 22
	push	ebp
	mov	ebp, esp
	sub	esp, 196				; 000000c4H
	push	ebx
	push	esi
	push	edi
	lea	edi, DWORD PTR [ebp-196]
	mov	ecx, 49					; 00000031H
	mov	eax, -858993460				; ccccccccH
	rep stosd
	movsx	eax, BYTE PTR _ch$[ebp]
	cmp	eax, 48					; 00000030H
	jl	SHORT $LN3@isDigit
	movsx	ecx, BYTE PTR _ch$[ebp]
	cmp	ecx, 57					; 00000039H
	jg	SHORT $LN3@isDigit
	mov	DWORD PTR tv68[ebp], 1
	jmp	SHORT $LN4@isDigit
$LN3@isDigit:
	mov	DWORD PTR tv68[ebp], 0
$LN4@isDigit:
	mov	al, BYTE PTR tv68[ebp]
	pop	edi
	pop	esi
	pop	ebx
	mov	esp, ebp
	pop	ebp
	ret	0
?isDigit@@YA_ND@Z ENDP					; isDigit
_TEXT	ENDS
PUBLIC	?isLetter@@YA_ND@Z				; isLetter
; Function compile flags: /Odtp /RTCsu /ZI
;	COMDAT ?isLetter@@YA_ND@Z
_TEXT	SEGMENT
tv72 = -196						; size = 4
_ch$ = 8						; size = 1
?isLetter@@YA_ND@Z PROC					; isLetter, COMDAT
; Line 24
	push	ebp
	mov	ebp, esp
	sub	esp, 196				; 000000c4H
	push	ebx
	push	esi
	push	edi
	lea	edi, DWORD PTR [ebp-196]
	mov	ecx, 49					; 00000031H
	mov	eax, -858993460				; ccccccccH
	rep stosd
	movsx	eax, BYTE PTR _ch$[ebp]
	cmp	eax, 97					; 00000061H
	jl	SHORT $LN3@isLetter
	movsx	ecx, BYTE PTR _ch$[ebp]
	cmp	ecx, 122				; 0000007aH
	jle	SHORT $LN5@isLetter
$LN3@isLetter:
	movsx	edx, BYTE PTR _ch$[ebp]
	cmp	edx, 65					; 00000041H
	jl	SHORT $LN4@isLetter
	movsx	eax, BYTE PTR _ch$[ebp]
	cmp	eax, 90					; 0000005aH
	jle	SHORT $LN5@isLetter
$LN4@isLetter:
	mov	DWORD PTR tv72[ebp], 0
	jmp	SHORT $LN6@isLetter
$LN5@isLetter:
	mov	DWORD PTR tv72[ebp], 1
$LN6@isLetter:
	mov	al, BYTE PTR tv72[ebp]
	pop	edi
	pop	esi
	pop	ebx
	mov	esp, ebp
	pop	ebp
	ret	0
?isLetter@@YA_ND@Z ENDP					; isLetter
_TEXT	ENDS
PUBLIC	?isHex@@YA_ND@Z					; isHex
; Function compile flags: /Odtp /RTCsu /ZI
;	COMDAT ?isHex@@YA_ND@Z
_TEXT	SEGMENT
tv72 = -196						; size = 4
_ch$ = 8						; size = 1
?isHex@@YA_ND@Z PROC					; isHex, COMDAT
; Line 26
	push	ebp
	mov	ebp, esp
	sub	esp, 196				; 000000c4H
	push	ebx
	push	esi
	push	edi
	lea	edi, DWORD PTR [ebp-196]
	mov	ecx, 49					; 00000031H
	mov	eax, -858993460				; ccccccccH
	rep stosd
	movsx	eax, BYTE PTR _ch$[ebp]
	cmp	eax, 65					; 00000041H
	jl	SHORT $LN3@isHex
	movsx	ecx, BYTE PTR _ch$[ebp]
	cmp	ecx, 70					; 00000046H
	jle	SHORT $LN5@isHex
$LN3@isHex:
	movsx	edx, BYTE PTR _ch$[ebp]
	cmp	edx, 97					; 00000061H
	jl	SHORT $LN4@isHex
	movsx	eax, BYTE PTR _ch$[ebp]
	cmp	eax, 102				; 00000066H
	jle	SHORT $LN5@isHex
$LN4@isHex:
	mov	DWORD PTR tv72[ebp], 0
	jmp	SHORT $LN6@isHex
$LN5@isHex:
	mov	DWORD PTR tv72[ebp], 1
$LN6@isHex:
	mov	al, BYTE PTR tv72[ebp]
	pop	edi
	pop	esi
	pop	ebx
	mov	esp, ebp
	pop	ebp
	ret	0
?isHex@@YA_ND@Z ENDP					; isHex
_TEXT	ENDS
PUBLIC	?isOctal@@YA_ND@Z				; isOctal
; Function compile flags: /Odtp /RTCsu /ZI
;	COMDAT ?isOctal@@YA_ND@Z
_TEXT	SEGMENT
tv68 = -196						; size = 4
_ch$ = 8						; size = 1
?isOctal@@YA_ND@Z PROC					; isOctal, COMDAT
; Line 28
	push	ebp
	mov	ebp, esp
	sub	esp, 196				; 000000c4H
	push	ebx
	push	esi
	push	edi
	lea	edi, DWORD PTR [ebp-196]
	mov	ecx, 49					; 00000031H
	mov	eax, -858993460				; ccccccccH
	rep stosd
	movsx	eax, BYTE PTR _ch$[ebp]
	cmp	eax, 48					; 00000030H
	jl	SHORT $LN3@isOctal
	movsx	ecx, BYTE PTR _ch$[ebp]
	cmp	ecx, 55					; 00000037H
	jg	SHORT $LN3@isOctal
	mov	DWORD PTR tv68[ebp], 1
	jmp	SHORT $LN4@isOctal
$LN3@isOctal:
	mov	DWORD PTR tv68[ebp], 0
$LN4@isOctal:
	mov	al, BYTE PTR tv68[ebp]
	pop	edi
	pop	esi
	pop	ebx
	mov	esp, ebp
	pop	ebp
	ret	0
?isOctal@@YA_ND@Z ENDP					; isOctal
_TEXT	ENDS
PUBLIC	?isEol@@YA_ND@Z					; isEol
; Function compile flags: /Odtp /RTCsu /ZI
;	COMDAT ?isEol@@YA_ND@Z
_TEXT	SEGMENT
_ch$ = 8						; size = 1
?isEol@@YA_ND@Z PROC					; isEol, COMDAT
; Line 30
	push	ebp
	mov	ebp, esp
	sub	esp, 192				; 000000c0H
	push	ebx
	push	esi
	push	edi
	lea	edi, DWORD PTR [ebp-192]
	mov	ecx, 48					; 00000030H
	mov	eax, -858993460				; ccccccccH
	rep stosd
	movsx	eax, BYTE PTR _ch$[ebp]
	xor	ecx, ecx
	cmp	eax, 10					; 0000000aH
	sete	cl
	mov	al, cl
	pop	edi
	pop	esi
	pop	ebx
	mov	esp, ebp
	pop	ebp
	ret	0
?isEol@@YA_ND@Z ENDP					; isEol
_TEXT	ENDS
PUBLIC	?isSymDot@@YA_ND@Z				; isSymDot
; Function compile flags: /Odtp /RTCsu /ZI
;	COMDAT ?isSymDot@@YA_ND@Z
_TEXT	SEGMENT
_ch$ = 8						; size = 1
?isSymDot@@YA_ND@Z PROC					; isSymDot, COMDAT
; Line 32
	push	ebp
	mov	ebp, esp
	sub	esp, 192				; 000000c0H
	push	ebx
	push	esi
	push	edi
	lea	edi, DWORD PTR [ebp-192]
	mov	ecx, 48					; 00000030H
	mov	eax, -858993460				; ccccccccH
	rep stosd
	movsx	eax, BYTE PTR _ch$[ebp]
	xor	ecx, ecx
	cmp	eax, 46					; 0000002eH
	sete	cl
	mov	al, cl
	pop	edi
	pop	esi
	pop	ebx
	mov	esp, ebp
	pop	ebp
	ret	0
?isSymDot@@YA_ND@Z ENDP					; isSymDot
_TEXT	ENDS
PUBLIC	?isSymDiv@@YA_ND@Z				; isSymDiv
; Function compile flags: /Odtp /RTCsu /ZI
;	COMDAT ?isSymDiv@@YA_ND@Z
_TEXT	SEGMENT
tv68 = -196						; size = 4
_ch$ = 8						; size = 1
?isSymDiv@@YA_ND@Z PROC					; isSymDiv, COMDAT
; Line 34
	push	ebp
	mov	ebp, esp
	sub	esp, 196				; 000000c4H
	push	ebx
	push	esi
	push	edi
	lea	edi, DWORD PTR [ebp-196]
	mov	ecx, 49					; 00000031H
	mov	eax, -858993460				; ccccccccH
	rep stosd
	movsx	eax, BYTE PTR _ch$[ebp]
	cmp	eax, 47					; 0000002fH
	je	SHORT $LN3@isSymDiv
	movsx	ecx, BYTE PTR _ch$[ebp]
	cmp	ecx, 42					; 0000002aH
	je	SHORT $LN3@isSymDiv
	mov	DWORD PTR tv68[ebp], 0
	jmp	SHORT $LN4@isSymDiv
$LN3@isSymDiv:
	mov	DWORD PTR tv68[ebp], 1
$LN4@isSymDiv:
	mov	al, BYTE PTR tv68[ebp]
	pop	edi
	pop	esi
	pop	ebx
	mov	esp, ebp
	pop	ebp
	ret	0
?isSymDiv@@YA_ND@Z ENDP					; isSymDiv
_TEXT	ENDS
PUBLIC	?isDelimiter@@YA_ND@Z				; isDelimiter
; Function compile flags: /Odtp /RTCsu /ZI
;	COMDAT ?isDelimiter@@YA_ND@Z
_TEXT	SEGMENT
tv74 = -196						; size = 4
_ch$ = 8						; size = 1
?isDelimiter@@YA_ND@Z PROC				; isDelimiter, COMDAT
; Line 36
	push	ebp
	mov	ebp, esp
	sub	esp, 196				; 000000c4H
	push	ebx
	push	esi
	push	edi
	lea	edi, DWORD PTR [ebp-196]
	mov	ecx, 49					; 00000031H
	mov	eax, -858993460				; ccccccccH
	rep stosd
	movsx	eax, BYTE PTR _ch$[ebp]
	cmp	eax, 58					; 0000003aH
	je	SHORT $LN3@isDelimite
	movsx	ecx, BYTE PTR _ch$[ebp]
	cmp	ecx, 63					; 0000003fH
	je	SHORT $LN3@isDelimite
	movsx	edx, BYTE PTR _ch$[ebp]
	cmp	edx, 37					; 00000025H
	je	SHORT $LN3@isDelimite
	movsx	eax, BYTE PTR _ch$[ebp]
	cmp	eax, 126				; 0000007eH
	je	SHORT $LN3@isDelimite
	movsx	ecx, BYTE PTR _ch$[ebp]
	cmp	ecx, 35					; 00000023H
	je	SHORT $LN3@isDelimite
	mov	DWORD PTR tv74[ebp], 0
	jmp	SHORT $LN4@isDelimite
$LN3@isDelimite:
	mov	DWORD PTR tv74[ebp], 1
$LN4@isDelimite:
	mov	al, BYTE PTR tv74[ebp]
	pop	edi
	pop	esi
	pop	ebx
	mov	esp, ebp
	pop	ebp
	ret	0
?isDelimiter@@YA_ND@Z ENDP				; isDelimiter
_TEXT	ENDS
PUBLIC	?isComma@@YA_ND@Z				; isComma
; Function compile flags: /Odtp /RTCsu /ZI
;	COMDAT ?isComma@@YA_ND@Z
_TEXT	SEGMENT
_ch$ = 8						; size = 1
?isComma@@YA_ND@Z PROC					; isComma, COMDAT
; Line 38
	push	ebp
	mov	ebp, esp
	sub	esp, 192				; 000000c0H
	push	ebx
	push	esi
	push	edi
	lea	edi, DWORD PTR [ebp-192]
	mov	ecx, 48					; 00000030H
	mov	eax, -858993460				; ccccccccH
	rep stosd
	movsx	eax, BYTE PTR _ch$[ebp]
	xor	ecx, ecx
	cmp	eax, 44					; 0000002cH
	sete	cl
	mov	al, cl
	pop	edi
	pop	esi
	pop	ebx
	mov	esp, ebp
	pop	ebp
	ret	0
?isComma@@YA_ND@Z ENDP					; isComma
_TEXT	ENDS
PUBLIC	?isSemicolon@@YA_ND@Z				; isSemicolon
; Function compile flags: /Odtp /RTCsu /ZI
;	COMDAT ?isSemicolon@@YA_ND@Z
_TEXT	SEGMENT
_ch$ = 8						; size = 1
?isSemicolon@@YA_ND@Z PROC				; isSemicolon, COMDAT
; Line 39
	push	ebp
	mov	ebp, esp
	sub	esp, 192				; 000000c0H
	push	ebx
	push	esi
	push	edi
	lea	edi, DWORD PTR [ebp-192]
	mov	ecx, 48					; 00000030H
	mov	eax, -858993460				; ccccccccH
	rep stosd
	movsx	eax, BYTE PTR _ch$[ebp]
	xor	ecx, ecx
	cmp	eax, 59					; 0000003bH
	sete	cl
	mov	al, cl
	pop	edi
	pop	esi
	pop	ebx
	mov	esp, ebp
	pop	ebp
	ret	0
?isSemicolon@@YA_ND@Z ENDP				; isSemicolon
_TEXT	ENDS
PUBLIC	?MakeToken@Scanner@@QAEXW4TokenType@@ABV?$basic_string@DU?$char_traits@D@std@@V?$allocator@D@2@@std@@@Z ; Scanner::MakeToken
PUBLIC	??1SimpleError@@QAE@XZ				; SimpleError::~SimpleError
PUBLIC	?GenScannError@Error@@SA?AUSimpleError@@ABV?$basic_string@DU?$char_traits@D@std@@V?$allocator@D@2@@std@@HH@Z ; Error::GenScannError
PUBLIC	??_C@_0P@MJLDLBEK@Unknown?5lexeme?$AA@		; `string'
PUBLIC	??1?$basic_string@DU?$char_traits@D@std@@V?$allocator@D@2@@std@@QAE@XZ ; std::basic_string<char,std::char_traits<char>,std::allocator<char> >::~basic_string<char,std::char_traits<char>,std::allocator<char> >
PUBLIC	??0TokenBase@@QAE@W4TokenType@@ABV?$basic_string@DU?$char_traits@D@std@@V?$allocator@D@2@@std@@HH@Z ; TokenBase::TokenBase
PUBLIC	??0?$basic_string@DU?$char_traits@D@std@@V?$allocator@D@2@@std@@QAE@PBD@Z ; std::basic_string<char,std::char_traits<char>,std::allocator<char> >::basic_string<char,std::char_traits<char>,std::allocator<char> >
PUBLIC	??_C@_00CNPNBAHC@?$AA@				; `string'
PUBLIC	?isEof@Scanner@@QAE_NXZ				; Scanner::isEof
PUBLIC	__$ArrayPad$
PUBLIC	?CASE_START_FUNC@@YAHQAVScanner@@@Z		; CASE_START_FUNC
EXTRN	??3@YAXPAX@Z:PROC				; operator delete
EXTRN	??2@YAPAXI@Z:PROC				; operator new
EXTRN	___security_cookie:DWORD
EXTRN	___CxxFrameHandler3:PROC
EXTRN	@__security_check_cookie@4:PROC
;	COMDAT ??_C@_0P@MJLDLBEK@Unknown?5lexeme?$AA@
CONST	SEGMENT
??_C@_0P@MJLDLBEK@Unknown?5lexeme?$AA@ DB 'Unknown lexeme', 00H ; `string'
CONST	ENDS
;	COMDAT ??_C@_00CNPNBAHC@?$AA@
CONST	SEGMENT
??_C@_00CNPNBAHC@?$AA@ DB 00H				; `string'
CONST	ENDS
;	COMDAT xdata$x
xdata$x	SEGMENT
__unwindtable$?CASE_START_FUNC@@YAHQAVScanner@@@Z DD 0ffffffffH
	DD	FLAT:__unwindfunclet$?CASE_START_FUNC@@YAHQAVScanner@@@Z$0
	DD	00H
	DD	FLAT:__unwindfunclet$?CASE_START_FUNC@@YAHQAVScanner@@@Z$1
	DD	0ffffffffH
	DD	FLAT:__unwindfunclet$?CASE_START_FUNC@@YAHQAVScanner@@@Z$1
	DD	0ffffffffH
	DD	FLAT:__unwindfunclet$?CASE_START_FUNC@@YAHQAVScanner@@@Z$2
__ehfuncinfo$?CASE_START_FUNC@@YAHQAVScanner@@@Z DD 019930522H
	DD	04H
	DD	FLAT:__unwindtable$?CASE_START_FUNC@@YAHQAVScanner@@@Z
	DD	2 DUP(00H)
	DD	2 DUP(00H)
	DD	00H
	DD	01H
; Function compile flags: /Odtp /RTCsu /ZI
xdata$x	ENDS
;	COMDAT ?CASE_START_FUNC@@YAHQAVScanner@@@Z
_TEXT	SEGMENT
tv94 = -396						; size = 4
tv75 = -396						; size = 4
$T43755 = -388						; size = 4
$T43756 = -376						; size = 4
$T43759 = -364						; size = 4
$T43760 = -352						; size = 4
$T43764 = -340						; size = 4
$T34579 = -328						; size = 32
$T34653 = -288						; size = 32
$T34654 = -248						; size = 36
__$ArrayPad$ = -16					; size = 4
__$EHRec$ = -12						; size = 12
_ptr$ = 8						; size = 4
?CASE_START_FUNC@@YAHQAVScanner@@@Z PROC		; CASE_START_FUNC, COMDAT
; Line 43
	push	ebp
	mov	ebp, esp
	push	-1
	push	__ehhandler$?CASE_START_FUNC@@YAHQAVScanner@@@Z
	mov	eax, DWORD PTR fs:0
	push	eax
	sub	esp, 384				; 00000180H
	push	ebx
	push	esi
	push	edi
	lea	edi, DWORD PTR [ebp-396]
	mov	ecx, 96					; 00000060H
	mov	eax, -858993460				; ccccccccH
	rep stosd
	mov	eax, DWORD PTR ___security_cookie
	xor	eax, ebp
	mov	DWORD PTR __$ArrayPad$[ebp], eax
	push	eax
	lea	eax, DWORD PTR __$EHRec$[ebp]
	mov	DWORD PTR fs:0, eax
	mov	DWORD PTR $T43764[ebp], 0
; Line 44
	mov	ecx, DWORD PTR _ptr$[ebp]
	call	?isEof@Scanner@@QAE_NXZ			; Scanner::isEof
	movzx	eax, al
	test	eax, eax
	je	$LN57@CASE_START
; Line 46
	mov	eax, DWORD PTR _ptr$[ebp]
	mov	ecx, DWORD PTR [eax+236]
	mov	DWORD PTR $T43756[ebp], ecx
	mov	edx, DWORD PTR $T43756[ebp]
	mov	DWORD PTR $T43755[ebp], edx
	cmp	DWORD PTR $T43755[ebp], 0
	je	SHORT $LN60@CASE_START
	mov	esi, esp
	push	1
	mov	eax, DWORD PTR $T43755[ebp]
	mov	edx, DWORD PTR [eax]
	mov	ecx, DWORD PTR $T43755[ebp]
	mov	eax, DWORD PTR [edx]
	call	eax
	cmp	esi, esp
	call	__RTC_CheckEsp
	mov	DWORD PTR tv75[ebp], eax
	jmp	SHORT $LN61@CASE_START
$LN60@CASE_START:
	mov	DWORD PTR tv75[ebp], 0
$LN61@CASE_START:
; Line 47
	push	48					; 00000030H
	call	??2@YAPAXI@Z				; operator new
	add	esp, 4
	mov	DWORD PTR $T43760[ebp], eax
	mov	DWORD PTR __$EHRec$[ebp+8], 0
	cmp	DWORD PTR $T43760[ebp], 0
	je	SHORT $LN62@CASE_START
	push	OFFSET ??_C@_00CNPNBAHC@?$AA@
	lea	ecx, DWORD PTR $T34579[ebp]
	call	??0?$basic_string@DU?$char_traits@D@std@@V?$allocator@D@2@@std@@QAE@PBD@Z ; std::basic_string<char,std::char_traits<char>,std::allocator<char> >::basic_string<char,std::char_traits<char>,std::allocator<char> >
	mov	BYTE PTR __$EHRec$[ebp+8], 1
	mov	eax, DWORD PTR $T43764[ebp]
	or	eax, 1
	mov	DWORD PTR $T43764[ebp], eax
	mov	ecx, DWORD PTR _ptr$[ebp]
	mov	edx, DWORD PTR [ecx+204]
	push	edx
	mov	eax, DWORD PTR _ptr$[ebp]
	mov	ecx, DWORD PTR [eax+200]
	push	ecx
	lea	edx, DWORD PTR $T34579[ebp]
	push	edx
	push	2
	mov	ecx, DWORD PTR $T43760[ebp]
	call	??0TokenBase@@QAE@W4TokenType@@ABV?$basic_string@DU?$char_traits@D@std@@V?$allocator@D@2@@std@@HH@Z ; TokenBase::TokenBase
	mov	DWORD PTR tv94[ebp], eax
	jmp	SHORT $LN63@CASE_START
$LN62@CASE_START:
	mov	DWORD PTR tv94[ebp], 0
$LN63@CASE_START:
	mov	eax, DWORD PTR tv94[ebp]
	mov	DWORD PTR $T43759[ebp], eax
	mov	DWORD PTR __$EHRec$[ebp+8], 2
	mov	ecx, DWORD PTR _ptr$[ebp]
	mov	edx, DWORD PTR $T43759[ebp]
	mov	DWORD PTR [ecx+236], edx
	mov	DWORD PTR __$EHRec$[ebp+8], -1
	mov	eax, DWORD PTR $T43764[ebp]
	and	eax, 1
	je	SHORT $LN67@CASE_START
	and	DWORD PTR $T43764[ebp], -2		; fffffffeH
	lea	ecx, DWORD PTR $T34579[ebp]
	call	??1?$basic_string@DU?$char_traits@D@std@@V?$allocator@D@2@@std@@QAE@XZ ; std::basic_string<char,std::char_traits<char>,std::allocator<char> >::~basic_string<char,std::char_traits<char>,std::allocator<char> >
$LN67@CASE_START:
; Line 48
	mov	eax, 1
	jmp	$LN58@CASE_START
$LN57@CASE_START:
; Line 50
	mov	eax, DWORD PTR _ptr$[ebp]
	movzx	ecx, BYTE PTR [eax+216]
	push	ecx
	call	?isSpace@@YA_ND@Z			; isSpace
	add	esp, 4
	movzx	edx, al
	test	edx, edx
	je	SHORT $LN56@CASE_START
	mov	eax, DWORD PTR _ptr$[ebp]
	mov	DWORD PTR [eax+224], 0
	jmp	$LN55@CASE_START
$LN56@CASE_START:
; Line 51
	mov	eax, DWORD PTR _ptr$[ebp]
	movsx	ecx, BYTE PTR [eax+216]
	cmp	ecx, 34					; 00000022H
	jne	SHORT $LN54@CASE_START
	mov	eax, DWORD PTR _ptr$[ebp]
	mov	DWORD PTR [eax+224], 5
	jmp	$LN55@CASE_START
$LN54@CASE_START:
; Line 52
	mov	eax, DWORD PTR _ptr$[ebp]
	movsx	ecx, BYTE PTR [eax+216]
	cmp	ecx, 39					; 00000027H
	jne	SHORT $LN52@CASE_START
	mov	eax, DWORD PTR _ptr$[ebp]
	mov	DWORD PTR [eax+224], 7
	jmp	$LN55@CASE_START
$LN52@CASE_START:
; Line 53
	mov	eax, DWORD PTR _ptr$[ebp]
	movsx	ecx, BYTE PTR [eax+216]
	cmp	ecx, 61					; 0000003dH
	jne	SHORT $LN50@CASE_START
	mov	eax, DWORD PTR _ptr$[ebp]
	mov	DWORD PTR [eax+224], 4
	jmp	$LN55@CASE_START
$LN50@CASE_START:
; Line 54
	mov	eax, DWORD PTR _ptr$[ebp]
	movsx	ecx, BYTE PTR [eax+216]
	cmp	ecx, 43					; 0000002bH
	jne	SHORT $LN48@CASE_START
	mov	eax, DWORD PTR _ptr$[ebp]
	mov	DWORD PTR [eax+224], 19			; 00000013H
	jmp	$LN55@CASE_START
$LN48@CASE_START:
; Line 55
	mov	eax, DWORD PTR _ptr$[ebp]
	movsx	ecx, BYTE PTR [eax+216]
	cmp	ecx, 45					; 0000002dH
	jne	SHORT $LN46@CASE_START
	mov	eax, DWORD PTR _ptr$[ebp]
	mov	DWORD PTR [eax+224], 20			; 00000014H
	jmp	$LN55@CASE_START
$LN46@CASE_START:
; Line 56
	mov	eax, DWORD PTR _ptr$[ebp]
	movsx	ecx, BYTE PTR [eax+216]
	cmp	ecx, 38					; 00000026H
	jne	SHORT $LN44@CASE_START
	mov	eax, DWORD PTR _ptr$[ebp]
	mov	DWORD PTR [eax+224], 21			; 00000015H
	jmp	$LN55@CASE_START
$LN44@CASE_START:
; Line 57
	mov	eax, DWORD PTR _ptr$[ebp]
	movsx	ecx, BYTE PTR [eax+216]
	cmp	ecx, 124				; 0000007cH
	jne	SHORT $LN42@CASE_START
	mov	eax, DWORD PTR _ptr$[ebp]
	mov	DWORD PTR [eax+224], 22			; 00000016H
	jmp	$LN55@CASE_START
$LN42@CASE_START:
; Line 58
	mov	eax, DWORD PTR _ptr$[ebp]
	movsx	ecx, BYTE PTR [eax+216]
	cmp	ecx, 60					; 0000003cH
	jne	SHORT $LN40@CASE_START
	mov	eax, DWORD PTR _ptr$[ebp]
	mov	DWORD PTR [eax+224], 23			; 00000017H
	jmp	$LN55@CASE_START
$LN40@CASE_START:
; Line 59
	mov	eax, DWORD PTR _ptr$[ebp]
	movsx	ecx, BYTE PTR [eax+216]
	cmp	ecx, 62					; 0000003eH
	jne	SHORT $LN38@CASE_START
	mov	eax, DWORD PTR _ptr$[ebp]
	mov	DWORD PTR [eax+224], 24			; 00000018H
	jmp	$LN55@CASE_START
$LN38@CASE_START:
; Line 60
	mov	eax, DWORD PTR _ptr$[ebp]
	movsx	ecx, BYTE PTR [eax+216]
	cmp	ecx, 33					; 00000021H
	jne	SHORT $LN36@CASE_START
	mov	eax, DWORD PTR _ptr$[ebp]
	mov	DWORD PTR [eax+224], 25			; 00000019H
	jmp	$LN55@CASE_START
$LN36@CASE_START:
; Line 61
	mov	eax, DWORD PTR _ptr$[ebp]
	movsx	ecx, BYTE PTR [eax+216]
	cmp	ecx, 42					; 0000002aH
	jne	SHORT $LN34@CASE_START
	mov	eax, DWORD PTR _ptr$[ebp]
	mov	DWORD PTR [eax+224], 27			; 0000001bH
	jmp	$LN55@CASE_START
$LN34@CASE_START:
; Line 62
	mov	eax, DWORD PTR _ptr$[ebp]
	movsx	ecx, BYTE PTR [eax+216]
	cmp	ecx, 94					; 0000005eH
	jne	SHORT $LN32@CASE_START
	mov	eax, DWORD PTR _ptr$[ebp]
	mov	DWORD PTR [eax+224], 28			; 0000001cH
	jmp	$LN55@CASE_START
$LN32@CASE_START:
; Line 63
	mov	eax, DWORD PTR _ptr$[ebp]
	movsx	ecx, BYTE PTR [eax+216]
	cmp	ecx, 40					; 00000028H
	jne	SHORT $LN30@CASE_START
	mov	eax, DWORD PTR _ptr$[ebp]
	mov	DWORD PTR [eax+224], 29			; 0000001dH
	jmp	$LN55@CASE_START
$LN30@CASE_START:
; Line 64
	mov	eax, DWORD PTR _ptr$[ebp]
	movsx	ecx, BYTE PTR [eax+216]
	cmp	ecx, 41					; 00000029H
	jne	SHORT $LN28@CASE_START
	mov	eax, DWORD PTR _ptr$[ebp]
	mov	DWORD PTR [eax+224], 30			; 0000001eH
	jmp	$LN55@CASE_START
$LN28@CASE_START:
; Line 65
	mov	eax, DWORD PTR _ptr$[ebp]
	movsx	ecx, BYTE PTR [eax+216]
	cmp	ecx, 91					; 0000005bH
	jne	SHORT $LN26@CASE_START
	mov	eax, DWORD PTR _ptr$[ebp]
	mov	DWORD PTR [eax+224], 31			; 0000001fH
	jmp	$LN55@CASE_START
$LN26@CASE_START:
; Line 66
	mov	eax, DWORD PTR _ptr$[ebp]
	movsx	ecx, BYTE PTR [eax+216]
	cmp	ecx, 93					; 0000005dH
	jne	SHORT $LN24@CASE_START
	mov	eax, DWORD PTR _ptr$[ebp]
	mov	DWORD PTR [eax+224], 32			; 00000020H
	jmp	$LN55@CASE_START
$LN24@CASE_START:
; Line 67
	mov	eax, DWORD PTR _ptr$[ebp]
	movsx	ecx, BYTE PTR [eax+216]
	cmp	ecx, 123				; 0000007bH
	jne	SHORT $LN22@CASE_START
	mov	eax, DWORD PTR _ptr$[ebp]
	mov	DWORD PTR [eax+224], 34			; 00000022H
	jmp	$LN55@CASE_START
$LN22@CASE_START:
; Line 68
	mov	eax, DWORD PTR _ptr$[ebp]
	movsx	ecx, BYTE PTR [eax+216]
	cmp	ecx, 125				; 0000007dH
	jne	SHORT $LN20@CASE_START
	mov	eax, DWORD PTR _ptr$[ebp]
	mov	DWORD PTR [eax+224], 35			; 00000023H
	jmp	$LN55@CASE_START
$LN20@CASE_START:
; Line 69
	mov	eax, DWORD PTR _ptr$[ebp]
	movzx	ecx, BYTE PTR [eax+216]
	push	ecx
	call	?isDigit@@YA_ND@Z			; isDigit
	add	esp, 4
	movzx	edx, al
	test	edx, edx
	je	SHORT $LN18@CASE_START
	mov	eax, DWORD PTR _ptr$[ebp]
	mov	DWORD PTR [eax+224], 1
	jmp	$LN55@CASE_START
$LN18@CASE_START:
; Line 70
	mov	eax, DWORD PTR _ptr$[ebp]
	movzx	ecx, BYTE PTR [eax+216]
	push	ecx
	call	?isLetter@@YA_ND@Z			; isLetter
	add	esp, 4
	movzx	edx, al
	test	edx, edx
	jne	SHORT $LN15@CASE_START
	mov	eax, DWORD PTR _ptr$[ebp]
	movsx	ecx, BYTE PTR [eax+216]
	cmp	ecx, 95					; 0000005fH
	jne	SHORT $LN16@CASE_START
$LN15@CASE_START:
	mov	eax, DWORD PTR _ptr$[ebp]
	mov	DWORD PTR [eax+224], 2
	jmp	$LN55@CASE_START
$LN16@CASE_START:
; Line 71
	mov	eax, DWORD PTR _ptr$[ebp]
	movzx	ecx, BYTE PTR [eax+216]
	push	ecx
	call	?isSymDot@@YA_ND@Z			; isSymDot
	add	esp, 4
	movzx	edx, al
	test	edx, edx
	je	SHORT $LN13@CASE_START
	mov	eax, DWORD PTR _ptr$[ebp]
	mov	DWORD PTR [eax+224], 13			; 0000000dH
	jmp	$LN55@CASE_START
$LN13@CASE_START:
; Line 72
	mov	eax, DWORD PTR _ptr$[ebp]
	movzx	ecx, BYTE PTR [eax+216]
	push	ecx
	call	?isSymDiv@@YA_ND@Z			; isSymDiv
	add	esp, 4
	movzx	edx, al
	test	edx, edx
	je	SHORT $LN11@CASE_START
	mov	eax, DWORD PTR _ptr$[ebp]
	mov	DWORD PTR [eax+224], 8
	jmp	$LN55@CASE_START
$LN11@CASE_START:
; Line 73
	mov	eax, DWORD PTR _ptr$[ebp]
	movzx	ecx, BYTE PTR [eax+216]
	push	ecx
	call	?isDelimiter@@YA_ND@Z			; isDelimiter
	add	esp, 4
	movzx	edx, al
	test	edx, edx
	je	SHORT $LN9@CASE_START
	mov	eax, DWORD PTR _ptr$[ebp]
	mov	DWORD PTR [eax+224], 9
	jmp	$LN55@CASE_START
$LN9@CASE_START:
; Line 74
	mov	eax, DWORD PTR _ptr$[ebp]
	movzx	ecx, BYTE PTR [eax+216]
	push	ecx
	call	?isComma@@YA_ND@Z			; isComma
	add	esp, 4
	movzx	edx, al
	test	edx, edx
	je	SHORT $LN7@CASE_START
	mov	eax, DWORD PTR _ptr$[ebp]
	mov	DWORD PTR [eax+224], 26			; 0000001aH
	jmp	$LN55@CASE_START
$LN7@CASE_START:
; Line 75
	mov	eax, DWORD PTR _ptr$[ebp]
	movzx	ecx, BYTE PTR [eax+216]
	push	ecx
	call	?isSemicolon@@YA_ND@Z			; isSemicolon
	add	esp, 4
	movzx	edx, al
	test	edx, edx
	je	SHORT $LN5@CASE_START
	mov	eax, DWORD PTR _ptr$[ebp]
	mov	DWORD PTR [eax+224], 33			; 00000021H
; Line 76
	jmp	$LN55@CASE_START
$LN5@CASE_START:
; Line 78
	mov	eax, DWORD PTR _ptr$[ebp]
	cmp	DWORD PTR [eax+224], 0
	jne	SHORT $LN3@CASE_START
	push	OFFSET ??_C@_0P@MJLDLBEK@Unknown?5lexeme?$AA@
	lea	ecx, DWORD PTR $T34653[ebp]
	call	??0?$basic_string@DU?$char_traits@D@std@@V?$allocator@D@2@@std@@QAE@PBD@Z ; std::basic_string<char,std::char_traits<char>,std::allocator<char> >::basic_string<char,std::char_traits<char>,std::allocator<char> >
	mov	DWORD PTR __$EHRec$[ebp+8], 3
	mov	eax, DWORD PTR _ptr$[ebp]
	mov	ecx, DWORD PTR [eax+204]
	sub	ecx, 1
	push	ecx
	mov	edx, DWORD PTR _ptr$[ebp]
	mov	eax, DWORD PTR [edx+200]
	push	eax
	lea	ecx, DWORD PTR $T34653[ebp]
	push	ecx
	lea	edx, DWORD PTR $T34654[ebp]
	push	edx
	call	?GenScannError@Error@@SA?AUSimpleError@@ABV?$basic_string@DU?$char_traits@D@std@@V?$allocator@D@2@@std@@HH@Z ; Error::GenScannError
	add	esp, 16					; 00000010H
	lea	ecx, DWORD PTR $T34654[ebp]
	call	??1SimpleError@@QAE@XZ
	mov	DWORD PTR __$EHRec$[ebp+8], -1
	lea	ecx, DWORD PTR $T34653[ebp]
	call	??1?$basic_string@DU?$char_traits@D@std@@V?$allocator@D@2@@std@@QAE@XZ ; std::basic_string<char,std::char_traits<char>,std::allocator<char> >::~basic_string<char,std::char_traits<char>,std::allocator<char> >
	jmp	SHORT $LN55@CASE_START
$LN3@CASE_START:
; Line 79
	mov	eax, DWORD PTR _ptr$[ebp]
	cmp	DWORD PTR [eax+224], 9
	jne	SHORT $LN55@CASE_START
	mov	eax, DWORD PTR _ptr$[ebp]
	add	eax, 272				; 00000110H
	push	eax
	push	1
	mov	ecx, DWORD PTR _ptr$[ebp]
	call	?MakeToken@Scanner@@QAEXW4TokenType@@ABV?$basic_string@DU?$char_traits@D@std@@V?$allocator@D@2@@std@@@Z ; Scanner::MakeToken
	mov	eax, 1
	jmp	SHORT $LN58@CASE_START
$LN55@CASE_START:
; Line 81
	xor	eax, eax
$LN58@CASE_START:
; Line 82
	mov	ecx, DWORD PTR __$EHRec$[ebp]
	mov	DWORD PTR fs:0, ecx
	pop	ecx
	pop	edi
	pop	esi
	pop	ebx
	mov	ecx, DWORD PTR __$ArrayPad$[ebp]
	xor	ecx, ebp
	call	@__security_check_cookie@4
	add	esp, 396				; 0000018cH
	cmp	ebp, esp
	call	__RTC_CheckEsp
	mov	esp, ebp
	pop	ebp
	ret	0
_TEXT	ENDS
;	COMDAT text$x
text$x	SEGMENT
__unwindfunclet$?CASE_START_FUNC@@YAHQAVScanner@@@Z$0:
	mov	eax, DWORD PTR $T43760[ebp]
	push	eax
	call	??3@YAXPAX@Z				; operator delete
	pop	ecx
	ret	0
__unwindfunclet$?CASE_START_FUNC@@YAHQAVScanner@@@Z$1:
	mov	eax, DWORD PTR $T43764[ebp]
	and	eax, 1
	je	$LN66@CASE_START
	and	DWORD PTR $T43764[ebp], -2		; fffffffeH
	lea	ecx, DWORD PTR $T34579[ebp]
	jmp	??1?$basic_string@DU?$char_traits@D@std@@V?$allocator@D@2@@std@@QAE@XZ ; std::basic_string<char,std::char_traits<char>,std::allocator<char> >::~basic_string<char,std::char_traits<char>,std::allocator<char> >
$LN66@CASE_START:
	ret	0
__unwindfunclet$?CASE_START_FUNC@@YAHQAVScanner@@@Z$2:
	lea	ecx, DWORD PTR $T34653[ebp]
	jmp	??1?$basic_string@DU?$char_traits@D@std@@V?$allocator@D@2@@std@@QAE@XZ ; std::basic_string<char,std::char_traits<char>,std::allocator<char> >::~basic_string<char,std::char_traits<char>,std::allocator<char> >
__ehhandler$?CASE_START_FUNC@@YAHQAVScanner@@@Z:
	mov	edx, DWORD PTR [esp+8]
	lea	eax, DWORD PTR [edx+12]
	mov	ecx, DWORD PTR [edx-400]
	xor	ecx, eax
	call	@__security_check_cookie@4
	mov	ecx, DWORD PTR [edx-4]
	xor	ecx, eax
	call	@__security_check_cookie@4
	mov	eax, OFFSET __ehfuncinfo$?CASE_START_FUNC@@YAHQAVScanner@@@Z
	jmp	___CxxFrameHandler3
text$x	ENDS
?CASE_START_FUNC@@YAHQAVScanner@@@Z ENDP		; CASE_START_FUNC
; Function compile flags: /Odtp /RTCsu /ZI
;	COMDAT ??1SimpleError@@QAE@XZ
_TEXT	SEGMENT
_this$ = -8						; size = 4
??1SimpleError@@QAE@XZ PROC				; SimpleError::~SimpleError, COMDAT
; _this$ = ecx
	push	ebp
	mov	ebp, esp
	sub	esp, 204				; 000000ccH
	push	ebx
	push	esi
	push	edi
	push	ecx
	lea	edi, DWORD PTR [ebp-204]
	mov	ecx, 51					; 00000033H
	mov	eax, -858993460				; ccccccccH
	rep stosd
	pop	ecx
	mov	DWORD PTR _this$[ebp], ecx
	mov	ecx, DWORD PTR _this$[ebp]
	add	ecx, 4
	call	??1?$basic_string@DU?$char_traits@D@std@@V?$allocator@D@2@@std@@QAE@XZ ; std::basic_string<char,std::char_traits<char>,std::allocator<char> >::~basic_string<char,std::char_traits<char>,std::allocator<char> >
	pop	edi
	pop	esi
	pop	ebx
	add	esp, 204				; 000000ccH
	cmp	ebp, esp
	call	__RTC_CheckEsp
	mov	esp, ebp
	pop	ebp
	ret	0
??1SimpleError@@QAE@XZ ENDP				; SimpleError::~SimpleError
_TEXT	ENDS
PUBLIC	__TI2?AUScannError@@
PUBLIC	??0ScannError@@QAE@ABV?$basic_string@DU?$char_traits@D@std@@V?$allocator@D@2@@std@@HH@Z ; ScannError::ScannError
PUBLIC	__$ArrayPad$
PUBLIC	??1ScannError@@QAE@XZ				; ScannError::~ScannError
PUBLIC	__CTA2?AUScannError@@
PUBLIC	__CT??_R0?AUScannError@@@8??0ScannError@@QAE@ABU0@@Z44
PUBLIC	??_R0?AUScannError@@@8				; ScannError `RTTI Type Descriptor'
PUBLIC	??0ScannError@@QAE@ABU0@@Z			; ScannError::ScannError
PUBLIC	__CT??_R0?AUSimpleError@@@8??0SimpleError@@QAE@ABU0@@Z36
PUBLIC	??_R0?AUSimpleError@@@8				; SimpleError `RTTI Type Descriptor'
PUBLIC	??0SimpleError@@QAE@ABU0@@Z			; SimpleError::SimpleError
EXTRN	__CxxThrowException@8:PROC
EXTRN	??_7type_info@@6B@:QWORD			; type_info::`vftable'
;	COMDAT ??_R0?AUSimpleError@@@8
; File c:\users\дмитрий\documents\visual studio 2010\projects\scanner\scanner\errors.h
_DATA	SEGMENT
??_R0?AUSimpleError@@@8 DD FLAT:??_7type_info@@6B@	; SimpleError `RTTI Type Descriptor'
	DD	00H
	DB	'.?AUSimpleError@@', 00H
_DATA	ENDS
;	COMDAT __CT??_R0?AUSimpleError@@@8??0SimpleError@@QAE@ABU0@@Z36
xdata$x	SEGMENT
__CT??_R0?AUSimpleError@@@8??0SimpleError@@QAE@ABU0@@Z36 DD 00H
	DD	FLAT:??_R0?AUSimpleError@@@8
	DD	00H
	DD	0ffffffffH
	ORG $+4
	DD	024H
	DD	FLAT:??0SimpleError@@QAE@ABU0@@Z
xdata$x	ENDS
;	COMDAT ??_R0?AUScannError@@@8
_DATA	SEGMENT
??_R0?AUScannError@@@8 DD FLAT:??_7type_info@@6B@	; ScannError `RTTI Type Descriptor'
	DD	00H
	DB	'.?AUScannError@@', 00H
_DATA	ENDS
;	COMDAT __CT??_R0?AUScannError@@@8??0ScannError@@QAE@ABU0@@Z44
xdata$x	SEGMENT
__CT??_R0?AUScannError@@@8??0ScannError@@QAE@ABU0@@Z44 DD 00H
	DD	FLAT:??_R0?AUScannError@@@8
	DD	00H
	DD	0ffffffffH
	ORG $+4
	DD	02cH
	DD	FLAT:??0ScannError@@QAE@ABU0@@Z
xdata$x	ENDS
;	COMDAT __CTA2?AUScannError@@
xdata$x	SEGMENT
__CTA2?AUScannError@@ DD 02H
	DD	FLAT:__CT??_R0?AUScannError@@@8??0ScannError@@QAE@ABU0@@Z44
	DD	FLAT:__CT??_R0?AUSimpleError@@@8??0SimpleError@@QAE@ABU0@@Z36
xdata$x	ENDS
;	COMDAT __TI2?AUScannError@@
xdata$x	SEGMENT
__TI2?AUScannError@@ DD 00H
	DD	FLAT:??1ScannError@@QAE@XZ
	DD	00H
	DD	FLAT:__CTA2?AUScannError@@
; Function compile flags: /Odtp /RTCsu /ZI
xdata$x	ENDS
;	COMDAT ?GenScannError@Error@@SA?AUSimpleError@@ABV?$basic_string@DU?$char_traits@D@std@@V?$allocator@D@2@@std@@HH@Z
_TEXT	SEGMENT
$T33559 = -244						; size = 44
__$ArrayPad$ = -4					; size = 4
___$ReturnUdt$ = 8					; size = 4
_str1$ = 12						; size = 4
_line$ = 16						; size = 4
_pos$ = 20						; size = 4
?GenScannError@Error@@SA?AUSimpleError@@ABV?$basic_string@DU?$char_traits@D@std@@V?$allocator@D@2@@std@@HH@Z PROC ; Error::GenScannError, COMDAT
; Line 43
	push	ebp
	mov	ebp, esp
	sub	esp, 248				; 000000f8H
	push	ebx
	push	esi
	push	edi
	lea	edi, DWORD PTR [ebp-248]
	mov	ecx, 62					; 0000003eH
	mov	eax, -858993460				; ccccccccH
	rep stosd
	mov	eax, DWORD PTR ___security_cookie
	xor	eax, ebp
	mov	DWORD PTR __$ArrayPad$[ebp], eax
; Line 44
	mov	eax, DWORD PTR _pos$[ebp]
	push	eax
	mov	ecx, DWORD PTR _line$[ebp]
	push	ecx
	mov	edx, DWORD PTR _str1$[ebp]
	push	edx
	lea	ecx, DWORD PTR $T33559[ebp]
	call	??0ScannError@@QAE@ABV?$basic_string@DU?$char_traits@D@std@@V?$allocator@D@2@@std@@HH@Z ; ScannError::ScannError
	push	OFFSET __TI2?AUScannError@@
	lea	eax, DWORD PTR $T33559[ebp]
	push	eax
	call	__CxxThrowException@8
$LN2@GenScannEr:
; Line 45
	pop	edi
	pop	esi
	pop	ebx
	mov	ecx, DWORD PTR __$ArrayPad$[ebp]
	xor	ecx, ebp
	call	@__security_check_cookie@4
	add	esp, 248				; 000000f8H
	cmp	ebp, esp
	call	__RTC_CheckEsp
	mov	esp, ebp
	pop	ebp
	ret	0
?GenScannError@Error@@SA?AUSimpleError@@ABV?$basic_string@DU?$char_traits@D@std@@V?$allocator@D@2@@std@@HH@Z ENDP ; Error::GenScannError
_TEXT	ENDS
PUBLIC	??_7ScannError@@6B@				; ScannError::`vftable'
PUBLIC	??0SimpleError@@QAE@ABV?$basic_string@DU?$char_traits@D@std@@V?$allocator@D@2@@std@@@Z ; SimpleError::SimpleError
PUBLIC	??_R4ScannError@@6B@				; ScannError::`RTTI Complete Object Locator'
PUBLIC	??_R3ScannError@@8				; ScannError::`RTTI Class Hierarchy Descriptor'
PUBLIC	??_R2ScannError@@8				; ScannError::`RTTI Base Class Array'
PUBLIC	??_R1A@?0A@EA@ScannError@@8			; ScannError::`RTTI Base Class Descriptor at (0,-1,0,64)'
PUBLIC	??_R1A@?0A@EA@SimpleError@@8			; SimpleError::`RTTI Base Class Descriptor at (0,-1,0,64)'
PUBLIC	??_R3SimpleError@@8				; SimpleError::`RTTI Class Hierarchy Descriptor'
PUBLIC	??_R2SimpleError@@8				; SimpleError::`RTTI Base Class Array'
PUBLIC	?PrintError@ScannError@@UAEXAAV?$basic_ostream@DU?$char_traits@D@std@@@std@@@Z ; ScannError::PrintError
;	COMDAT ??_R2SimpleError@@8
rdata$r	SEGMENT
??_R2SimpleError@@8 DD FLAT:??_R1A@?0A@EA@SimpleError@@8 ; SimpleError::`RTTI Base Class Array'
rdata$r	ENDS
;	COMDAT ??_R3SimpleError@@8
rdata$r	SEGMENT
??_R3SimpleError@@8 DD 00H				; SimpleError::`RTTI Class Hierarchy Descriptor'
	DD	00H
	DD	01H
	DD	FLAT:??_R2SimpleError@@8
rdata$r	ENDS
;	COMDAT ??_R1A@?0A@EA@SimpleError@@8
rdata$r	SEGMENT
??_R1A@?0A@EA@SimpleError@@8 DD FLAT:??_R0?AUSimpleError@@@8 ; SimpleError::`RTTI Base Class Descriptor at (0,-1,0,64)'
	DD	00H
	DD	00H
	DD	0ffffffffH
	DD	00H
	DD	040H
	DD	FLAT:??_R3SimpleError@@8
rdata$r	ENDS
;	COMDAT ??_R1A@?0A@EA@ScannError@@8
rdata$r	SEGMENT
??_R1A@?0A@EA@ScannError@@8 DD FLAT:??_R0?AUScannError@@@8 ; ScannError::`RTTI Base Class Descriptor at (0,-1,0,64)'
	DD	01H
	DD	00H
	DD	0ffffffffH
	DD	00H
	DD	040H
	DD	FLAT:??_R3ScannError@@8
rdata$r	ENDS
;	COMDAT ??_R2ScannError@@8
rdata$r	SEGMENT
??_R2ScannError@@8 DD FLAT:??_R1A@?0A@EA@ScannError@@8	; ScannError::`RTTI Base Class Array'
	DD	FLAT:??_R1A@?0A@EA@SimpleError@@8
rdata$r	ENDS
;	COMDAT ??_R3ScannError@@8
rdata$r	SEGMENT
??_R3ScannError@@8 DD 00H				; ScannError::`RTTI Class Hierarchy Descriptor'
	DD	00H
	DD	02H
	DD	FLAT:??_R2ScannError@@8
rdata$r	ENDS
;	COMDAT ??_R4ScannError@@6B@
rdata$r	SEGMENT
??_R4ScannError@@6B@ DD 00H				; ScannError::`RTTI Complete Object Locator'
	DD	00H
	DD	00H
	DD	FLAT:??_R0?AUScannError@@@8
	DD	FLAT:??_R3ScannError@@8
rdata$r	ENDS
;	COMDAT ??_7ScannError@@6B@
CONST	SEGMENT
??_7ScannError@@6B@ DD FLAT:??_R4ScannError@@6B@	; ScannError::`vftable'
	DD	FLAT:?PrintError@ScannError@@UAEXAAV?$basic_ostream@DU?$char_traits@D@std@@@std@@@Z
; Function compile flags: /Odtp /RTCsu /ZI
CONST	ENDS
;	COMDAT ??0ScannError@@QAE@ABV?$basic_string@DU?$char_traits@D@std@@V?$allocator@D@2@@std@@HH@Z
_TEXT	SEGMENT
_this$ = -8						; size = 4
_str1$ = 8						; size = 4
_line1$ = 12						; size = 4
_pos1$ = 16						; size = 4
??0ScannError@@QAE@ABV?$basic_string@DU?$char_traits@D@std@@V?$allocator@D@2@@std@@HH@Z PROC ; ScannError::ScannError, COMDAT
; _this$ = ecx
; Line 18
	push	ebp
	mov	ebp, esp
	sub	esp, 204				; 000000ccH
	push	ebx
	push	esi
	push	edi
	push	ecx
	lea	edi, DWORD PTR [ebp-204]
	mov	ecx, 51					; 00000033H
	mov	eax, -858993460				; ccccccccH
	rep stosd
	pop	ecx
	mov	DWORD PTR _this$[ebp], ecx
	mov	eax, DWORD PTR _str1$[ebp]
	push	eax
	mov	ecx, DWORD PTR _this$[ebp]
	call	??0SimpleError@@QAE@ABV?$basic_string@DU?$char_traits@D@std@@V?$allocator@D@2@@std@@@Z ; SimpleError::SimpleError
	mov	eax, DWORD PTR _this$[ebp]
	mov	DWORD PTR [eax], OFFSET ??_7ScannError@@6B@
	mov	eax, DWORD PTR _this$[ebp]
	mov	ecx, DWORD PTR _line1$[ebp]
	mov	DWORD PTR [eax+36], ecx
	mov	eax, DWORD PTR _this$[ebp]
	mov	ecx, DWORD PTR _pos1$[ebp]
	mov	DWORD PTR [eax+40], ecx
	mov	eax, DWORD PTR _this$[ebp]
	pop	edi
	pop	esi
	pop	ebx
	add	esp, 204				; 000000ccH
	cmp	ebp, esp
	call	__RTC_CheckEsp
	mov	esp, ebp
	pop	ebp
	ret	12					; 0000000cH
??0ScannError@@QAE@ABV?$basic_string@DU?$char_traits@D@std@@V?$allocator@D@2@@std@@HH@Z ENDP ; ScannError::ScannError
_TEXT	ENDS
PUBLIC	??0?$basic_string@DU?$char_traits@D@std@@V?$allocator@D@2@@std@@QAE@ABV01@@Z ; std::basic_string<char,std::char_traits<char>,std::allocator<char> >::basic_string<char,std::char_traits<char>,std::allocator<char> >
PUBLIC	??_7SimpleError@@6B@				; SimpleError::`vftable'
PUBLIC	??_R4SimpleError@@6B@				; SimpleError::`RTTI Complete Object Locator'
PUBLIC	?PrintError@SimpleError@@UAEXAAV?$basic_ostream@DU?$char_traits@D@std@@@std@@@Z ; SimpleError::PrintError
;	COMDAT ??_R4SimpleError@@6B@
rdata$r	SEGMENT
??_R4SimpleError@@6B@ DD 00H				; SimpleError::`RTTI Complete Object Locator'
	DD	00H
	DD	00H
	DD	FLAT:??_R0?AUSimpleError@@@8
	DD	FLAT:??_R3SimpleError@@8
rdata$r	ENDS
;	COMDAT ??_7SimpleError@@6B@
CONST	SEGMENT
??_7SimpleError@@6B@ DD FLAT:??_R4SimpleError@@6B@	; SimpleError::`vftable'
	DD	FLAT:?PrintError@SimpleError@@UAEXAAV?$basic_ostream@DU?$char_traits@D@std@@@std@@@Z
; Function compile flags: /Odtp /RTCsu /ZI
CONST	ENDS
;	COMDAT ??0SimpleError@@QAE@ABV?$basic_string@DU?$char_traits@D@std@@V?$allocator@D@2@@std@@@Z
_TEXT	SEGMENT
_this$ = -8						; size = 4
_str1$ = 8						; size = 4
??0SimpleError@@QAE@ABV?$basic_string@DU?$char_traits@D@std@@V?$allocator@D@2@@std@@@Z PROC ; SimpleError::SimpleError, COMDAT
; _this$ = ecx
; Line 8
	push	ebp
	mov	ebp, esp
	sub	esp, 204				; 000000ccH
	push	ebx
	push	esi
	push	edi
	push	ecx
	lea	edi, DWORD PTR [ebp-204]
	mov	ecx, 51					; 00000033H
	mov	eax, -858993460				; ccccccccH
	rep stosd
	pop	ecx
	mov	DWORD PTR _this$[ebp], ecx
	mov	eax, DWORD PTR _this$[ebp]
	mov	DWORD PTR [eax], OFFSET ??_7SimpleError@@6B@
	mov	eax, DWORD PTR _str1$[ebp]
	push	eax
	mov	ecx, DWORD PTR _this$[ebp]
	add	ecx, 4
	call	??0?$basic_string@DU?$char_traits@D@std@@V?$allocator@D@2@@std@@QAE@ABV01@@Z ; std::basic_string<char,std::char_traits<char>,std::allocator<char> >::basic_string<char,std::char_traits<char>,std::allocator<char> >
	mov	eax, DWORD PTR _this$[ebp]
	pop	edi
	pop	esi
	pop	ebx
	add	esp, 204				; 000000ccH
	cmp	ebp, esp
	call	__RTC_CheckEsp
	mov	esp, ebp
	pop	ebp
	ret	4
??0SimpleError@@QAE@ABV?$basic_string@DU?$char_traits@D@std@@V?$allocator@D@2@@std@@@Z ENDP ; SimpleError::SimpleError
_TEXT	ENDS
PUBLIC	??6?$basic_ostream@DU?$char_traits@D@std@@@std@@QAEAAV01@P6AAAV01@AAV01@@Z@Z ; std::basic_ostream<char,std::char_traits<char> >::operator<<
PUBLIC	??$?6DU?$char_traits@D@std@@V?$allocator@D@1@@std@@YAAAV?$basic_ostream@DU?$char_traits@D@std@@@0@AAV10@ABV?$basic_string@DU?$char_traits@D@std@@V?$allocator@D@2@@0@@Z ; std::operator<<<char,std::char_traits<char>,std::allocator<char> >
PUBLIC	??$?6U?$char_traits@D@std@@@std@@YAAAV?$basic_ostream@DU?$char_traits@D@std@@@0@AAV10@PBD@Z ; std::operator<<<std::char_traits<char> >
PUBLIC	??_C@_07FJOHCPOO@error?3?5?$AA@			; `string'
PUBLIC	?endl@std@@YAAAV?$basic_ostream@DU?$char_traits@D@std@@@1@AAV21@@Z ; std::endl
;	COMDAT ??_C@_07FJOHCPOO@error?3?5?$AA@
CONST	SEGMENT
??_C@_07FJOHCPOO@error?3?5?$AA@ DB 'error: ', 00H	; `string'
; Function compile flags: /Odtp /RTCsu /ZI
CONST	ENDS
;	COMDAT ?PrintError@SimpleError@@UAEXAAV?$basic_ostream@DU?$char_traits@D@std@@@std@@@Z
_TEXT	SEGMENT
_this$ = -8						; size = 4
_os$ = 8						; size = 4
?PrintError@SimpleError@@UAEXAAV?$basic_ostream@DU?$char_traits@D@std@@@std@@@Z PROC ; SimpleError::PrintError, COMDAT
; _this$ = ecx
; Line 10
	push	ebp
	mov	ebp, esp
	sub	esp, 204				; 000000ccH
	push	ebx
	push	esi
	push	edi
	push	ecx
	lea	edi, DWORD PTR [ebp-204]
	mov	ecx, 51					; 00000033H
	mov	eax, -858993460				; ccccccccH
	rep stosd
	pop	ecx
	mov	DWORD PTR _this$[ebp], ecx
; Line 11
	push	OFFSET ?endl@std@@YAAAV?$basic_ostream@DU?$char_traits@D@std@@@1@AAV21@@Z ; std::endl
	mov	eax, DWORD PTR _this$[ebp]
	add	eax, 4
	push	eax
	push	OFFSET ??_C@_07FJOHCPOO@error?3?5?$AA@
	mov	ecx, DWORD PTR _os$[ebp]
	push	ecx
	call	??$?6U?$char_traits@D@std@@@std@@YAAAV?$basic_ostream@DU?$char_traits@D@std@@@0@AAV10@PBD@Z ; std::operator<<<std::char_traits<char> >
	add	esp, 8
	push	eax
	call	??$?6DU?$char_traits@D@std@@V?$allocator@D@1@@std@@YAAAV?$basic_ostream@DU?$char_traits@D@std@@@0@AAV10@ABV?$basic_string@DU?$char_traits@D@std@@V?$allocator@D@2@@0@@Z ; std::operator<<<char,std::char_traits<char>,std::allocator<char> >
	add	esp, 8
	mov	ecx, eax
	call	??6?$basic_ostream@DU?$char_traits@D@std@@@std@@QAEAAV01@P6AAAV01@AAV01@@Z@Z ; std::basic_ostream<char,std::char_traits<char> >::operator<<
; Line 12
	pop	edi
	pop	esi
	pop	ebx
	add	esp, 204				; 000000ccH
	cmp	ebp, esp
	call	__RTC_CheckEsp
	mov	esp, ebp
	pop	ebp
	ret	4
?PrintError@SimpleError@@UAEXAAV?$basic_ostream@DU?$char_traits@D@std@@@std@@@Z ENDP ; SimpleError::PrintError
_TEXT	ENDS
PUBLIC	?flush@?$basic_ostream@DU?$char_traits@D@std@@@std@@QAEAAV12@XZ ; std::basic_ostream<char,std::char_traits<char> >::flush
PUBLIC	?put@?$basic_ostream@DU?$char_traits@D@std@@@std@@QAEAAV12@D@Z ; std::basic_ostream<char,std::char_traits<char> >::put
; Function compile flags: /Odtp /RTCsu /ZI
;	COMDAT ?endl@std@@YAAAV?$basic_ostream@DU?$char_traits@D@std@@@1@AAV21@@Z
_TEXT	SEGMENT
__Ostr$ = 8						; size = 4
?endl@std@@YAAAV?$basic_ostream@DU?$char_traits@D@std@@@1@AAV21@@Z PROC ; std::endl, COMDAT
; File c:\program files\microsoft visual studio 10.0\vc\include\ostream
; Line 1004
	push	ebp
	mov	ebp, esp
	sub	esp, 192				; 000000c0H
	push	ebx
	push	esi
	push	edi
	lea	edi, DWORD PTR [ebp-192]
	mov	ecx, 48					; 00000030H
	mov	eax, -858993460				; ccccccccH
	rep stosd
; Line 1005
	push	10					; 0000000aH
	mov	ecx, DWORD PTR __Ostr$[ebp]
	call	?put@?$basic_ostream@DU?$char_traits@D@std@@@std@@QAEAAV12@D@Z ; std::basic_ostream<char,std::char_traits<char> >::put
; Line 1006
	mov	ecx, DWORD PTR __Ostr$[ebp]
	call	?flush@?$basic_ostream@DU?$char_traits@D@std@@@std@@QAEAAV12@XZ ; std::basic_ostream<char,std::char_traits<char> >::flush
; Line 1007
	mov	eax, DWORD PTR __Ostr$[ebp]
; Line 1008
	pop	edi
	pop	esi
	pop	ebx
	add	esp, 192				; 000000c0H
	cmp	ebp, esp
	call	__RTC_CheckEsp
	mov	esp, ebp
	pop	ebp
	ret	0
?endl@std@@YAAAV?$basic_ostream@DU?$char_traits@D@std@@@1@AAV21@@Z ENDP ; std::endl
_TEXT	ENDS
PUBLIC	??6?$basic_ostream@DU?$char_traits@D@std@@@std@@QAEAAV01@H@Z ; std::basic_ostream<char,std::char_traits<char> >::operator<<
PUBLIC	??_C@_0BB@GLEDNHKN@Scanning?5error?5?$CI?$AA@	; `string'
PUBLIC	??_C@_02KEGNLNML@?0?5?$AA@			; `string'
PUBLIC	??_C@_04OJEGKOEN@?$CJ?5?3?5?$AA@		; `string'
;	COMDAT ??_C@_0BB@GLEDNHKN@Scanning?5error?5?$CI?$AA@
; File c:\users\дмитрий\documents\visual studio 2010\projects\scanner\scanner\errors.h
CONST	SEGMENT
??_C@_0BB@GLEDNHKN@Scanning?5error?5?$CI?$AA@ DB 'Scanning error (', 00H ; `string'
CONST	ENDS
;	COMDAT ??_C@_02KEGNLNML@?0?5?$AA@
CONST	SEGMENT
??_C@_02KEGNLNML@?0?5?$AA@ DB ', ', 00H			; `string'
CONST	ENDS
;	COMDAT ??_C@_04OJEGKOEN@?$CJ?5?3?5?$AA@
CONST	SEGMENT
??_C@_04OJEGKOEN@?$CJ?5?3?5?$AA@ DB ') : ', 00H		; `string'
; Function compile flags: /Odtp /RTCsu /ZI
CONST	ENDS
;	COMDAT ?PrintError@ScannError@@UAEXAAV?$basic_ostream@DU?$char_traits@D@std@@@std@@@Z
_TEXT	SEGMENT
_this$ = -8						; size = 4
_os$ = 8						; size = 4
?PrintError@ScannError@@UAEXAAV?$basic_ostream@DU?$char_traits@D@std@@@std@@@Z PROC ; ScannError::PrintError, COMDAT
; _this$ = ecx
; Line 20
	push	ebp
	mov	ebp, esp
	sub	esp, 204				; 000000ccH
	push	ebx
	push	esi
	push	edi
	push	ecx
	lea	edi, DWORD PTR [ebp-204]
	mov	ecx, 51					; 00000033H
	mov	eax, -858993460				; ccccccccH
	rep stosd
	pop	ecx
	mov	DWORD PTR _this$[ebp], ecx
; Line 21
	push	OFFSET ?endl@std@@YAAAV?$basic_ostream@DU?$char_traits@D@std@@@1@AAV21@@Z ; std::endl
	mov	eax, DWORD PTR _this$[ebp]
	add	eax, 4
	push	eax
	push	OFFSET ??_C@_04OJEGKOEN@?$CJ?5?3?5?$AA@
	mov	ecx, DWORD PTR _this$[ebp]
	mov	edx, DWORD PTR [ecx+40]
	push	edx
	push	OFFSET ??_C@_02KEGNLNML@?0?5?$AA@
	mov	eax, DWORD PTR _this$[ebp]
	mov	ecx, DWORD PTR [eax+36]
	push	ecx
	push	OFFSET ??_C@_0BB@GLEDNHKN@Scanning?5error?5?$CI?$AA@
	mov	edx, DWORD PTR _os$[ebp]
	push	edx
	call	??$?6U?$char_traits@D@std@@@std@@YAAAV?$basic_ostream@DU?$char_traits@D@std@@@0@AAV10@PBD@Z ; std::operator<<<std::char_traits<char> >
	add	esp, 8
	mov	ecx, eax
	call	??6?$basic_ostream@DU?$char_traits@D@std@@@std@@QAEAAV01@H@Z ; std::basic_ostream<char,std::char_traits<char> >::operator<<
	push	eax
	call	??$?6U?$char_traits@D@std@@@std@@YAAAV?$basic_ostream@DU?$char_traits@D@std@@@0@AAV10@PBD@Z ; std::operator<<<std::char_traits<char> >
	add	esp, 8
	mov	ecx, eax
	call	??6?$basic_ostream@DU?$char_traits@D@std@@@std@@QAEAAV01@H@Z ; std::basic_ostream<char,std::char_traits<char> >::operator<<
	push	eax
	call	??$?6U?$char_traits@D@std@@@std@@YAAAV?$basic_ostream@DU?$char_traits@D@std@@@0@AAV10@PBD@Z ; std::operator<<<std::char_traits<char> >
	add	esp, 8
	push	eax
	call	??$?6DU?$char_traits@D@std@@V?$allocator@D@1@@std@@YAAAV?$basic_ostream@DU?$char_traits@D@std@@@0@AAV10@ABV?$basic_string@DU?$char_traits@D@std@@V?$allocator@D@2@@0@@Z ; std::operator<<<char,std::char_traits<char>,std::allocator<char> >
	add	esp, 8
	mov	ecx, eax
	call	??6?$basic_ostream@DU?$char_traits@D@std@@@std@@QAEAAV01@P6AAAV01@AAV01@@Z@Z ; std::basic_ostream<char,std::char_traits<char> >::operator<<
; Line 22
	pop	edi
	pop	esi
	pop	ebx
	add	esp, 204				; 000000ccH
	cmp	ebp, esp
	call	__RTC_CheckEsp
	mov	esp, ebp
	pop	ebp
	ret	4
?PrintError@ScannError@@UAEXAAV?$basic_ostream@DU?$char_traits@D@std@@@std@@@Z ENDP ; ScannError::PrintError
; Function compile flags: /Odtp /RTCsu /ZI
_TEXT	ENDS
;	COMDAT ??0SimpleError@@QAE@ABU0@@Z
_TEXT	SEGMENT
_this$ = -8						; size = 4
___that$ = 8						; size = 4
??0SimpleError@@QAE@ABU0@@Z PROC			; SimpleError::SimpleError, COMDAT
; _this$ = ecx
	push	ebp
	mov	ebp, esp
	sub	esp, 204				; 000000ccH
	push	ebx
	push	esi
	push	edi
	push	ecx
	lea	edi, DWORD PTR [ebp-204]
	mov	ecx, 51					; 00000033H
	mov	eax, -858993460				; ccccccccH
	rep stosd
	pop	ecx
	mov	DWORD PTR _this$[ebp], ecx
	mov	eax, DWORD PTR _this$[ebp]
	mov	DWORD PTR [eax], OFFSET ??_7SimpleError@@6B@
	mov	eax, DWORD PTR ___that$[ebp]
	add	eax, 4
	push	eax
	mov	ecx, DWORD PTR _this$[ebp]
	add	ecx, 4
	call	??0?$basic_string@DU?$char_traits@D@std@@V?$allocator@D@2@@std@@QAE@ABV01@@Z ; std::basic_string<char,std::char_traits<char>,std::allocator<char> >::basic_string<char,std::char_traits<char>,std::allocator<char> >
	mov	eax, DWORD PTR _this$[ebp]
	pop	edi
	pop	esi
	pop	ebx
	add	esp, 204				; 000000ccH
	cmp	ebp, esp
	call	__RTC_CheckEsp
	mov	esp, ebp
	pop	ebp
	ret	4
??0SimpleError@@QAE@ABU0@@Z ENDP			; SimpleError::SimpleError
; Function compile flags: /Odtp /RTCsu /ZI
_TEXT	ENDS
;	COMDAT ??1ScannError@@QAE@XZ
_TEXT	SEGMENT
_this$ = -8						; size = 4
??1ScannError@@QAE@XZ PROC				; ScannError::~ScannError, COMDAT
; _this$ = ecx
	push	ebp
	mov	ebp, esp
	sub	esp, 204				; 000000ccH
	push	ebx
	push	esi
	push	edi
	push	ecx
	lea	edi, DWORD PTR [ebp-204]
	mov	ecx, 51					; 00000033H
	mov	eax, -858993460				; ccccccccH
	rep stosd
	pop	ecx
	mov	DWORD PTR _this$[ebp], ecx
	mov	ecx, DWORD PTR _this$[ebp]
	call	??1SimpleError@@QAE@XZ
	pop	edi
	pop	esi
	pop	ebx
	add	esp, 204				; 000000ccH
	cmp	ebp, esp
	call	__RTC_CheckEsp
	mov	esp, ebp
	pop	ebp
	ret	0
??1ScannError@@QAE@XZ ENDP				; ScannError::~ScannError
; Function compile flags: /Odtp /RTCsu /ZI
_TEXT	ENDS
;	COMDAT ??0ScannError@@QAE@ABU0@@Z
_TEXT	SEGMENT
_this$ = -8						; size = 4
___that$ = 8						; size = 4
??0ScannError@@QAE@ABU0@@Z PROC				; ScannError::ScannError, COMDAT
; _this$ = ecx
	push	ebp
	mov	ebp, esp
	sub	esp, 204				; 000000ccH
	push	ebx
	push	esi
	push	edi
	push	ecx
	lea	edi, DWORD PTR [ebp-204]
	mov	ecx, 51					; 00000033H
	mov	eax, -858993460				; ccccccccH
	rep stosd
	pop	ecx
	mov	DWORD PTR _this$[ebp], ecx
	mov	eax, DWORD PTR ___that$[ebp]
	push	eax
	mov	ecx, DWORD PTR _this$[ebp]
	call	??0SimpleError@@QAE@ABU0@@Z
	mov	eax, DWORD PTR _this$[ebp]
	mov	DWORD PTR [eax], OFFSET ??_7ScannError@@6B@
	mov	eax, DWORD PTR _this$[ebp]
	mov	ecx, DWORD PTR ___that$[ebp]
	mov	edx, DWORD PTR [ecx+36]
	mov	DWORD PTR [eax+36], edx
	mov	eax, DWORD PTR _this$[ebp]
	mov	ecx, DWORD PTR ___that$[ebp]
	mov	edx, DWORD PTR [ecx+40]
	mov	DWORD PTR [eax+40], edx
	mov	eax, DWORD PTR _this$[ebp]
	pop	edi
	pop	esi
	pop	ebx
	add	esp, 204				; 000000ccH
	cmp	ebp, esp
	call	__RTC_CheckEsp
	mov	esp, ebp
	pop	ebp
	ret	4
??0ScannError@@QAE@ABU0@@Z ENDP				; ScannError::ScannError
_TEXT	ENDS
PUBLIC	??_7TokenBase@@6B@				; TokenBase::`vftable'
PUBLIC	??_R4TokenBase@@6B@				; TokenBase::`RTTI Complete Object Locator'
PUBLIC	??_R0?AVTokenBase@@@8				; TokenBase `RTTI Type Descriptor'
PUBLIC	??_R3TokenBase@@8				; TokenBase::`RTTI Class Hierarchy Descriptor'
PUBLIC	??_R2TokenBase@@8				; TokenBase::`RTTI Base Class Array'
PUBLIC	??_R1A@?0A@EA@TokenBase@@8			; TokenBase::`RTTI Base Class Descriptor at (0,-1,0,64)'
PUBLIC	?PrintToken@TokenBase@@UAEXAAV?$basic_ostream@DU?$char_traits@D@std@@@std@@@Z ; TokenBase::PrintToken
EXTRN	??_ETokenBase@@UAEPAXI@Z:PROC			; TokenBase::`vector deleting destructor'
;	COMDAT ??_R1A@?0A@EA@TokenBase@@8
; File c:\users\дмитрий\documents\visual studio 2010\projects\scanner\scanner\scanner.h
rdata$r	SEGMENT
??_R1A@?0A@EA@TokenBase@@8 DD FLAT:??_R0?AVTokenBase@@@8 ; TokenBase::`RTTI Base Class Descriptor at (0,-1,0,64)'
	DD	00H
	DD	00H
	DD	0ffffffffH
	DD	00H
	DD	040H
	DD	FLAT:??_R3TokenBase@@8
rdata$r	ENDS
;	COMDAT ??_R2TokenBase@@8
rdata$r	SEGMENT
??_R2TokenBase@@8 DD FLAT:??_R1A@?0A@EA@TokenBase@@8	; TokenBase::`RTTI Base Class Array'
rdata$r	ENDS
;	COMDAT ??_R3TokenBase@@8
rdata$r	SEGMENT
??_R3TokenBase@@8 DD 00H				; TokenBase::`RTTI Class Hierarchy Descriptor'
	DD	00H
	DD	01H
	DD	FLAT:??_R2TokenBase@@8
rdata$r	ENDS
;	COMDAT ??_R0?AVTokenBase@@@8
_DATA	SEGMENT
??_R0?AVTokenBase@@@8 DD FLAT:??_7type_info@@6B@	; TokenBase `RTTI Type Descriptor'
	DD	00H
	DB	'.?AVTokenBase@@', 00H
_DATA	ENDS
;	COMDAT ??_R4TokenBase@@6B@
rdata$r	SEGMENT
??_R4TokenBase@@6B@ DD 00H				; TokenBase::`RTTI Complete Object Locator'
	DD	00H
	DD	00H
	DD	FLAT:??_R0?AVTokenBase@@@8
	DD	FLAT:??_R3TokenBase@@8
rdata$r	ENDS
;	COMDAT ??_7TokenBase@@6B@
CONST	SEGMENT
??_7TokenBase@@6B@ DD FLAT:??_R4TokenBase@@6B@		; TokenBase::`vftable'
	DD	FLAT:??_ETokenBase@@UAEPAXI@Z
	DD	FLAT:?PrintToken@TokenBase@@UAEXAAV?$basic_ostream@DU?$char_traits@D@std@@@std@@@Z
; Function compile flags: /Odtp /RTCsu /ZI
CONST	ENDS
;	COMDAT ??0TokenBase@@QAE@W4TokenType@@ABV?$basic_string@DU?$char_traits@D@std@@V?$allocator@D@2@@std@@HH@Z
_TEXT	SEGMENT
_this$ = -8						; size = 4
_t$ = 8							; size = 4
_str$ = 12						; size = 4
_l$ = 16						; size = 4
_p$ = 20						; size = 4
??0TokenBase@@QAE@W4TokenType@@ABV?$basic_string@DU?$char_traits@D@std@@V?$allocator@D@2@@std@@HH@Z PROC ; TokenBase::TokenBase, COMDAT
; _this$ = ecx
; Line 51
	push	ebp
	mov	ebp, esp
	sub	esp, 204				; 000000ccH
	push	ebx
	push	esi
	push	edi
	push	ecx
	lea	edi, DWORD PTR [ebp-204]
	mov	ecx, 51					; 00000033H
	mov	eax, -858993460				; ccccccccH
	rep stosd
	pop	ecx
	mov	DWORD PTR _this$[ebp], ecx
	mov	eax, DWORD PTR _this$[ebp]
	mov	DWORD PTR [eax], OFFSET ??_7TokenBase@@6B@
	mov	eax, DWORD PTR _this$[ebp]
	mov	ecx, DWORD PTR _t$[ebp]
	mov	DWORD PTR [eax+4], ecx
	mov	eax, DWORD PTR _str$[ebp]
	push	eax
	mov	ecx, DWORD PTR _this$[ebp]
	add	ecx, 8
	call	??0?$basic_string@DU?$char_traits@D@std@@V?$allocator@D@2@@std@@QAE@ABV01@@Z ; std::basic_string<char,std::char_traits<char>,std::allocator<char> >::basic_string<char,std::char_traits<char>,std::allocator<char> >
	mov	eax, DWORD PTR _this$[ebp]
	mov	ecx, DWORD PTR _l$[ebp]
	mov	DWORD PTR [eax+40], ecx
	mov	eax, DWORD PTR _this$[ebp]
	mov	ecx, DWORD PTR _p$[ebp]
	mov	DWORD PTR [eax+44], ecx
	mov	eax, DWORD PTR _this$[ebp]
	pop	edi
	pop	esi
	pop	ebx
	add	esp, 204				; 000000ccH
	cmp	ebp, esp
	call	__RTC_CheckEsp
	mov	esp, ebp
	pop	ebp
	ret	16					; 00000010H
??0TokenBase@@QAE@W4TokenType@@ABV?$basic_string@DU?$char_traits@D@std@@V?$allocator@D@2@@std@@HH@Z ENDP ; TokenBase::TokenBase
_TEXT	ENDS
PUBLIC	??6?$basic_ostream@DU?$char_traits@D@std@@@std@@QAEAAV01@I@Z ; std::basic_ostream<char,std::char_traits<char> >::operator<<
PUBLIC	??_C@_01OHGJGJJP@?$FL?$AA@			; `string'
PUBLIC	??_C@_01IHBHIGKO@?0?$AA@			; `string'
PUBLIC	??_C@_02PBFOLPKM@?$FN?5?$AA@			; `string'
PUBLIC	??_C@_01CLKCMJKC@?5?$AA@			; `string'
;	COMDAT ??_C@_01OHGJGJJP@?$FL?$AA@
CONST	SEGMENT
??_C@_01OHGJGJJP@?$FL?$AA@ DB '[', 00H			; `string'
CONST	ENDS
;	COMDAT ??_C@_01IHBHIGKO@?0?$AA@
CONST	SEGMENT
??_C@_01IHBHIGKO@?0?$AA@ DB ',', 00H			; `string'
CONST	ENDS
;	COMDAT ??_C@_02PBFOLPKM@?$FN?5?$AA@
CONST	SEGMENT
??_C@_02PBFOLPKM@?$FN?5?$AA@ DB '] ', 00H		; `string'
CONST	ENDS
;	COMDAT ??_C@_01CLKCMJKC@?5?$AA@
CONST	SEGMENT
??_C@_01CLKCMJKC@?5?$AA@ DB ' ', 00H			; `string'
; Function compile flags: /Odtp /RTCsu /ZI
CONST	ENDS
;	COMDAT ?PrintToken@TokenBase@@UAEXAAV?$basic_ostream@DU?$char_traits@D@std@@@std@@@Z
_TEXT	SEGMENT
_this$ = -8						; size = 4
_os$ = 8						; size = 4
?PrintToken@TokenBase@@UAEXAAV?$basic_ostream@DU?$char_traits@D@std@@@std@@@Z PROC ; TokenBase::PrintToken, COMDAT
; _this$ = ecx
; Line 55
	push	ebp
	mov	ebp, esp
	sub	esp, 204				; 000000ccH
	push	ebx
	push	esi
	push	edi
	push	ecx
	lea	edi, DWORD PTR [ebp-204]
	mov	ecx, 51					; 00000033H
	mov	eax, -858993460				; ccccccccH
	rep stosd
	pop	ecx
	mov	DWORD PTR _this$[ebp], ecx
; Line 56
	push	OFFSET ?endl@std@@YAAAV?$basic_ostream@DU?$char_traits@D@std@@@1@AAV21@@Z ; std::endl
	mov	eax, DWORD PTR _this$[ebp]
	add	eax, 8
	push	eax
	push	OFFSET ??_C@_01CLKCMJKC@?5?$AA@
	mov	ecx, DWORD PTR _this$[ebp]
	mov	edx, DWORD PTR [ecx+4]
	shl	edx, 5
	add	edx, OFFSET _TokenTypeString
	push	edx
	push	OFFSET ??_C@_02PBFOLPKM@?$FN?5?$AA@
	mov	eax, DWORD PTR _this$[ebp]
	mov	ecx, DWORD PTR [eax+44]
	push	ecx
	push	OFFSET ??_C@_01IHBHIGKO@?0?$AA@
	mov	edx, DWORD PTR _this$[ebp]
	mov	eax, DWORD PTR [edx+40]
	push	eax
	push	OFFSET ??_C@_01OHGJGJJP@?$FL?$AA@
	mov	ecx, DWORD PTR _os$[ebp]
	push	ecx
	call	??$?6U?$char_traits@D@std@@@std@@YAAAV?$basic_ostream@DU?$char_traits@D@std@@@0@AAV10@PBD@Z ; std::operator<<<std::char_traits<char> >
	add	esp, 8
	mov	ecx, eax
	call	??6?$basic_ostream@DU?$char_traits@D@std@@@std@@QAEAAV01@I@Z ; std::basic_ostream<char,std::char_traits<char> >::operator<<
	push	eax
	call	??$?6U?$char_traits@D@std@@@std@@YAAAV?$basic_ostream@DU?$char_traits@D@std@@@0@AAV10@PBD@Z ; std::operator<<<std::char_traits<char> >
	add	esp, 8
	mov	ecx, eax
	call	??6?$basic_ostream@DU?$char_traits@D@std@@@std@@QAEAAV01@I@Z ; std::basic_ostream<char,std::char_traits<char> >::operator<<
	push	eax
	call	??$?6U?$char_traits@D@std@@@std@@YAAAV?$basic_ostream@DU?$char_traits@D@std@@@0@AAV10@PBD@Z ; std::operator<<<std::char_traits<char> >
	add	esp, 8
	push	eax
	call	??$?6DU?$char_traits@D@std@@V?$allocator@D@1@@std@@YAAAV?$basic_ostream@DU?$char_traits@D@std@@@0@AAV10@ABV?$basic_string@DU?$char_traits@D@std@@V?$allocator@D@2@@0@@Z ; std::operator<<<char,std::char_traits<char>,std::allocator<char> >
	add	esp, 8
	push	eax
	call	??$?6U?$char_traits@D@std@@@std@@YAAAV?$basic_ostream@DU?$char_traits@D@std@@@0@AAV10@PBD@Z ; std::operator<<<std::char_traits<char> >
	add	esp, 8
	push	eax
	call	??$?6DU?$char_traits@D@std@@V?$allocator@D@1@@std@@YAAAV?$basic_ostream@DU?$char_traits@D@std@@@0@AAV10@ABV?$basic_string@DU?$char_traits@D@std@@V?$allocator@D@2@@0@@Z ; std::operator<<<char,std::char_traits<char>,std::allocator<char> >
	add	esp, 8
	mov	ecx, eax
	call	??6?$basic_ostream@DU?$char_traits@D@std@@@std@@QAEAAV01@P6AAAV01@AAV01@@Z@Z ; std::basic_ostream<char,std::char_traits<char> >::operator<<
; Line 57
	pop	edi
	pop	esi
	pop	ebx
	add	esp, 204				; 000000ccH
	cmp	ebp, esp
	call	__RTC_CheckEsp
	mov	esp, ebp
	pop	ebp
	ret	4
?PrintToken@TokenBase@@UAEXAAV?$basic_ostream@DU?$char_traits@D@std@@@std@@@Z ENDP ; TokenBase::PrintToken
_TEXT	ENDS
PUBLIC	??1TokenBase@@UAE@XZ				; TokenBase::~TokenBase
; Function compile flags: /Odtp /RTCsu /ZI
;	COMDAT ??_GTokenBase@@UAEPAXI@Z
_TEXT	SEGMENT
_this$ = -8						; size = 4
___flags$ = 8						; size = 4
??_GTokenBase@@UAEPAXI@Z PROC				; TokenBase::`scalar deleting destructor', COMDAT
; _this$ = ecx
	push	ebp
	mov	ebp, esp
	sub	esp, 204				; 000000ccH
	push	ebx
	push	esi
	push	edi
	push	ecx
	lea	edi, DWORD PTR [ebp-204]
	mov	ecx, 51					; 00000033H
	mov	eax, -858993460				; ccccccccH
	rep stosd
	pop	ecx
	mov	DWORD PTR _this$[ebp], ecx
	mov	ecx, DWORD PTR _this$[ebp]
	call	??1TokenBase@@UAE@XZ			; TokenBase::~TokenBase
	mov	eax, DWORD PTR ___flags$[ebp]
	and	eax, 1
	je	SHORT $LN1@scalar
	mov	eax, DWORD PTR _this$[ebp]
	push	eax
	call	??3@YAXPAX@Z				; operator delete
	add	esp, 4
$LN1@scalar:
	mov	eax, DWORD PTR _this$[ebp]
	pop	edi
	pop	esi
	pop	ebx
	add	esp, 204				; 000000ccH
	cmp	ebp, esp
	call	__RTC_CheckEsp
	mov	esp, ebp
	pop	ebp
	ret	4
??_GTokenBase@@UAEPAXI@Z ENDP				; TokenBase::`scalar deleting destructor'
; Function compile flags: /Odtp /RTCsu /ZI
_TEXT	ENDS
;	COMDAT ??1TokenBase@@UAE@XZ
_TEXT	SEGMENT
_this$ = -8						; size = 4
??1TokenBase@@UAE@XZ PROC				; TokenBase::~TokenBase, COMDAT
; _this$ = ecx
; Line 52
	push	ebp
	mov	ebp, esp
	sub	esp, 204				; 000000ccH
	push	ebx
	push	esi
	push	edi
	push	ecx
	lea	edi, DWORD PTR [ebp-204]
	mov	ecx, 51					; 00000033H
	mov	eax, -858993460				; ccccccccH
	rep stosd
	pop	ecx
	mov	DWORD PTR _this$[ebp], ecx
	mov	eax, DWORD PTR _this$[ebp]
	mov	DWORD PTR [eax], OFFSET ??_7TokenBase@@6B@
	mov	ecx, DWORD PTR _this$[ebp]
	add	ecx, 8
	call	??1?$basic_string@DU?$char_traits@D@std@@V?$allocator@D@2@@std@@QAE@XZ ; std::basic_string<char,std::char_traits<char>,std::allocator<char> >::~basic_string<char,std::char_traits<char>,std::allocator<char> >
	pop	edi
	pop	esi
	pop	ebx
	add	esp, 204				; 000000ccH
	cmp	ebp, esp
	call	__RTC_CheckEsp
	mov	esp, ebp
	pop	ebp
	ret	0
??1TokenBase@@UAE@XZ ENDP				; TokenBase::~TokenBase
_TEXT	ENDS
PUBLIC	?empty@?$stack@DV?$deque@DV?$allocator@D@std@@@std@@@std@@QBE_NXZ ; std::stack<char,std::deque<char,std::allocator<char> > >::empty
PUBLIC	?eof@ios_base@std@@QBE_NXZ			; std::ios_base::eof
; Function compile flags: /Odtp /RTCsu /ZI
;	COMDAT ?isEof@Scanner@@QAE_NXZ
_TEXT	SEGMENT
tv82 = -208						; size = 4
_this$ = -8						; size = 4
?isEof@Scanner@@QAE_NXZ PROC				; Scanner::isEof, COMDAT
; _this$ = ecx
; Line 99
	push	ebp
	mov	ebp, esp
	sub	esp, 208				; 000000d0H
	push	ebx
	push	esi
	push	edi
	push	ecx
	lea	edi, DWORD PTR [ebp-208]
	mov	ecx, 52					; 00000034H
	mov	eax, -858993460				; ccccccccH
	rep stosd
	pop	ecx
	mov	DWORD PTR _this$[ebp], ecx
	mov	eax, DWORD PTR _this$[ebp]
	mov	ecx, DWORD PTR [eax]
	mov	edx, DWORD PTR _this$[ebp]
	add	edx, DWORD PTR [ecx+4]
	mov	ecx, edx
	call	?eof@ios_base@std@@QBE_NXZ		; std::ios_base::eof
	movzx	eax, al
	test	eax, eax
	je	SHORT $LN3@isEof
	mov	ecx, DWORD PTR _this$[ebp]
	add	ecx, 176				; 000000b0H
	call	?empty@?$stack@DV?$deque@DV?$allocator@D@std@@@std@@@std@@QBE_NXZ ; std::stack<char,std::deque<char,std::allocator<char> > >::empty
	movzx	ecx, al
	test	ecx, ecx
	je	SHORT $LN3@isEof
	mov	DWORD PTR tv82[ebp], 1
	jmp	SHORT $LN4@isEof
$LN3@isEof:
	mov	DWORD PTR tv82[ebp], 0
$LN4@isEof:
	mov	al, BYTE PTR tv82[ebp]
	pop	edi
	pop	esi
	pop	ebx
	add	esp, 208				; 000000d0H
	cmp	ebp, esp
	call	__RTC_CheckEsp
	mov	esp, ebp
	pop	ebp
	ret	0
?isEof@Scanner@@QAE_NXZ ENDP				; Scanner::isEof
_TEXT	ENDS
PUBLIC	?rdstate@ios_base@std@@QBEHXZ			; std::ios_base::rdstate
; Function compile flags: /Odtp /RTCsu /ZI
;	COMDAT ?eof@ios_base@std@@QBE_NXZ
_TEXT	SEGMENT
_this$ = -8						; size = 4
?eof@ios_base@std@@QBE_NXZ PROC				; std::ios_base::eof, COMDAT
; _this$ = ecx
; File c:\program files\microsoft visual studio 10.0\vc\include\xiosbase
; Line 362
	push	ebp
	mov	ebp, esp
	sub	esp, 204				; 000000ccH
	push	ebx
	push	esi
	push	edi
	push	ecx
	lea	edi, DWORD PTR [ebp-204]
	mov	ecx, 51					; 00000033H
	mov	eax, -858993460				; ccccccccH
	rep stosd
	pop	ecx
	mov	DWORD PTR _this$[ebp], ecx
; Line 363
	mov	ecx, DWORD PTR _this$[ebp]
	call	?rdstate@ios_base@std@@QBEHXZ		; std::ios_base::rdstate
	and	eax, 1
; Line 364
	pop	edi
	pop	esi
	pop	ebx
	add	esp, 204				; 000000ccH
	cmp	ebp, esp
	call	__RTC_CheckEsp
	mov	esp, ebp
	pop	ebp
	ret	0
?eof@ios_base@std@@QBE_NXZ ENDP				; std::ios_base::eof
; Function compile flags: /Odtp /RTCsu /ZI
_TEXT	ENDS
;	COMDAT ?rdstate@ios_base@std@@QBEHXZ
_TEXT	SEGMENT
_this$ = -8						; size = 4
?rdstate@ios_base@std@@QBEHXZ PROC			; std::ios_base::rdstate, COMDAT
; _this$ = ecx
; Line 335
	push	ebp
	mov	ebp, esp
	sub	esp, 204				; 000000ccH
	push	ebx
	push	esi
	push	edi
	push	ecx
	lea	edi, DWORD PTR [ebp-204]
	mov	ecx, 51					; 00000033H
	mov	eax, -858993460				; ccccccccH
	rep stosd
	pop	ecx
	mov	DWORD PTR _this$[ebp], ecx
; Line 336
	mov	eax, DWORD PTR _this$[ebp]
	mov	eax, DWORD PTR [eax+12]
; Line 337
	pop	edi
	pop	esi
	pop	ebx
	mov	esp, ebp
	pop	ebp
	ret	0
?rdstate@ios_base@std@@QBEHXZ ENDP			; std::ios_base::rdstate
_TEXT	ENDS
PUBLIC	??_C@_0BC@NNLEHFJH@Wrong?5octal?5digit?$AA@	; `string'
PUBLIC	??$MakeToken@H@Scanner@@QAEXW4TokenType@@ABV?$basic_string@DU?$char_traits@D@std@@V?$allocator@D@2@@std@@ABH@Z ; Scanner::MakeToken<int>
PUBLIC	??$ReadString@H@Scanner@@QAEHABV?$basic_string@DU?$char_traits@D@std@@V?$allocator@D@2@@std@@@Z ; Scanner::ReadString<int>
PUBLIC	?PutChar@Scanner@@QAEXD@Z			; Scanner::PutChar
PUBLIC	??_C@_0BB@CKIHLLHH@Wrong?5identifier?$AA@	; `string'
PUBLIC	??A?$basic_string@DU?$char_traits@D@std@@V?$allocator@D@2@@std@@QAEAADI@Z ; std::basic_string<char,std::char_traits<char>,std::allocator<char> >::operator[]
PUBLIC	__$ArrayPad$
PUBLIC	?CASE_DIGIT_FUNC@@YAHQAVScanner@@@Z		; CASE_DIGIT_FUNC
;	COMDAT ??_C@_0BC@NNLEHFJH@Wrong?5octal?5digit?$AA@
; File c:\users\дмитрий\documents\visual studio 2010\projects\scanner\scanner\cases.cpp
CONST	SEGMENT
??_C@_0BC@NNLEHFJH@Wrong?5octal?5digit?$AA@ DB 'Wrong octal digit', 00H ; `string'
CONST	ENDS
;	COMDAT ??_C@_0BB@CKIHLLHH@Wrong?5identifier?$AA@
CONST	SEGMENT
??_C@_0BB@CKIHLLHH@Wrong?5identifier?$AA@ DB 'Wrong identifier', 00H ; `string'
CONST	ENDS
;	COMDAT xdata$x
xdata$x	SEGMENT
__unwindtable$?CASE_DIGIT_FUNC@@YAHQAVScanner@@@Z DD 0ffffffffH
	DD	FLAT:__unwindfunclet$?CASE_DIGIT_FUNC@@YAHQAVScanner@@@Z$0
	DD	0ffffffffH
	DD	FLAT:__unwindfunclet$?CASE_DIGIT_FUNC@@YAHQAVScanner@@@Z$2
__ehfuncinfo$?CASE_DIGIT_FUNC@@YAHQAVScanner@@@Z DD 019930522H
	DD	02H
	DD	FLAT:__unwindtable$?CASE_DIGIT_FUNC@@YAHQAVScanner@@@Z
	DD	2 DUP(00H)
	DD	2 DUP(00H)
	DD	00H
	DD	01H
; Function compile flags: /Odtp /RTCsu /ZI
xdata$x	ENDS
;	COMDAT ?CASE_DIGIT_FUNC@@YAHQAVScanner@@@Z
_TEXT	SEGMENT
$T43830 = -384						; size = 4
$T34666 = -372						; size = 32
$T34667 = -332						; size = 36
$T34693 = -288						; size = 32
$T34694 = -248						; size = 36
__$ArrayPad$ = -16					; size = 4
__$EHRec$ = -12						; size = 12
_ptr$ = 8						; size = 4
?CASE_DIGIT_FUNC@@YAHQAVScanner@@@Z PROC		; CASE_DIGIT_FUNC, COMDAT
; Line 85
	push	ebp
	mov	ebp, esp
	push	-1
	push	__ehhandler$?CASE_DIGIT_FUNC@@YAHQAVScanner@@@Z
	mov	eax, DWORD PTR fs:0
	push	eax
	sub	esp, 376				; 00000178H
	push	ebx
	push	esi
	push	edi
	lea	edi, DWORD PTR [ebp-388]
	mov	ecx, 94					; 0000005eH
	mov	eax, -858993460				; ccccccccH
	rep stosd
	mov	eax, DWORD PTR ___security_cookie
	xor	eax, ebp
	mov	DWORD PTR __$ArrayPad$[ebp], eax
	push	eax
	lea	eax, DWORD PTR __$EHRec$[ebp]
	mov	DWORD PTR fs:0, eax
; Line 87
	mov	ecx, DWORD PTR _ptr$[ebp]
	call	?isEof@Scanner@@QAE_NXZ			; Scanner::isEof
	movzx	eax, al
	test	eax, eax
	jne	$LN17@CASE_DIGIT
	mov	eax, DWORD PTR _ptr$[ebp]
	movzx	ecx, BYTE PTR [eax+216]
	push	ecx
	call	?isDigit@@YA_ND@Z			; isDigit
	add	esp, 4
	movzx	edx, al
	test	edx, edx
	jne	$LN18@CASE_DIGIT
	mov	eax, DWORD PTR _ptr$[ebp]
	movsx	ecx, BYTE PTR [eax+216]
	cmp	ecx, 120				; 00000078H
	je	SHORT $LN15@CASE_DIGIT
	mov	eax, DWORD PTR _ptr$[ebp]
	movsx	ecx, BYTE PTR [eax+216]
	cmp	ecx, 88					; 00000058H
	jne	SHORT $LN16@CASE_DIGIT
$LN15@CASE_DIGIT:
	push	0
	mov	ecx, DWORD PTR _ptr$[ebp]
	add	ecx, 272				; 00000110H
	call	??A?$basic_string@DU?$char_traits@D@std@@V?$allocator@D@2@@std@@QAEAADI@Z ; std::basic_string<char,std::char_traits<char>,std::allocator<char> >::operator[]
	movsx	eax, BYTE PTR [eax]
	cmp	eax, 48					; 00000030H
	je	$LN18@CASE_DIGIT
$LN16@CASE_DIGIT:
	mov	eax, DWORD PTR _ptr$[ebp]
	movsx	ecx, BYTE PTR [eax+216]
	cmp	ecx, 46					; 0000002eH
	je	$LN18@CASE_DIGIT
	mov	eax, DWORD PTR _ptr$[ebp]
	movsx	ecx, BYTE PTR [eax+216]
	cmp	ecx, 101				; 00000065H
	je	$LN18@CASE_DIGIT
	mov	eax, DWORD PTR _ptr$[ebp]
	movsx	ecx, BYTE PTR [eax+216]
	cmp	ecx, 69					; 00000045H
	je	$LN18@CASE_DIGIT
$LN17@CASE_DIGIT:
; Line 89
	mov	eax, DWORD PTR _ptr$[ebp]
	movzx	ecx, BYTE PTR [eax+216]
	push	ecx
	call	?isLetter@@YA_ND@Z			; isLetter
	add	esp, 4
	movzx	edx, al
	test	edx, edx
	je	SHORT $LN14@CASE_DIGIT
	push	OFFSET ??_C@_0BB@CKIHLLHH@Wrong?5identifier?$AA@
	lea	ecx, DWORD PTR $T34666[ebp]
	call	??0?$basic_string@DU?$char_traits@D@std@@V?$allocator@D@2@@std@@QAE@PBD@Z ; std::basic_string<char,std::char_traits<char>,std::allocator<char> >::basic_string<char,std::char_traits<char>,std::allocator<char> >
	mov	DWORD PTR __$EHRec$[ebp+8], 0
	mov	eax, DWORD PTR _ptr$[ebp]
	mov	ecx, DWORD PTR [eax+204]
	sub	ecx, 1
	push	ecx
	mov	edx, DWORD PTR _ptr$[ebp]
	mov	eax, DWORD PTR [edx+200]
	push	eax
	lea	ecx, DWORD PTR $T34666[ebp]
	push	ecx
	lea	edx, DWORD PTR $T34667[ebp]
	push	edx
	call	?GenScannError@Error@@SA?AUSimpleError@@ABV?$basic_string@DU?$char_traits@D@std@@V?$allocator@D@2@@std@@HH@Z ; Error::GenScannError
	add	esp, 16					; 00000010H
	lea	ecx, DWORD PTR $T34667[ebp]
	call	??1SimpleError@@QAE@XZ
	mov	DWORD PTR __$EHRec$[ebp+8], -1
	lea	ecx, DWORD PTR $T34666[ebp]
	call	??1?$basic_string@DU?$char_traits@D@std@@V?$allocator@D@2@@std@@QAE@XZ ; std::basic_string<char,std::char_traits<char>,std::allocator<char> >::~basic_string<char,std::char_traits<char>,std::allocator<char> >
$LN14@CASE_DIGIT:
; Line 90
	mov	ecx, DWORD PTR _ptr$[ebp]
	call	?isEof@Scanner@@QAE_NXZ			; Scanner::isEof
	movzx	eax, al
	test	eax, eax
	jne	SHORT $LN13@CASE_DIGIT
	mov	eax, DWORD PTR _ptr$[ebp]
	movsx	ecx, BYTE PTR [eax+216]
	cmp	ecx, 10					; 0000000aH
	je	SHORT $LN13@CASE_DIGIT
	mov	eax, DWORD PTR _ptr$[ebp]
	movzx	ecx, BYTE PTR [eax+216]
	push	ecx
	mov	ecx, DWORD PTR _ptr$[ebp]
	call	?PutChar@Scanner@@QAEXD@Z		; Scanner::PutChar
$LN13@CASE_DIGIT:
; Line 91
	mov	eax, DWORD PTR _ptr$[ebp]
	add	eax, 272				; 00000110H
	push	eax
	mov	ecx, DWORD PTR _ptr$[ebp]
	call	??$ReadString@H@Scanner@@QAEHABV?$basic_string@DU?$char_traits@D@std@@V?$allocator@D@2@@std@@@Z ; Scanner::ReadString<int>
	mov	DWORD PTR $T43830[ebp], eax
	lea	ecx, DWORD PTR $T43830[ebp]
	push	ecx
	mov	edx, DWORD PTR _ptr$[ebp]
	add	edx, 272				; 00000110H
	push	edx
	push	4
	mov	ecx, DWORD PTR _ptr$[ebp]
	call	??$MakeToken@H@Scanner@@QAEXW4TokenType@@ABV?$basic_string@DU?$char_traits@D@std@@V?$allocator@D@2@@std@@ABH@Z ; Scanner::MakeToken<int>
; Line 92
	mov	eax, 1
	jmp	$LN19@CASE_DIGIT
	jmp	$LN12@CASE_DIGIT
$LN18@CASE_DIGIT:
; Line 94
	mov	eax, DWORD PTR _ptr$[ebp]
	movsx	ecx, BYTE PTR [eax+216]
	cmp	ecx, 46					; 0000002eH
	jne	SHORT $LN11@CASE_DIGIT
	mov	eax, DWORD PTR _ptr$[ebp]
	mov	DWORD PTR [eax+224], 11			; 0000000bH
	jmp	$LN12@CASE_DIGIT
$LN11@CASE_DIGIT:
; Line 95
	mov	eax, DWORD PTR _ptr$[ebp]
	movsx	ecx, BYTE PTR [eax+216]
	cmp	ecx, 101				; 00000065H
	je	SHORT $LN8@CASE_DIGIT
	mov	eax, DWORD PTR _ptr$[ebp]
	movsx	ecx, BYTE PTR [eax+216]
	cmp	ecx, 69					; 00000045H
	jne	SHORT $LN9@CASE_DIGIT
$LN8@CASE_DIGIT:
	mov	eax, DWORD PTR _ptr$[ebp]
	mov	DWORD PTR [eax+224], 12			; 0000000cH
	jmp	$LN12@CASE_DIGIT
$LN9@CASE_DIGIT:
; Line 96
	mov	eax, DWORD PTR _ptr$[ebp]
	movsx	ecx, BYTE PTR [eax+216]
	cmp	ecx, 120				; 00000078H
	je	SHORT $LN5@CASE_DIGIT
	mov	eax, DWORD PTR _ptr$[ebp]
	movsx	ecx, BYTE PTR [eax+216]
	cmp	ecx, 88					; 00000058H
	jne	SHORT $LN6@CASE_DIGIT
$LN5@CASE_DIGIT:
	mov	eax, DWORD PTR _ptr$[ebp]
	mov	DWORD PTR [eax+224], 10			; 0000000aH
	jmp	$LN12@CASE_DIGIT
$LN6@CASE_DIGIT:
; Line 97
	mov	eax, DWORD PTR _ptr$[ebp]
	movzx	ecx, BYTE PTR [eax+216]
	push	ecx
	call	?isOctal@@YA_ND@Z			; isOctal
	add	esp, 4
	movzx	edx, al
	test	edx, edx
	je	SHORT $LN3@CASE_DIGIT
	push	0
	mov	ecx, DWORD PTR _ptr$[ebp]
	add	ecx, 272				; 00000110H
	call	??A?$basic_string@DU?$char_traits@D@std@@V?$allocator@D@2@@std@@QAEAADI@Z ; std::basic_string<char,std::char_traits<char>,std::allocator<char> >::operator[]
	movsx	eax, BYTE PTR [eax]
	cmp	eax, 48					; 00000030H
	jne	SHORT $LN3@CASE_DIGIT
	mov	eax, DWORD PTR _ptr$[ebp]
	mov	DWORD PTR [eax+224], 18			; 00000012H
	jmp	SHORT $LN12@CASE_DIGIT
$LN3@CASE_DIGIT:
; Line 98
	push	0
	mov	ecx, DWORD PTR _ptr$[ebp]
	add	ecx, 272				; 00000110H
	call	??A?$basic_string@DU?$char_traits@D@std@@V?$allocator@D@2@@std@@QAEAADI@Z ; std::basic_string<char,std::char_traits<char>,std::allocator<char> >::operator[]
	movsx	eax, BYTE PTR [eax]
	cmp	eax, 48					; 00000030H
	jne	SHORT $LN12@CASE_DIGIT
	push	OFFSET ??_C@_0BC@NNLEHFJH@Wrong?5octal?5digit?$AA@
	lea	ecx, DWORD PTR $T34693[ebp]
	call	??0?$basic_string@DU?$char_traits@D@std@@V?$allocator@D@2@@std@@QAE@PBD@Z ; std::basic_string<char,std::char_traits<char>,std::allocator<char> >::basic_string<char,std::char_traits<char>,std::allocator<char> >
	mov	DWORD PTR __$EHRec$[ebp+8], 1
	mov	eax, DWORD PTR _ptr$[ebp]
	mov	ecx, DWORD PTR [eax+204]
	sub	ecx, 1
	push	ecx
	mov	edx, DWORD PTR _ptr$[ebp]
	mov	eax, DWORD PTR [edx+200]
	push	eax
	lea	ecx, DWORD PTR $T34693[ebp]
	push	ecx
	lea	edx, DWORD PTR $T34694[ebp]
	push	edx
	call	?GenScannError@Error@@SA?AUSimpleError@@ABV?$basic_string@DU?$char_traits@D@std@@V?$allocator@D@2@@std@@HH@Z ; Error::GenScannError
	add	esp, 16					; 00000010H
	lea	ecx, DWORD PTR $T34694[ebp]
	call	??1SimpleError@@QAE@XZ
	mov	DWORD PTR __$EHRec$[ebp+8], -1
	lea	ecx, DWORD PTR $T34693[ebp]
	call	??1?$basic_string@DU?$char_traits@D@std@@V?$allocator@D@2@@std@@QAE@XZ ; std::basic_string<char,std::char_traits<char>,std::allocator<char> >::~basic_string<char,std::char_traits<char>,std::allocator<char> >
$LN12@CASE_DIGIT:
; Line 99
	xor	eax, eax
$LN19@CASE_DIGIT:
; Line 100
	mov	ecx, DWORD PTR __$EHRec$[ebp]
	mov	DWORD PTR fs:0, ecx
	pop	ecx
	pop	edi
	pop	esi
	pop	ebx
	mov	ecx, DWORD PTR __$ArrayPad$[ebp]
	xor	ecx, ebp
	call	@__security_check_cookie@4
	add	esp, 388				; 00000184H
	cmp	ebp, esp
	call	__RTC_CheckEsp
	mov	esp, ebp
	pop	ebp
	ret	0
_TEXT	ENDS
;	COMDAT text$x
text$x	SEGMENT
__unwindfunclet$?CASE_DIGIT_FUNC@@YAHQAVScanner@@@Z$0:
	lea	ecx, DWORD PTR $T34666[ebp]
	jmp	??1?$basic_string@DU?$char_traits@D@std@@V?$allocator@D@2@@std@@QAE@XZ ; std::basic_string<char,std::char_traits<char>,std::allocator<char> >::~basic_string<char,std::char_traits<char>,std::allocator<char> >
__unwindfunclet$?CASE_DIGIT_FUNC@@YAHQAVScanner@@@Z$2:
	lea	ecx, DWORD PTR $T34693[ebp]
	jmp	??1?$basic_string@DU?$char_traits@D@std@@V?$allocator@D@2@@std@@QAE@XZ ; std::basic_string<char,std::char_traits<char>,std::allocator<char> >::~basic_string<char,std::char_traits<char>,std::allocator<char> >
__ehhandler$?CASE_DIGIT_FUNC@@YAHQAVScanner@@@Z:
	mov	edx, DWORD PTR [esp+8]
	lea	eax, DWORD PTR [edx+12]
	mov	ecx, DWORD PTR [edx-392]
	xor	ecx, eax
	call	@__security_check_cookie@4
	mov	ecx, DWORD PTR [edx-4]
	xor	ecx, eax
	call	@__security_check_cookie@4
	mov	eax, OFFSET __ehfuncinfo$?CASE_DIGIT_FUNC@@YAHQAVScanner@@@Z
	jmp	___CxxFrameHandler3
text$x	ENDS
?CASE_DIGIT_FUNC@@YAHQAVScanner@@@Z ENDP		; CASE_DIGIT_FUNC
PUBLIC	??_C@_0BI@EBLBHHAL@Wrong?5hexadecimal?5digit?$AA@ ; `string'
PUBLIC	?length@?$basic_string@DU?$char_traits@D@std@@V?$allocator@D@2@@std@@QBEIXZ ; std::basic_string<char,std::char_traits<char>,std::allocator<char> >::length
PUBLIC	__$ArrayPad$
PUBLIC	?CASE_HEX_DIGIT_FUNC@@YAHQAVScanner@@@Z		; CASE_HEX_DIGIT_FUNC
EXTRN	@_RTC_CheckStackVars@8:PROC
;	COMDAT ??_C@_0BI@EBLBHHAL@Wrong?5hexadecimal?5digit?$AA@
CONST	SEGMENT
??_C@_0BI@EBLBHHAL@Wrong?5hexadecimal?5digit?$AA@ DB 'Wrong hexadecimal d'
	DB	'igit', 00H					; `string'
CONST	ENDS
;	COMDAT xdata$x
xdata$x	SEGMENT
__unwindtable$?CASE_HEX_DIGIT_FUNC@@YAHQAVScanner@@@Z DD 0ffffffffH
	DD	FLAT:__unwindfunclet$?CASE_HEX_DIGIT_FUNC@@YAHQAVScanner@@@Z$0
__ehfuncinfo$?CASE_HEX_DIGIT_FUNC@@YAHQAVScanner@@@Z DD 019930522H
	DD	01H
	DD	FLAT:__unwindtable$?CASE_HEX_DIGIT_FUNC@@YAHQAVScanner@@@Z
	DD	2 DUP(00H)
	DD	2 DUP(00H)
	DD	00H
	DD	01H
; Function compile flags: /Odtp /RTCsu /ZI
xdata$x	ENDS
;	COMDAT ?CASE_HEX_DIGIT_FUNC@@YAHQAVScanner@@@Z
_TEXT	SEGMENT
tv159 = -344						; size = 4
$T34712 = -336						; size = 32
$T34713 = -296						; size = 36
_i$34706 = -60						; size = 4
_y$34705 = -48						; size = 4
_x$34704 = -36						; size = 4
_size$34702 = -24					; size = 4
__$ArrayPad$ = -16					; size = 4
__$EHRec$ = -12						; size = 12
_ptr$ = 8						; size = 4
?CASE_HEX_DIGIT_FUNC@@YAHQAVScanner@@@Z PROC		; CASE_HEX_DIGIT_FUNC, COMDAT
; Line 103
	push	ebp
	mov	ebp, esp
	push	-1
	push	__ehhandler$?CASE_HEX_DIGIT_FUNC@@YAHQAVScanner@@@Z
	mov	eax, DWORD PTR fs:0
	push	eax
	sub	esp, 332				; 0000014cH
	push	ebx
	push	esi
	push	edi
	lea	edi, DWORD PTR [ebp-344]
	mov	ecx, 83					; 00000053H
	mov	eax, -858993460				; ccccccccH
	rep stosd
	mov	eax, DWORD PTR ___security_cookie
	xor	eax, ebp
	mov	DWORD PTR __$ArrayPad$[ebp], eax
	push	eax
	lea	eax, DWORD PTR __$EHRec$[ebp]
	mov	DWORD PTR fs:0, eax
; Line 104
	mov	ecx, DWORD PTR _ptr$[ebp]
	call	?isEof@Scanner@@QAE_NXZ			; Scanner::isEof
	movzx	eax, al
	test	eax, eax
	jne	SHORT $LN7@CASE_HEX_D
	mov	eax, DWORD PTR _ptr$[ebp]
	movzx	ecx, BYTE PTR [eax+216]
	push	ecx
	call	?isDigit@@YA_ND@Z			; isDigit
	add	esp, 4
	movzx	edx, al
	test	edx, edx
	jne	$LN8@CASE_HEX_D
	mov	eax, DWORD PTR _ptr$[ebp]
	movzx	ecx, BYTE PTR [eax+216]
	push	ecx
	call	?isHex@@YA_ND@Z				; isHex
	add	esp, 4
	movzx	edx, al
	test	edx, edx
	jne	$LN8@CASE_HEX_D
$LN7@CASE_HEX_D:
; Line 106
	mov	ecx, DWORD PTR _ptr$[ebp]
	call	?isEof@Scanner@@QAE_NXZ			; Scanner::isEof
	movzx	eax, al
	test	eax, eax
	jne	SHORT $LN6@CASE_HEX_D
	mov	eax, DWORD PTR _ptr$[ebp]
	movsx	ecx, BYTE PTR [eax+216]
	cmp	ecx, 10					; 0000000aH
	je	SHORT $LN6@CASE_HEX_D
	mov	eax, DWORD PTR _ptr$[ebp]
	movzx	ecx, BYTE PTR [eax+216]
	push	ecx
	mov	ecx, DWORD PTR _ptr$[ebp]
	call	?PutChar@Scanner@@QAEXD@Z		; Scanner::PutChar
$LN6@CASE_HEX_D:
; Line 107
	mov	ecx, DWORD PTR _ptr$[ebp]
	add	ecx, 272				; 00000110H
	call	?length@?$basic_string@DU?$char_traits@D@std@@V?$allocator@D@2@@std@@QBEIXZ ; std::basic_string<char,std::char_traits<char>,std::allocator<char> >::length
	sub	eax, 1
	mov	DWORD PTR _size$34702[ebp], eax
; Line 108
	mov	eax, DWORD PTR _size$34702[ebp]
	push	eax
	mov	ecx, DWORD PTR _ptr$[ebp]
	add	ecx, 272				; 00000110H
	call	??A?$basic_string@DU?$char_traits@D@std@@V?$allocator@D@2@@std@@QAEAADI@Z ; std::basic_string<char,std::char_traits<char>,std::allocator<char> >::operator[]
	movsx	ecx, BYTE PTR [eax]
	cmp	ecx, 120				; 00000078H
	je	$LN5@CASE_HEX_D
	mov	eax, DWORD PTR _size$34702[ebp]
	push	eax
	mov	ecx, DWORD PTR _ptr$[ebp]
	add	ecx, 272				; 00000110H
	call	??A?$basic_string@DU?$char_traits@D@std@@V?$allocator@D@2@@std@@QAEAADI@Z ; std::basic_string<char,std::char_traits<char>,std::allocator<char> >::operator[]
	movsx	ecx, BYTE PTR [eax]
	cmp	ecx, 88					; 00000058H
	je	$LN5@CASE_HEX_D
; Line 110
	mov	DWORD PTR _x$34704[ebp], 1
	mov	DWORD PTR _y$34705[ebp], 0
; Line 111
	mov	eax, DWORD PTR _size$34702[ebp]
	mov	DWORD PTR _i$34706[ebp], eax
	jmp	SHORT $LN4@CASE_HEX_D
$LN3@CASE_HEX_D:
	mov	eax, DWORD PTR _i$34706[ebp]
	sub	eax, 1
	mov	DWORD PTR _i$34706[ebp], eax
$LN4@CASE_HEX_D:
	cmp	DWORD PTR _i$34706[ebp], 1
	jbe	$LN2@CASE_HEX_D
; Line 113
	mov	eax, DWORD PTR _i$34706[ebp]
	push	eax
	mov	ecx, DWORD PTR _ptr$[ebp]
	add	ecx, 272				; 00000110H
	call	??A?$basic_string@DU?$char_traits@D@std@@V?$allocator@D@2@@std@@QAEAADI@Z ; std::basic_string<char,std::char_traits<char>,std::allocator<char> >::operator[]
	movzx	ecx, BYTE PTR [eax]
	push	ecx
	call	?isDigit@@YA_ND@Z			; isDigit
	add	esp, 4
	movzx	edx, al
	test	edx, edx
	je	SHORT $LN11@CASE_HEX_D
	mov	eax, DWORD PTR _i$34706[ebp]
	push	eax
	mov	ecx, DWORD PTR _ptr$[ebp]
	add	ecx, 272				; 00000110H
	call	??A?$basic_string@DU?$char_traits@D@std@@V?$allocator@D@2@@std@@QAEAADI@Z ; std::basic_string<char,std::char_traits<char>,std::allocator<char> >::operator[]
	movsx	ecx, BYTE PTR [eax]
	sub	ecx, 48					; 00000030H
	mov	DWORD PTR tv159[ebp], ecx
	jmp	SHORT $LN12@CASE_HEX_D
$LN11@CASE_HEX_D:
	mov	edx, DWORD PTR _i$34706[ebp]
	push	edx
	mov	ecx, DWORD PTR _ptr$[ebp]
	add	ecx, 272				; 00000110H
	call	??A?$basic_string@DU?$char_traits@D@std@@V?$allocator@D@2@@std@@QAEAADI@Z ; std::basic_string<char,std::char_traits<char>,std::allocator<char> >::operator[]
	movsx	eax, BYTE PTR [eax]
	sub	eax, 55					; 00000037H
	mov	DWORD PTR tv159[ebp], eax
$LN12@CASE_HEX_D:
	mov	ecx, DWORD PTR tv159[ebp]
	imul	ecx, DWORD PTR _x$34704[ebp]
	add	ecx, DWORD PTR _y$34705[ebp]
	mov	DWORD PTR _y$34705[ebp], ecx
; Line 114
	mov	eax, DWORD PTR _x$34704[ebp]
	shl	eax, 4
	mov	DWORD PTR _x$34704[ebp], eax
; Line 115
	jmp	$LN3@CASE_HEX_D
$LN2@CASE_HEX_D:
; Line 116
	lea	eax, DWORD PTR _y$34705[ebp]
	push	eax
	mov	ecx, DWORD PTR _ptr$[ebp]
	add	ecx, 272				; 00000110H
	push	ecx
	push	4
	mov	ecx, DWORD PTR _ptr$[ebp]
	call	??$MakeToken@H@Scanner@@QAEXW4TokenType@@ABV?$basic_string@DU?$char_traits@D@std@@V?$allocator@D@2@@std@@ABH@Z ; Scanner::MakeToken<int>
; Line 117
	mov	eax, 1
	jmp	SHORT $LN9@CASE_HEX_D
	jmp	SHORT $LN8@CASE_HEX_D
$LN5@CASE_HEX_D:
; Line 119
	push	OFFSET ??_C@_0BI@EBLBHHAL@Wrong?5hexadecimal?5digit?$AA@
	lea	ecx, DWORD PTR $T34712[ebp]
	call	??0?$basic_string@DU?$char_traits@D@std@@V?$allocator@D@2@@std@@QAE@PBD@Z ; std::basic_string<char,std::char_traits<char>,std::allocator<char> >::basic_string<char,std::char_traits<char>,std::allocator<char> >
	mov	DWORD PTR __$EHRec$[ebp+8], 0
	mov	eax, DWORD PTR _ptr$[ebp]
	mov	ecx, DWORD PTR [eax+204]
	sub	ecx, 1
	push	ecx
	mov	edx, DWORD PTR _ptr$[ebp]
	mov	eax, DWORD PTR [edx+200]
	push	eax
	lea	ecx, DWORD PTR $T34712[ebp]
	push	ecx
	lea	edx, DWORD PTR $T34713[ebp]
	push	edx
	call	?GenScannError@Error@@SA?AUSimpleError@@ABV?$basic_string@DU?$char_traits@D@std@@V?$allocator@D@2@@std@@HH@Z ; Error::GenScannError
	add	esp, 16					; 00000010H
	lea	ecx, DWORD PTR $T34713[ebp]
	call	??1SimpleError@@QAE@XZ
	mov	DWORD PTR __$EHRec$[ebp+8], -1
	lea	ecx, DWORD PTR $T34712[ebp]
	call	??1?$basic_string@DU?$char_traits@D@std@@V?$allocator@D@2@@std@@QAE@XZ ; std::basic_string<char,std::char_traits<char>,std::allocator<char> >::~basic_string<char,std::char_traits<char>,std::allocator<char> >
$LN8@CASE_HEX_D:
; Line 122
	xor	eax, eax
$LN9@CASE_HEX_D:
; Line 123
	push	edx
	mov	ecx, ebp
	push	eax
	lea	edx, DWORD PTR $LN18@CASE_HEX_D
	call	@_RTC_CheckStackVars@8
	pop	eax
	pop	edx
	mov	ecx, DWORD PTR __$EHRec$[ebp]
	mov	DWORD PTR fs:0, ecx
	pop	ecx
	pop	edi
	pop	esi
	pop	ebx
	mov	ecx, DWORD PTR __$ArrayPad$[ebp]
	xor	ecx, ebp
	call	@__security_check_cookie@4
	add	esp, 344				; 00000158H
	cmp	ebp, esp
	call	__RTC_CheckEsp
	mov	esp, ebp
	pop	ebp
	ret	0
$LN18@CASE_HEX_D:
	DD	1
	DD	$LN17@CASE_HEX_D
$LN17@CASE_HEX_D:
	DD	-48					; ffffffd0H
	DD	4
	DD	$LN15@CASE_HEX_D
$LN15@CASE_HEX_D:
	DB	121					; 00000079H
	DB	0
_TEXT	ENDS
;	COMDAT text$x
text$x	SEGMENT
__unwindfunclet$?CASE_HEX_DIGIT_FUNC@@YAHQAVScanner@@@Z$0:
	lea	ecx, DWORD PTR $T34712[ebp]
	jmp	??1?$basic_string@DU?$char_traits@D@std@@V?$allocator@D@2@@std@@QAE@XZ ; std::basic_string<char,std::char_traits<char>,std::allocator<char> >::~basic_string<char,std::char_traits<char>,std::allocator<char> >
__ehhandler$?CASE_HEX_DIGIT_FUNC@@YAHQAVScanner@@@Z:
	mov	edx, DWORD PTR [esp+8]
	lea	eax, DWORD PTR [edx+12]
	mov	ecx, DWORD PTR [edx-348]
	xor	ecx, eax
	call	@__security_check_cookie@4
	mov	ecx, DWORD PTR [edx-4]
	xor	ecx, eax
	call	@__security_check_cookie@4
	mov	eax, OFFSET __ehfuncinfo$?CASE_HEX_DIGIT_FUNC@@YAHQAVScanner@@@Z
	jmp	___CxxFrameHandler3
text$x	ENDS
?CASE_HEX_DIGIT_FUNC@@YAHQAVScanner@@@Z ENDP		; CASE_HEX_DIGIT_FUNC
PUBLIC	__$ArrayPad$
PUBLIC	?CASE_OCTAL_DIGIT_FUNC@@YAHQAVScanner@@@Z	; CASE_OCTAL_DIGIT_FUNC
;	COMDAT xdata$x
xdata$x	SEGMENT
__unwindtable$?CASE_OCTAL_DIGIT_FUNC@@YAHQAVScanner@@@Z DD 0ffffffffH
	DD	FLAT:__unwindfunclet$?CASE_OCTAL_DIGIT_FUNC@@YAHQAVScanner@@@Z$0
__ehfuncinfo$?CASE_OCTAL_DIGIT_FUNC@@YAHQAVScanner@@@Z DD 019930522H
	DD	01H
	DD	FLAT:__unwindtable$?CASE_OCTAL_DIGIT_FUNC@@YAHQAVScanner@@@Z
	DD	2 DUP(00H)
	DD	2 DUP(00H)
	DD	00H
	DD	01H
; Function compile flags: /Odtp /RTCsu /ZI
xdata$x	ENDS
;	COMDAT ?CASE_OCTAL_DIGIT_FUNC@@YAHQAVScanner@@@Z
_TEXT	SEGMENT
$T34722 = -336						; size = 32
$T34723 = -296						; size = 36
_i$34727 = -60						; size = 4
_size$34726 = -48					; size = 4
_y$34725 = -36						; size = 4
_x$34724 = -24						; size = 4
__$ArrayPad$ = -16					; size = 4
__$EHRec$ = -12						; size = 12
_ptr$ = 8						; size = 4
?CASE_OCTAL_DIGIT_FUNC@@YAHQAVScanner@@@Z PROC		; CASE_OCTAL_DIGIT_FUNC, COMDAT
; Line 126
	push	ebp
	mov	ebp, esp
	push	-1
	push	__ehhandler$?CASE_OCTAL_DIGIT_FUNC@@YAHQAVScanner@@@Z
	mov	eax, DWORD PTR fs:0
	push	eax
	sub	esp, 328				; 00000148H
	push	ebx
	push	esi
	push	edi
	lea	edi, DWORD PTR [ebp-340]
	mov	ecx, 82					; 00000052H
	mov	eax, -858993460				; ccccccccH
	rep stosd
	mov	eax, DWORD PTR ___security_cookie
	xor	eax, ebp
	mov	DWORD PTR __$ArrayPad$[ebp], eax
	push	eax
	lea	eax, DWORD PTR __$EHRec$[ebp]
	mov	DWORD PTR fs:0, eax
; Line 127
	mov	ecx, DWORD PTR _ptr$[ebp]
	call	?isEof@Scanner@@QAE_NXZ			; Scanner::isEof
	movzx	eax, al
	test	eax, eax
	jne	SHORT $LN6@CASE_OCTAL
	mov	eax, DWORD PTR _ptr$[ebp]
	movzx	ecx, BYTE PTR [eax+216]
	push	ecx
	call	?isOctal@@YA_ND@Z			; isOctal
	add	esp, 4
	movzx	edx, al
	test	edx, edx
	jne	$LN7@CASE_OCTAL
$LN6@CASE_OCTAL:
; Line 129
	mov	ecx, DWORD PTR _ptr$[ebp]
	call	?isEof@Scanner@@QAE_NXZ			; Scanner::isEof
	movzx	eax, al
	test	eax, eax
	jne	SHORT $LN5@CASE_OCTAL
	mov	eax, DWORD PTR _ptr$[ebp]
	movzx	ecx, BYTE PTR [eax+216]
	push	ecx
	call	?isDigit@@YA_ND@Z			; isDigit
	add	esp, 4
	movzx	edx, al
	test	edx, edx
	jne	SHORT $LN5@CASE_OCTAL
	mov	eax, DWORD PTR _ptr$[ebp]
	movsx	ecx, BYTE PTR [eax+216]
	cmp	ecx, 10					; 0000000aH
	je	SHORT $LN5@CASE_OCTAL
	mov	eax, DWORD PTR _ptr$[ebp]
	movzx	ecx, BYTE PTR [eax+216]
	push	ecx
	mov	ecx, DWORD PTR _ptr$[ebp]
	call	?PutChar@Scanner@@QAEXD@Z		; Scanner::PutChar
$LN5@CASE_OCTAL:
; Line 130
	mov	eax, DWORD PTR _ptr$[ebp]
	movzx	ecx, BYTE PTR [eax+216]
	push	ecx
	call	?isDigit@@YA_ND@Z			; isDigit
	add	esp, 4
	movzx	edx, al
	test	edx, edx
	je	SHORT $LN4@CASE_OCTAL
	push	OFFSET ??_C@_0BC@NNLEHFJH@Wrong?5octal?5digit?$AA@
	lea	ecx, DWORD PTR $T34722[ebp]
	call	??0?$basic_string@DU?$char_traits@D@std@@V?$allocator@D@2@@std@@QAE@PBD@Z ; std::basic_string<char,std::char_traits<char>,std::allocator<char> >::basic_string<char,std::char_traits<char>,std::allocator<char> >
	mov	DWORD PTR __$EHRec$[ebp+8], 0
	mov	eax, DWORD PTR _ptr$[ebp]
	mov	ecx, DWORD PTR [eax+204]
	sub	ecx, 1
	push	ecx
	mov	edx, DWORD PTR _ptr$[ebp]
	mov	eax, DWORD PTR [edx+200]
	push	eax
	lea	ecx, DWORD PTR $T34722[ebp]
	push	ecx
	lea	edx, DWORD PTR $T34723[ebp]
	push	edx
	call	?GenScannError@Error@@SA?AUSimpleError@@ABV?$basic_string@DU?$char_traits@D@std@@V?$allocator@D@2@@std@@HH@Z ; Error::GenScannError
	add	esp, 16					; 00000010H
	lea	ecx, DWORD PTR $T34723[ebp]
	call	??1SimpleError@@QAE@XZ
	mov	DWORD PTR __$EHRec$[ebp+8], -1
	lea	ecx, DWORD PTR $T34722[ebp]
	call	??1?$basic_string@DU?$char_traits@D@std@@V?$allocator@D@2@@std@@QAE@XZ ; std::basic_string<char,std::char_traits<char>,std::allocator<char> >::~basic_string<char,std::char_traits<char>,std::allocator<char> >
$LN4@CASE_OCTAL:
; Line 132
	mov	DWORD PTR _x$34724[ebp], 1
	mov	DWORD PTR _y$34725[ebp], 0
; Line 133
	mov	ecx, DWORD PTR _ptr$[ebp]
	add	ecx, 272				; 00000110H
	call	?length@?$basic_string@DU?$char_traits@D@std@@V?$allocator@D@2@@std@@QBEIXZ ; std::basic_string<char,std::char_traits<char>,std::allocator<char> >::length
	sub	eax, 1
	mov	DWORD PTR _size$34726[ebp], eax
; Line 134
	mov	eax, DWORD PTR _size$34726[ebp]
	mov	DWORD PTR _i$34727[ebp], eax
	jmp	SHORT $LN3@CASE_OCTAL
$LN2@CASE_OCTAL:
	mov	eax, DWORD PTR _i$34727[ebp]
	sub	eax, 1
	mov	DWORD PTR _i$34727[ebp], eax
$LN3@CASE_OCTAL:
	cmp	DWORD PTR _i$34727[ebp], 1
	jb	SHORT $LN1@CASE_OCTAL
; Line 136
	mov	eax, DWORD PTR _i$34727[ebp]
	push	eax
	mov	ecx, DWORD PTR _ptr$[ebp]
	add	ecx, 272				; 00000110H
	call	??A?$basic_string@DU?$char_traits@D@std@@V?$allocator@D@2@@std@@QAEAADI@Z ; std::basic_string<char,std::char_traits<char>,std::allocator<char> >::operator[]
	movsx	ecx, BYTE PTR [eax]
	sub	ecx, 48					; 00000030H
	imul	ecx, DWORD PTR _x$34724[ebp]
	add	ecx, DWORD PTR _y$34725[ebp]
	mov	DWORD PTR _y$34725[ebp], ecx
; Line 137
	mov	eax, DWORD PTR _x$34724[ebp]
	shl	eax, 3
	mov	DWORD PTR _x$34724[ebp], eax
; Line 138
	jmp	SHORT $LN2@CASE_OCTAL
$LN1@CASE_OCTAL:
; Line 139
	lea	eax, DWORD PTR _y$34725[ebp]
	push	eax
	mov	ecx, DWORD PTR _ptr$[ebp]
	add	ecx, 272				; 00000110H
	push	ecx
	push	4
	mov	ecx, DWORD PTR _ptr$[ebp]
	call	??$MakeToken@H@Scanner@@QAEXW4TokenType@@ABV?$basic_string@DU?$char_traits@D@std@@V?$allocator@D@2@@std@@ABH@Z ; Scanner::MakeToken<int>
; Line 140
	mov	eax, 1
	jmp	SHORT $LN8@CASE_OCTAL
$LN7@CASE_OCTAL:
; Line 143
	xor	eax, eax
$LN8@CASE_OCTAL:
; Line 144
	push	edx
	mov	ecx, ebp
	push	eax
	lea	edx, DWORD PTR $LN15@CASE_OCTAL
	call	@_RTC_CheckStackVars@8
	pop	eax
	pop	edx
	mov	ecx, DWORD PTR __$EHRec$[ebp]
	mov	DWORD PTR fs:0, ecx
	pop	ecx
	pop	edi
	pop	esi
	pop	ebx
	mov	ecx, DWORD PTR __$ArrayPad$[ebp]
	xor	ecx, ebp
	call	@__security_check_cookie@4
	add	esp, 340				; 00000154H
	cmp	ebp, esp
	call	__RTC_CheckEsp
	mov	esp, ebp
	pop	ebp
	ret	0
$LN15@CASE_OCTAL:
	DD	1
	DD	$LN14@CASE_OCTAL
$LN14@CASE_OCTAL:
	DD	-36					; ffffffdcH
	DD	4
	DD	$LN12@CASE_OCTAL
$LN12@CASE_OCTAL:
	DB	121					; 00000079H
	DB	0
_TEXT	ENDS
;	COMDAT text$x
text$x	SEGMENT
__unwindfunclet$?CASE_OCTAL_DIGIT_FUNC@@YAHQAVScanner@@@Z$0:
	lea	ecx, DWORD PTR $T34722[ebp]
	jmp	??1?$basic_string@DU?$char_traits@D@std@@V?$allocator@D@2@@std@@QAE@XZ ; std::basic_string<char,std::char_traits<char>,std::allocator<char> >::~basic_string<char,std::char_traits<char>,std::allocator<char> >
__ehhandler$?CASE_OCTAL_DIGIT_FUNC@@YAHQAVScanner@@@Z:
	mov	edx, DWORD PTR [esp+8]
	lea	eax, DWORD PTR [edx+12]
	mov	ecx, DWORD PTR [edx-344]
	xor	ecx, eax
	call	@__security_check_cookie@4
	mov	ecx, DWORD PTR [edx-4]
	xor	ecx, eax
	call	@__security_check_cookie@4
	mov	eax, OFFSET __ehfuncinfo$?CASE_OCTAL_DIGIT_FUNC@@YAHQAVScanner@@@Z
	jmp	___CxxFrameHandler3
text$x	ENDS
?CASE_OCTAL_DIGIT_FUNC@@YAHQAVScanner@@@Z ENDP		; CASE_OCTAL_DIGIT_FUNC
PUBLIC	??$MakeToken@M@Scanner@@QAEXW4TokenType@@ABV?$basic_string@DU?$char_traits@D@std@@V?$allocator@D@2@@std@@ABM@Z ; Scanner::MakeToken<float>
PUBLIC	??$ReadString@M@Scanner@@QAEMABV?$basic_string@DU?$char_traits@D@std@@V?$allocator@D@2@@std@@@Z ; Scanner::ReadString<float>
PUBLIC	??_C@_0BC@KIOMPOJF@Wrong?5real?5number?$AA@	; `string'
PUBLIC	__$ArrayPad$
PUBLIC	?CASE_REAL_DIGIT_FUNC@@YAHQAVScanner@@@Z	; CASE_REAL_DIGIT_FUNC
EXTRN	__fltused:DWORD
;	COMDAT ??_C@_0BC@KIOMPOJF@Wrong?5real?5number?$AA@
CONST	SEGMENT
??_C@_0BC@KIOMPOJF@Wrong?5real?5number?$AA@ DB 'Wrong real number', 00H ; `string'
CONST	ENDS
;	COMDAT xdata$x
xdata$x	SEGMENT
__unwindtable$?CASE_REAL_DIGIT_FUNC@@YAHQAVScanner@@@Z DD 0ffffffffH
	DD	FLAT:__unwindfunclet$?CASE_REAL_DIGIT_FUNC@@YAHQAVScanner@@@Z$0
__ehfuncinfo$?CASE_REAL_DIGIT_FUNC@@YAHQAVScanner@@@Z DD 019930522H
	DD	01H
	DD	FLAT:__unwindtable$?CASE_REAL_DIGIT_FUNC@@YAHQAVScanner@@@Z
	DD	2 DUP(00H)
	DD	2 DUP(00H)
	DD	00H
	DD	01H
; Function compile flags: /Odtp /RTCsu /ZI
xdata$x	ENDS
;	COMDAT ?CASE_REAL_DIGIT_FUNC@@YAHQAVScanner@@@Z
_TEXT	SEGMENT
$T43875 = -312						; size = 4
$T34740 = -300						; size = 32
$T34741 = -260						; size = 36
_temp$34738 = -21					; size = 1
__$ArrayPad$ = -16					; size = 4
__$EHRec$ = -12						; size = 12
_ptr$ = 8						; size = 4
?CASE_REAL_DIGIT_FUNC@@YAHQAVScanner@@@Z PROC		; CASE_REAL_DIGIT_FUNC, COMDAT
; Line 147
	push	ebp
	mov	ebp, esp
	push	-1
	push	__ehhandler$?CASE_REAL_DIGIT_FUNC@@YAHQAVScanner@@@Z
	mov	eax, DWORD PTR fs:0
	push	eax
	sub	esp, 304				; 00000130H
	push	ebx
	push	esi
	push	edi
	lea	edi, DWORD PTR [ebp-316]
	mov	ecx, 76					; 0000004cH
	mov	eax, -858993460				; ccccccccH
	rep stosd
	mov	eax, DWORD PTR ___security_cookie
	xor	eax, ebp
	mov	DWORD PTR __$ArrayPad$[ebp], eax
	push	eax
	lea	eax, DWORD PTR __$EHRec$[ebp]
	mov	DWORD PTR fs:0, eax
; Line 148
	mov	ecx, DWORD PTR _ptr$[ebp]
	call	?isEof@Scanner@@QAE_NXZ			; Scanner::isEof
	movzx	eax, al
	test	eax, eax
	jne	SHORT $LN7@CASE_REAL_
	mov	eax, DWORD PTR _ptr$[ebp]
	movzx	ecx, BYTE PTR [eax+216]
	push	ecx
	call	?isDigit@@YA_ND@Z			; isDigit
	add	esp, 4
	movzx	edx, al
	test	edx, edx
	jne	$LN8@CASE_REAL_
	mov	eax, DWORD PTR _ptr$[ebp]
	movsx	ecx, BYTE PTR [eax+216]
	cmp	ecx, 101				; 00000065H
	je	$LN8@CASE_REAL_
	mov	eax, DWORD PTR _ptr$[ebp]
	movsx	ecx, BYTE PTR [eax+216]
	cmp	ecx, 69					; 00000045H
	je	$LN8@CASE_REAL_
$LN7@CASE_REAL_:
; Line 150
	mov	ecx, DWORD PTR _ptr$[ebp]
	add	ecx, 272				; 00000110H
	call	?length@?$basic_string@DU?$char_traits@D@std@@V?$allocator@D@2@@std@@QBEIXZ ; std::basic_string<char,std::char_traits<char>,std::allocator<char> >::length
	sub	eax, 1
	push	eax
	mov	ecx, DWORD PTR _ptr$[ebp]
	add	ecx, 272				; 00000110H
	call	??A?$basic_string@DU?$char_traits@D@std@@V?$allocator@D@2@@std@@QAEAADI@Z ; std::basic_string<char,std::char_traits<char>,std::allocator<char> >::operator[]
	movzx	eax, BYTE PTR [eax]
	push	eax
	call	?isDigit@@YA_ND@Z			; isDigit
	add	esp, 4
	movzx	ecx, al
	test	ecx, ecx
	jne	$LN5@CASE_REAL_
; Line 152
	mov	ecx, DWORD PTR _ptr$[ebp]
	add	ecx, 272				; 00000110H
	call	?length@?$basic_string@DU?$char_traits@D@std@@V?$allocator@D@2@@std@@QBEIXZ ; std::basic_string<char,std::char_traits<char>,std::allocator<char> >::length
	sub	eax, 1
	push	eax
	mov	ecx, DWORD PTR _ptr$[ebp]
	add	ecx, 272				; 00000110H
	call	??A?$basic_string@DU?$char_traits@D@std@@V?$allocator@D@2@@std@@QAEAADI@Z ; std::basic_string<char,std::char_traits<char>,std::allocator<char> >::operator[]
	mov	al, BYTE PTR [eax]
	mov	BYTE PTR _temp$34738[ebp], al
; Line 155
	movsx	eax, BYTE PTR _temp$34738[ebp]
	cmp	eax, 59					; 0000003bH
	je	$LN5@CASE_REAL_
	movsx	eax, BYTE PTR _temp$34738[ebp]
	cmp	eax, 44					; 0000002cH
	je	$LN5@CASE_REAL_
	movsx	eax, BYTE PTR _temp$34738[ebp]
	cmp	eax, 93					; 0000005dH
	je	$LN5@CASE_REAL_
	movsx	eax, BYTE PTR _temp$34738[ebp]
	cmp	eax, 41					; 00000029H
	je	$LN5@CASE_REAL_
	movsx	eax, BYTE PTR _temp$34738[ebp]
	cmp	eax, 62					; 0000003eH
	je	$LN5@CASE_REAL_
	movsx	eax, BYTE PTR _temp$34738[ebp]
	cmp	eax, 60					; 0000003cH
	je	$LN5@CASE_REAL_
	movsx	eax, BYTE PTR _temp$34738[ebp]
	cmp	eax, 38					; 00000026H
	je	$LN5@CASE_REAL_
	movsx	eax, BYTE PTR _temp$34738[ebp]
	cmp	eax, 124				; 0000007cH
	je	$LN5@CASE_REAL_
	movsx	eax, BYTE PTR _temp$34738[ebp]
	cmp	eax, 42					; 0000002aH
	je	$LN5@CASE_REAL_
	movsx	eax, BYTE PTR _temp$34738[ebp]
	cmp	eax, 47					; 0000002fH
	je	$LN5@CASE_REAL_
	movsx	eax, BYTE PTR _temp$34738[ebp]
	cmp	eax, 43					; 0000002bH
	je	$LN5@CASE_REAL_
	movsx	eax, BYTE PTR _temp$34738[ebp]
	cmp	eax, 45					; 0000002dH
	je	$LN5@CASE_REAL_
	movsx	eax, BYTE PTR _temp$34738[ebp]
	cmp	eax, 32					; 00000020H
	je	SHORT $LN5@CASE_REAL_
	movsx	eax, BYTE PTR _temp$34738[ebp]
	cmp	eax, 38					; 00000026H
	je	SHORT $LN5@CASE_REAL_
	movsx	eax, BYTE PTR _temp$34738[ebp]
	cmp	eax, 124				; 0000007cH
	je	SHORT $LN5@CASE_REAL_
	movsx	eax, BYTE PTR _temp$34738[ebp]
	cmp	eax, 94					; 0000005eH
	je	SHORT $LN5@CASE_REAL_
; Line 156
	push	OFFSET ??_C@_0BC@KIOMPOJF@Wrong?5real?5number?$AA@
	lea	ecx, DWORD PTR $T34740[ebp]
	call	??0?$basic_string@DU?$char_traits@D@std@@V?$allocator@D@2@@std@@QAE@PBD@Z ; std::basic_string<char,std::char_traits<char>,std::allocator<char> >::basic_string<char,std::char_traits<char>,std::allocator<char> >
	mov	DWORD PTR __$EHRec$[ebp+8], 0
	mov	eax, DWORD PTR _ptr$[ebp]
	mov	ecx, DWORD PTR [eax+204]
	sub	ecx, 1
	push	ecx
	mov	edx, DWORD PTR _ptr$[ebp]
	mov	eax, DWORD PTR [edx+200]
	push	eax
	lea	ecx, DWORD PTR $T34740[ebp]
	push	ecx
	lea	edx, DWORD PTR $T34741[ebp]
	push	edx
	call	?GenScannError@Error@@SA?AUSimpleError@@ABV?$basic_string@DU?$char_traits@D@std@@V?$allocator@D@2@@std@@HH@Z ; Error::GenScannError
	add	esp, 16					; 00000010H
	lea	ecx, DWORD PTR $T34741[ebp]
	call	??1SimpleError@@QAE@XZ
	mov	DWORD PTR __$EHRec$[ebp+8], -1
	lea	ecx, DWORD PTR $T34740[ebp]
	call	??1?$basic_string@DU?$char_traits@D@std@@V?$allocator@D@2@@std@@QAE@XZ ; std::basic_string<char,std::char_traits<char>,std::allocator<char> >::~basic_string<char,std::char_traits<char>,std::allocator<char> >
$LN5@CASE_REAL_:
; Line 158
	mov	ecx, DWORD PTR _ptr$[ebp]
	call	?isEof@Scanner@@QAE_NXZ			; Scanner::isEof
	movzx	eax, al
	test	eax, eax
	jne	SHORT $LN4@CASE_REAL_
	mov	eax, DWORD PTR _ptr$[ebp]
	movsx	ecx, BYTE PTR [eax+216]
	cmp	ecx, 10					; 0000000aH
	je	SHORT $LN4@CASE_REAL_
	mov	eax, DWORD PTR _ptr$[ebp]
	movzx	ecx, BYTE PTR [eax+216]
	push	ecx
	mov	ecx, DWORD PTR _ptr$[ebp]
	call	?PutChar@Scanner@@QAEXD@Z		; Scanner::PutChar
$LN4@CASE_REAL_:
; Line 159
	mov	eax, DWORD PTR _ptr$[ebp]
	add	eax, 272				; 00000110H
	push	eax
	mov	ecx, DWORD PTR _ptr$[ebp]
	call	??$ReadString@M@Scanner@@QAEMABV?$basic_string@DU?$char_traits@D@std@@V?$allocator@D@2@@std@@@Z ; Scanner::ReadString<float>
	fstp	DWORD PTR $T43875[ebp]
	lea	ecx, DWORD PTR $T43875[ebp]
	push	ecx
	mov	edx, DWORD PTR _ptr$[ebp]
	add	edx, 272				; 00000110H
	push	edx
	push	6
	mov	ecx, DWORD PTR _ptr$[ebp]
	call	??$MakeToken@M@Scanner@@QAEXW4TokenType@@ABV?$basic_string@DU?$char_traits@D@std@@V?$allocator@D@2@@std@@ABM@Z ; Scanner::MakeToken<float>
; Line 160
	mov	eax, 1
	jmp	SHORT $LN9@CASE_REAL_
	jmp	SHORT $LN2@CASE_REAL_
$LN8@CASE_REAL_:
; Line 162
	mov	eax, DWORD PTR _ptr$[ebp]
	movsx	ecx, BYTE PTR [eax+216]
	cmp	ecx, 101				; 00000065H
	je	SHORT $LN1@CASE_REAL_
	mov	eax, DWORD PTR _ptr$[ebp]
	movsx	ecx, BYTE PTR [eax+216]
	cmp	ecx, 69					; 00000045H
	jne	SHORT $LN2@CASE_REAL_
$LN1@CASE_REAL_:
	mov	eax, DWORD PTR _ptr$[ebp]
	mov	DWORD PTR [eax+224], 12			; 0000000cH
$LN2@CASE_REAL_:
; Line 163
	xor	eax, eax
$LN9@CASE_REAL_:
; Line 164
	mov	ecx, DWORD PTR __$EHRec$[ebp]
	mov	DWORD PTR fs:0, ecx
	pop	ecx
	pop	edi
	pop	esi
	pop	ebx
	mov	ecx, DWORD PTR __$ArrayPad$[ebp]
	xor	ecx, ebp
	call	@__security_check_cookie@4
	add	esp, 316				; 0000013cH
	cmp	ebp, esp
	call	__RTC_CheckEsp
	mov	esp, ebp
	pop	ebp
	ret	0
_TEXT	ENDS
;	COMDAT text$x
text$x	SEGMENT
__unwindfunclet$?CASE_REAL_DIGIT_FUNC@@YAHQAVScanner@@@Z$0:
	lea	ecx, DWORD PTR $T34740[ebp]
	jmp	??1?$basic_string@DU?$char_traits@D@std@@V?$allocator@D@2@@std@@QAE@XZ ; std::basic_string<char,std::char_traits<char>,std::allocator<char> >::~basic_string<char,std::char_traits<char>,std::allocator<char> >
__ehhandler$?CASE_REAL_DIGIT_FUNC@@YAHQAVScanner@@@Z:
	mov	edx, DWORD PTR [esp+8]
	lea	eax, DWORD PTR [edx+12]
	mov	ecx, DWORD PTR [edx-320]
	xor	ecx, eax
	call	@__security_check_cookie@4
	mov	ecx, DWORD PTR [edx-4]
	xor	ecx, eax
	call	@__security_check_cookie@4
	mov	eax, OFFSET __ehfuncinfo$?CASE_REAL_DIGIT_FUNC@@YAHQAVScanner@@@Z
	jmp	___CxxFrameHandler3
text$x	ENDS
?CASE_REAL_DIGIT_FUNC@@YAHQAVScanner@@@Z ENDP		; CASE_REAL_DIGIT_FUNC
PUBLIC	??_C@_0BL@CPDGIKMP@Floating?5point?5token?5error?$AA@ ; `string'
PUBLIC	__$ArrayPad$
PUBLIC	?CASE_EXPONENT_FUNC@@YAHQAVScanner@@@Z		; CASE_EXPONENT_FUNC
;	COMDAT ??_C@_0BL@CPDGIKMP@Floating?5point?5token?5error?$AA@
CONST	SEGMENT
??_C@_0BL@CPDGIKMP@Floating?5point?5token?5error?$AA@ DB 'Floating point '
	DB	'token error', 00H				; `string'
CONST	ENDS
;	COMDAT xdata$x
xdata$x	SEGMENT
__unwindtable$?CASE_EXPONENT_FUNC@@YAHQAVScanner@@@Z DD 0ffffffffH
	DD	FLAT:__unwindfunclet$?CASE_EXPONENT_FUNC@@YAHQAVScanner@@@Z$0
__ehfuncinfo$?CASE_EXPONENT_FUNC@@YAHQAVScanner@@@Z DD 019930522H
	DD	01H
	DD	FLAT:__unwindtable$?CASE_EXPONENT_FUNC@@YAHQAVScanner@@@Z
	DD	2 DUP(00H)
	DD	2 DUP(00H)
	DD	00H
	DD	01H
; Function compile flags: /Odtp /RTCsu /ZI
xdata$x	ENDS
;	COMDAT ?CASE_EXPONENT_FUNC@@YAHQAVScanner@@@Z
_TEXT	SEGMENT
$T34766 = -288						; size = 32
$T34767 = -248						; size = 36
__$ArrayPad$ = -16					; size = 4
__$EHRec$ = -12						; size = 12
_ptr$ = 8						; size = 4
?CASE_EXPONENT_FUNC@@YAHQAVScanner@@@Z PROC		; CASE_EXPONENT_FUNC, COMDAT
; Line 167
	push	ebp
	mov	ebp, esp
	push	-1
	push	__ehhandler$?CASE_EXPONENT_FUNC@@YAHQAVScanner@@@Z
	mov	eax, DWORD PTR fs:0
	push	eax
	sub	esp, 280				; 00000118H
	push	ebx
	push	esi
	push	edi
	lea	edi, DWORD PTR [ebp-292]
	mov	ecx, 70					; 00000046H
	mov	eax, -858993460				; ccccccccH
	rep stosd
	mov	eax, DWORD PTR ___security_cookie
	xor	eax, ebp
	mov	DWORD PTR __$ArrayPad$[ebp], eax
	push	eax
	lea	eax, DWORD PTR __$EHRec$[ebp]
	mov	DWORD PTR fs:0, eax
; Line 168
	mov	ecx, DWORD PTR _ptr$[ebp]
	call	?isEof@Scanner@@QAE_NXZ			; Scanner::isEof
	movzx	eax, al
	test	eax, eax
	jne	SHORT $LN5@CASE_EXPON
	mov	eax, DWORD PTR _ptr$[ebp]
	movsx	ecx, BYTE PTR [eax+216]
	cmp	ecx, 43					; 0000002bH
	je	SHORT $LN4@CASE_EXPON
	mov	eax, DWORD PTR _ptr$[ebp]
	movsx	ecx, BYTE PTR [eax+216]
	cmp	ecx, 45					; 0000002dH
	jne	SHORT $LN5@CASE_EXPON
$LN4@CASE_EXPON:
	mov	eax, DWORD PTR _ptr$[ebp]
	mov	DWORD PTR [eax+224], 14			; 0000000eH
	jmp	$LN3@CASE_EXPON
$LN5@CASE_EXPON:
; Line 169
	mov	ecx, DWORD PTR _ptr$[ebp]
	call	?isEof@Scanner@@QAE_NXZ			; Scanner::isEof
	movzx	eax, al
	test	eax, eax
	jne	SHORT $LN2@CASE_EXPON
	mov	eax, DWORD PTR _ptr$[ebp]
	movzx	ecx, BYTE PTR [eax+216]
	push	ecx
	call	?isDigit@@YA_ND@Z			; isDigit
	add	esp, 4
	movzx	edx, al
	test	edx, edx
	je	SHORT $LN2@CASE_EXPON
	mov	eax, DWORD PTR _ptr$[ebp]
	mov	DWORD PTR [eax+224], 15			; 0000000fH
	jmp	SHORT $LN3@CASE_EXPON
$LN2@CASE_EXPON:
; Line 170
	push	OFFSET ??_C@_0BL@CPDGIKMP@Floating?5point?5token?5error?$AA@
	lea	ecx, DWORD PTR $T34766[ebp]
	call	??0?$basic_string@DU?$char_traits@D@std@@V?$allocator@D@2@@std@@QAE@PBD@Z ; std::basic_string<char,std::char_traits<char>,std::allocator<char> >::basic_string<char,std::char_traits<char>,std::allocator<char> >
	mov	DWORD PTR __$EHRec$[ebp+8], 0
	mov	eax, DWORD PTR _ptr$[ebp]
	mov	ecx, DWORD PTR [eax+204]
	sub	ecx, 1
	push	ecx
	mov	edx, DWORD PTR _ptr$[ebp]
	mov	eax, DWORD PTR [edx+200]
	push	eax
	lea	ecx, DWORD PTR $T34766[ebp]
	push	ecx
	lea	edx, DWORD PTR $T34767[ebp]
	push	edx
	call	?GenScannError@Error@@SA?AUSimpleError@@ABV?$basic_string@DU?$char_traits@D@std@@V?$allocator@D@2@@std@@HH@Z ; Error::GenScannError
	add	esp, 16					; 00000010H
	lea	ecx, DWORD PTR $T34767[ebp]
	call	??1SimpleError@@QAE@XZ
	mov	DWORD PTR __$EHRec$[ebp+8], -1
	lea	ecx, DWORD PTR $T34766[ebp]
	call	??1?$basic_string@DU?$char_traits@D@std@@V?$allocator@D@2@@std@@QAE@XZ ; std::basic_string<char,std::char_traits<char>,std::allocator<char> >::~basic_string<char,std::char_traits<char>,std::allocator<char> >
$LN3@CASE_EXPON:
; Line 172
	xor	eax, eax
; Line 173
	mov	ecx, DWORD PTR __$EHRec$[ebp]
	mov	DWORD PTR fs:0, ecx
	pop	ecx
	pop	edi
	pop	esi
	pop	ebx
	mov	ecx, DWORD PTR __$ArrayPad$[ebp]
	xor	ecx, ebp
	call	@__security_check_cookie@4
	add	esp, 292				; 00000124H
	cmp	ebp, esp
	call	__RTC_CheckEsp
	mov	esp, ebp
	pop	ebp
	ret	0
_TEXT	ENDS
;	COMDAT text$x
text$x	SEGMENT
__unwindfunclet$?CASE_EXPONENT_FUNC@@YAHQAVScanner@@@Z$0:
	lea	ecx, DWORD PTR $T34766[ebp]
	jmp	??1?$basic_string@DU?$char_traits@D@std@@V?$allocator@D@2@@std@@QAE@XZ ; std::basic_string<char,std::char_traits<char>,std::allocator<char> >::~basic_string<char,std::char_traits<char>,std::allocator<char> >
__ehhandler$?CASE_EXPONENT_FUNC@@YAHQAVScanner@@@Z:
	mov	edx, DWORD PTR [esp+8]
	lea	eax, DWORD PTR [edx+12]
	mov	ecx, DWORD PTR [edx-296]
	xor	ecx, eax
	call	@__security_check_cookie@4
	mov	ecx, DWORD PTR [edx-4]
	xor	ecx, eax
	call	@__security_check_cookie@4
	mov	eax, OFFSET __ehfuncinfo$?CASE_EXPONENT_FUNC@@YAHQAVScanner@@@Z
	jmp	___CxxFrameHandler3
text$x	ENDS
?CASE_EXPONENT_FUNC@@YAHQAVScanner@@@Z ENDP		; CASE_EXPONENT_FUNC
PUBLIC	__$ArrayPad$
PUBLIC	?CASE_EXPONENT_STEP_2_FUNC@@YAHQAVScanner@@@Z	; CASE_EXPONENT_STEP_2_FUNC
;	COMDAT xdata$x
xdata$x	SEGMENT
__unwindtable$?CASE_EXPONENT_STEP_2_FUNC@@YAHQAVScanner@@@Z DD 0ffffffffH
	DD	FLAT:__unwindfunclet$?CASE_EXPONENT_STEP_2_FUNC@@YAHQAVScanner@@@Z$0
__ehfuncinfo$?CASE_EXPONENT_STEP_2_FUNC@@YAHQAVScanner@@@Z DD 019930522H
	DD	01H
	DD	FLAT:__unwindtable$?CASE_EXPONENT_STEP_2_FUNC@@YAHQAVScanner@@@Z
	DD	2 DUP(00H)
	DD	2 DUP(00H)
	DD	00H
	DD	01H
; Function compile flags: /Odtp /RTCsu /ZI
xdata$x	ENDS
;	COMDAT ?CASE_EXPONENT_STEP_2_FUNC@@YAHQAVScanner@@@Z
_TEXT	SEGMENT
$T34774 = -288						; size = 32
$T34775 = -248						; size = 36
__$ArrayPad$ = -16					; size = 4
__$EHRec$ = -12						; size = 12
_ptr$ = 8						; size = 4
?CASE_EXPONENT_STEP_2_FUNC@@YAHQAVScanner@@@Z PROC	; CASE_EXPONENT_STEP_2_FUNC, COMDAT
; Line 176
	push	ebp
	mov	ebp, esp
	push	-1
	push	__ehhandler$?CASE_EXPONENT_STEP_2_FUNC@@YAHQAVScanner@@@Z
	mov	eax, DWORD PTR fs:0
	push	eax
	sub	esp, 280				; 00000118H
	push	ebx
	push	esi
	push	edi
	lea	edi, DWORD PTR [ebp-292]
	mov	ecx, 70					; 00000046H
	mov	eax, -858993460				; ccccccccH
	rep stosd
	mov	eax, DWORD PTR ___security_cookie
	xor	eax, ebp
	mov	DWORD PTR __$ArrayPad$[ebp], eax
	push	eax
	lea	eax, DWORD PTR __$EHRec$[ebp]
	mov	DWORD PTR fs:0, eax
; Line 177
	mov	ecx, DWORD PTR _ptr$[ebp]
	call	?isEof@Scanner@@QAE_NXZ			; Scanner::isEof
	movzx	eax, al
	test	eax, eax
	jne	SHORT $LN2@CASE_EXPON@2
	mov	eax, DWORD PTR _ptr$[ebp]
	movzx	ecx, BYTE PTR [eax+216]
	push	ecx
	call	?isDigit@@YA_ND@Z			; isDigit
	add	esp, 4
	movzx	edx, al
	test	edx, edx
	je	SHORT $LN2@CASE_EXPON@2
	mov	eax, DWORD PTR _ptr$[ebp]
	mov	DWORD PTR [eax+224], 15			; 0000000fH
	jmp	SHORT $LN1@CASE_EXPON@2
$LN2@CASE_EXPON@2:
; Line 178
	push	OFFSET ??_C@_0BL@CPDGIKMP@Floating?5point?5token?5error?$AA@
	lea	ecx, DWORD PTR $T34774[ebp]
	call	??0?$basic_string@DU?$char_traits@D@std@@V?$allocator@D@2@@std@@QAE@PBD@Z ; std::basic_string<char,std::char_traits<char>,std::allocator<char> >::basic_string<char,std::char_traits<char>,std::allocator<char> >
	mov	DWORD PTR __$EHRec$[ebp+8], 0
	mov	eax, DWORD PTR _ptr$[ebp]
	mov	ecx, DWORD PTR [eax+204]
	sub	ecx, 1
	push	ecx
	mov	edx, DWORD PTR _ptr$[ebp]
	mov	eax, DWORD PTR [edx+200]
	push	eax
	lea	ecx, DWORD PTR $T34774[ebp]
	push	ecx
	lea	edx, DWORD PTR $T34775[ebp]
	push	edx
	call	?GenScannError@Error@@SA?AUSimpleError@@ABV?$basic_string@DU?$char_traits@D@std@@V?$allocator@D@2@@std@@HH@Z ; Error::GenScannError
	add	esp, 16					; 00000010H
	lea	ecx, DWORD PTR $T34775[ebp]
	call	??1SimpleError@@QAE@XZ
	mov	DWORD PTR __$EHRec$[ebp+8], -1
	lea	ecx, DWORD PTR $T34774[ebp]
	call	??1?$basic_string@DU?$char_traits@D@std@@V?$allocator@D@2@@std@@QAE@XZ ; std::basic_string<char,std::char_traits<char>,std::allocator<char> >::~basic_string<char,std::char_traits<char>,std::allocator<char> >
$LN1@CASE_EXPON@2:
; Line 180
	xor	eax, eax
; Line 181
	mov	ecx, DWORD PTR __$EHRec$[ebp]
	mov	DWORD PTR fs:0, ecx
	pop	ecx
	pop	edi
	pop	esi
	pop	ebx
	mov	ecx, DWORD PTR __$ArrayPad$[ebp]
	xor	ecx, ebp
	call	@__security_check_cookie@4
	add	esp, 292				; 00000124H
	cmp	ebp, esp
	call	__RTC_CheckEsp
	mov	esp, ebp
	pop	ebp
	ret	0
_TEXT	ENDS
;	COMDAT text$x
text$x	SEGMENT
__unwindfunclet$?CASE_EXPONENT_STEP_2_FUNC@@YAHQAVScanner@@@Z$0:
	lea	ecx, DWORD PTR $T34774[ebp]
	jmp	??1?$basic_string@DU?$char_traits@D@std@@V?$allocator@D@2@@std@@QAE@XZ ; std::basic_string<char,std::char_traits<char>,std::allocator<char> >::~basic_string<char,std::char_traits<char>,std::allocator<char> >
__ehhandler$?CASE_EXPONENT_STEP_2_FUNC@@YAHQAVScanner@@@Z:
	mov	edx, DWORD PTR [esp+8]
	lea	eax, DWORD PTR [edx+12]
	mov	ecx, DWORD PTR [edx-296]
	xor	ecx, eax
	call	@__security_check_cookie@4
	mov	ecx, DWORD PTR [edx-4]
	xor	ecx, eax
	call	@__security_check_cookie@4
	mov	eax, OFFSET __ehfuncinfo$?CASE_EXPONENT_STEP_2_FUNC@@YAHQAVScanner@@@Z
	jmp	___CxxFrameHandler3
text$x	ENDS
?CASE_EXPONENT_STEP_2_FUNC@@YAHQAVScanner@@@Z ENDP	; CASE_EXPONENT_STEP_2_FUNC
PUBLIC	?CASE_EXPONENT_STEP_3_FUNC@@YAHQAVScanner@@@Z	; CASE_EXPONENT_STEP_3_FUNC
; Function compile flags: /Odtp /RTCsu /ZI
;	COMDAT ?CASE_EXPONENT_STEP_3_FUNC@@YAHQAVScanner@@@Z
_TEXT	SEGMENT
$T43909 = -200						; size = 4
_ptr$ = 8						; size = 4
?CASE_EXPONENT_STEP_3_FUNC@@YAHQAVScanner@@@Z PROC	; CASE_EXPONENT_STEP_3_FUNC, COMDAT
; Line 184
	push	ebp
	mov	ebp, esp
	sub	esp, 204				; 000000ccH
	push	ebx
	push	esi
	push	edi
	lea	edi, DWORD PTR [ebp-204]
	mov	ecx, 51					; 00000033H
	mov	eax, -858993460				; ccccccccH
	rep stosd
; Line 185
	mov	ecx, DWORD PTR _ptr$[ebp]
	call	?isEof@Scanner@@QAE_NXZ			; Scanner::isEof
	movzx	eax, al
	test	eax, eax
	jne	SHORT $LN2@CASE_EXPON@3
	mov	eax, DWORD PTR _ptr$[ebp]
	movzx	ecx, BYTE PTR [eax+216]
	push	ecx
	call	?isDigit@@YA_ND@Z			; isDigit
	add	esp, 4
	movzx	edx, al
	test	edx, edx
	jne	SHORT $LN3@CASE_EXPON@3
$LN2@CASE_EXPON@3:
; Line 187
	mov	ecx, DWORD PTR _ptr$[ebp]
	call	?isEof@Scanner@@QAE_NXZ			; Scanner::isEof
	movzx	eax, al
	test	eax, eax
	jne	SHORT $LN1@CASE_EXPON@3
	mov	eax, DWORD PTR _ptr$[ebp]
	movsx	ecx, BYTE PTR [eax+216]
	cmp	ecx, 10					; 0000000aH
	je	SHORT $LN1@CASE_EXPON@3
	mov	eax, DWORD PTR _ptr$[ebp]
	movzx	ecx, BYTE PTR [eax+216]
	push	ecx
	mov	ecx, DWORD PTR _ptr$[ebp]
	call	?PutChar@Scanner@@QAEXD@Z		; Scanner::PutChar
$LN1@CASE_EXPON@3:
; Line 188
	mov	eax, DWORD PTR _ptr$[ebp]
	add	eax, 272				; 00000110H
	push	eax
	mov	ecx, DWORD PTR _ptr$[ebp]
	call	??$ReadString@M@Scanner@@QAEMABV?$basic_string@DU?$char_traits@D@std@@V?$allocator@D@2@@std@@@Z ; Scanner::ReadString<float>
	fstp	DWORD PTR $T43909[ebp]
	lea	ecx, DWORD PTR $T43909[ebp]
	push	ecx
	mov	edx, DWORD PTR _ptr$[ebp]
	add	edx, 272				; 00000110H
	push	edx
	push	6
	mov	ecx, DWORD PTR _ptr$[ebp]
	call	??$MakeToken@M@Scanner@@QAEXW4TokenType@@ABV?$basic_string@DU?$char_traits@D@std@@V?$allocator@D@2@@std@@ABM@Z ; Scanner::MakeToken<float>
; Line 189
	mov	eax, 1
	jmp	SHORT $LN4@CASE_EXPON@3
$LN3@CASE_EXPON@3:
; Line 192
	xor	eax, eax
$LN4@CASE_EXPON@3:
; Line 193
	pop	edi
	pop	esi
	pop	ebx
	add	esp, 204				; 000000ccH
	cmp	ebp, esp
	call	__RTC_CheckEsp
	mov	esp, ebp
	pop	ebp
	ret	0
?CASE_EXPONENT_STEP_3_FUNC@@YAHQAVScanner@@@Z ENDP	; CASE_EXPONENT_STEP_3_FUNC
_TEXT	ENDS
PUBLIC	?CASE_SYM_DOT_FUNC@@YAHQAVScanner@@@Z		; CASE_SYM_DOT_FUNC
; Function compile flags: /Odtp /RTCsu /ZI
;	COMDAT ?CASE_SYM_DOT_FUNC@@YAHQAVScanner@@@Z
_TEXT	SEGMENT
_ptr$ = 8						; size = 4
?CASE_SYM_DOT_FUNC@@YAHQAVScanner@@@Z PROC		; CASE_SYM_DOT_FUNC, COMDAT
; Line 196
	push	ebp
	mov	ebp, esp
	sub	esp, 192				; 000000c0H
	push	ebx
	push	esi
	push	edi
	lea	edi, DWORD PTR [ebp-192]
	mov	ecx, 48					; 00000030H
	mov	eax, -858993460				; ccccccccH
	rep stosd
; Line 197
	mov	eax, DWORD PTR _ptr$[ebp]
	movzx	ecx, BYTE PTR [eax+216]
	push	ecx
	call	?isDigit@@YA_ND@Z			; isDigit
	add	esp, 4
	movzx	edx, al
	test	edx, edx
	je	SHORT $LN3@CASE_SYM_D
	mov	eax, DWORD PTR _ptr$[ebp]
	cmp	DWORD PTR [eax+228], 0
	je	SHORT $LN3@CASE_SYM_D
	mov	eax, DWORD PTR _ptr$[ebp]
	mov	DWORD PTR [eax+224], 11			; 0000000bH
; Line 198
	jmp	SHORT $LN2@CASE_SYM_D
$LN3@CASE_SYM_D:
; Line 200
	mov	ecx, DWORD PTR _ptr$[ebp]
	call	?isEof@Scanner@@QAE_NXZ			; Scanner::isEof
	movzx	eax, al
	test	eax, eax
	jne	SHORT $LN1@CASE_SYM_D
	mov	eax, DWORD PTR _ptr$[ebp]
	movsx	ecx, BYTE PTR [eax+216]
	cmp	ecx, 10					; 0000000aH
	je	SHORT $LN1@CASE_SYM_D
	mov	eax, DWORD PTR _ptr$[ebp]
	movzx	ecx, BYTE PTR [eax+216]
	push	ecx
	mov	ecx, DWORD PTR _ptr$[ebp]
	call	?PutChar@Scanner@@QAEXD@Z		; Scanner::PutChar
$LN1@CASE_SYM_D:
; Line 201
	mov	eax, DWORD PTR _ptr$[ebp]
	add	eax, 272				; 00000110H
	push	eax
	push	30					; 0000001eH
	mov	ecx, DWORD PTR _ptr$[ebp]
	call	?MakeToken@Scanner@@QAEXW4TokenType@@ABV?$basic_string@DU?$char_traits@D@std@@V?$allocator@D@2@@std@@@Z ; Scanner::MakeToken
; Line 202
	mov	eax, 1
	jmp	SHORT $LN4@CASE_SYM_D
$LN2@CASE_SYM_D:
; Line 205
	xor	eax, eax
$LN4@CASE_SYM_D:
; Line 206
	pop	edi
	pop	esi
	pop	ebx
	add	esp, 192				; 000000c0H
	cmp	ebp, esp
	call	__RTC_CheckEsp
	mov	esp, ebp
	pop	ebp
	ret	0
?CASE_SYM_DOT_FUNC@@YAHQAVScanner@@@Z ENDP		; CASE_SYM_DOT_FUNC
_TEXT	ENDS
PUBLIC	??$?8DU?$char_traits@D@std@@V?$allocator@D@1@@std@@YA_NABV?$basic_string@DU?$char_traits@D@std@@V?$allocator@D@2@@0@PBD@Z ; std::operator==<char,std::char_traits<char>,std::allocator<char> >
PUBLIC	??_C@_05BNCCCJPP@const?$AA@			; `string'
PUBLIC	?CASE_LETTER_FUNC@@YAHQAVScanner@@@Z		; CASE_LETTER_FUNC
;	COMDAT ??_C@_05BNCCCJPP@const?$AA@
CONST	SEGMENT
??_C@_05BNCCCJPP@const?$AA@ DB 'const', 00H		; `string'
; Function compile flags: /Odtp /RTCsu /ZI
CONST	ENDS
;	COMDAT ?CASE_LETTER_FUNC@@YAHQAVScanner@@@Z
_TEXT	SEGMENT
_ptr$ = 8						; size = 4
?CASE_LETTER_FUNC@@YAHQAVScanner@@@Z PROC		; CASE_LETTER_FUNC, COMDAT
; Line 209
	push	ebp
	mov	ebp, esp
	sub	esp, 192				; 000000c0H
	push	ebx
	push	esi
	push	edi
	lea	edi, DWORD PTR [ebp-192]
	mov	ecx, 48					; 00000030H
	mov	eax, -858993460				; ccccccccH
	rep stosd
; Line 210
	mov	ecx, DWORD PTR _ptr$[ebp]
	call	?isEof@Scanner@@QAE_NXZ			; Scanner::isEof
	movzx	eax, al
	test	eax, eax
	jne	SHORT $LN8@CASE_LETTE
	mov	eax, DWORD PTR _ptr$[ebp]
	movzx	ecx, BYTE PTR [eax+216]
	push	ecx
	call	?isDigit@@YA_ND@Z			; isDigit
	add	esp, 4
	movzx	edx, al
	test	edx, edx
	jne	$LN9@CASE_LETTE
	mov	eax, DWORD PTR _ptr$[ebp]
	movzx	ecx, BYTE PTR [eax+216]
	push	ecx
	call	?isLetter@@YA_ND@Z			; isLetter
	add	esp, 4
	movzx	edx, al
	test	edx, edx
	jne	$LN9@CASE_LETTE
	mov	eax, DWORD PTR _ptr$[ebp]
	movsx	ecx, BYTE PTR [eax+216]
	cmp	ecx, 95					; 0000005fH
	je	$LN9@CASE_LETTE
$LN8@CASE_LETTE:
; Line 212
	mov	ecx, DWORD PTR _ptr$[ebp]
	call	?isEof@Scanner@@QAE_NXZ			; Scanner::isEof
	movzx	eax, al
	test	eax, eax
	jne	SHORT $LN7@CASE_LETTE
	mov	eax, DWORD PTR _ptr$[ebp]
	movsx	ecx, BYTE PTR [eax+216]
	cmp	ecx, 10					; 0000000aH
	je	SHORT $LN7@CASE_LETTE
	mov	eax, DWORD PTR _ptr$[ebp]
	movzx	ecx, BYTE PTR [eax+216]
	push	ecx
	mov	ecx, DWORD PTR _ptr$[ebp]
	call	?PutChar@Scanner@@QAEXD@Z		; Scanner::PutChar
$LN7@CASE_LETTE:
; Line 214
	push	OFFSET ??_C@_05BNCCCJPP@const?$AA@
	mov	eax, DWORD PTR _ptr$[ebp]
	add	eax, 272				; 00000110H
	push	eax
	call	??$?8DU?$char_traits@D@std@@V?$allocator@D@1@@std@@YA_NABV?$basic_string@DU?$char_traits@D@std@@V?$allocator@D@2@@0@PBD@Z ; std::operator==<char,std::char_traits<char>,std::allocator<char> >
	add	esp, 8
	movzx	ecx, al
	test	ecx, ecx
	je	SHORT $LN6@CASE_LETTE
; Line 215
	mov	eax, DWORD PTR _ptr$[ebp]
	add	eax, 272				; 00000110H
	push	eax
	push	35					; 00000023H
	mov	ecx, DWORD PTR _ptr$[ebp]
	call	?MakeToken@Scanner@@QAEXW4TokenType@@ABV?$basic_string@DU?$char_traits@D@std@@V?$allocator@D@2@@std@@@Z ; Scanner::MakeToken
	jmp	SHORT $LN5@CASE_LETTE
$LN6@CASE_LETTE:
; Line 216
	mov	eax, DWORD PTR _ptr$[ebp]
	add	eax, 272				; 00000110H
	push	eax
	call	?str_reserved@@YA_NABV?$basic_string@DU?$char_traits@D@std@@V?$allocator@D@2@@std@@@Z ; str_reserved
	add	esp, 4
	movzx	ecx, al
	test	ecx, ecx
	je	SHORT $LN4@CASE_LETTE
; Line 217
	mov	eax, DWORD PTR _ptr$[ebp]
	add	eax, 272				; 00000110H
	push	eax
	push	7
	mov	ecx, DWORD PTR _ptr$[ebp]
	call	?MakeToken@Scanner@@QAEXW4TokenType@@ABV?$basic_string@DU?$char_traits@D@std@@V?$allocator@D@2@@std@@@Z ; Scanner::MakeToken
	jmp	SHORT $LN5@CASE_LETTE
$LN4@CASE_LETTE:
; Line 218
	mov	eax, DWORD PTR _ptr$[ebp]
	add	eax, 272				; 00000110H
	push	eax
	call	?str_TypeTest@@YA_NABV?$basic_string@DU?$char_traits@D@std@@V?$allocator@D@2@@std@@@Z ; str_TypeTest
	add	esp, 4
	movzx	ecx, al
	test	ecx, ecx
	je	SHORT $LN2@CASE_LETTE
; Line 219
	mov	eax, DWORD PTR _ptr$[ebp]
	add	eax, 272				; 00000110H
	push	eax
	push	33					; 00000021H
	mov	ecx, DWORD PTR _ptr$[ebp]
	call	?MakeToken@Scanner@@QAEXW4TokenType@@ABV?$basic_string@DU?$char_traits@D@std@@V?$allocator@D@2@@std@@@Z ; Scanner::MakeToken
	jmp	SHORT $LN5@CASE_LETTE
$LN2@CASE_LETTE:
; Line 220
	mov	eax, DWORD PTR _ptr$[ebp]
	add	eax, 272				; 00000110H
	push	eax
	push	3
	mov	ecx, DWORD PTR _ptr$[ebp]
	call	?MakeToken@Scanner@@QAEXW4TokenType@@ABV?$basic_string@DU?$char_traits@D@std@@V?$allocator@D@2@@std@@@Z ; Scanner::MakeToken
$LN5@CASE_LETTE:
; Line 221
	mov	eax, 1
	jmp	SHORT $LN10@CASE_LETTE
$LN9@CASE_LETTE:
; Line 224
	xor	eax, eax
$LN10@CASE_LETTE:
; Line 225
	pop	edi
	pop	esi
	pop	ebx
	add	esp, 192				; 000000c0H
	cmp	ebp, esp
	call	__RTC_CheckEsp
	mov	esp, ebp
	pop	ebp
	ret	0
?CASE_LETTER_FUNC@@YAHQAVScanner@@@Z ENDP		; CASE_LETTER_FUNC
_TEXT	ENDS
PUBLIC	?CASE_SYM_DIV_FUNC@@YAHQAVScanner@@@Z		; CASE_SYM_DIV_FUNC
; Function compile flags: /Odtp /RTCsu /ZI
;	COMDAT ?CASE_SYM_DIV_FUNC@@YAHQAVScanner@@@Z
_TEXT	SEGMENT
_ptr$ = 8						; size = 4
?CASE_SYM_DIV_FUNC@@YAHQAVScanner@@@Z PROC		; CASE_SYM_DIV_FUNC, COMDAT
; Line 228
	push	ebp
	mov	ebp, esp
	sub	esp, 192				; 000000c0H
	push	ebx
	push	esi
	push	edi
	lea	edi, DWORD PTR [ebp-192]
	mov	ecx, 48					; 00000030H
	mov	eax, -858993460				; ccccccccH
	rep stosd
; Line 229
	mov	eax, DWORD PTR _ptr$[ebp]
	movsx	ecx, BYTE PTR [eax+216]
	cmp	ecx, 47					; 0000002fH
	jne	SHORT $LN7@CASE_SYM_D@2
	mov	eax, DWORD PTR _ptr$[ebp]
	mov	DWORD PTR [eax+224], 16			; 00000010H
	jmp	$LN6@CASE_SYM_D@2
$LN7@CASE_SYM_D@2:
; Line 230
	mov	eax, DWORD PTR _ptr$[ebp]
	movsx	ecx, BYTE PTR [eax+216]
	cmp	ecx, 42					; 0000002aH
	jne	SHORT $LN5@CASE_SYM_D@2
	mov	eax, DWORD PTR _ptr$[ebp]
	mov	DWORD PTR [eax+224], 17			; 00000011H
; Line 231
	jmp	$LN6@CASE_SYM_D@2
$LN5@CASE_SYM_D@2:
; Line 233
	mov	ecx, DWORD PTR _ptr$[ebp]
	call	?isEof@Scanner@@QAE_NXZ			; Scanner::isEof
	movzx	eax, al
	test	eax, eax
	jne	SHORT $LN2@CASE_SYM_D@2
	mov	eax, DWORD PTR _ptr$[ebp]
	movsx	ecx, BYTE PTR [eax+216]
	cmp	ecx, 61					; 0000003dH
	je	SHORT $LN3@CASE_SYM_D@2
$LN2@CASE_SYM_D@2:
; Line 235
	mov	ecx, DWORD PTR _ptr$[ebp]
	call	?isEof@Scanner@@QAE_NXZ			; Scanner::isEof
	movzx	eax, al
	test	eax, eax
	jne	SHORT $LN1@CASE_SYM_D@2
	mov	eax, DWORD PTR _ptr$[ebp]
	movsx	ecx, BYTE PTR [eax+216]
	cmp	ecx, 10					; 0000000aH
	je	SHORT $LN1@CASE_SYM_D@2
	mov	eax, DWORD PTR _ptr$[ebp]
	movzx	ecx, BYTE PTR [eax+216]
	push	ecx
	mov	ecx, DWORD PTR _ptr$[ebp]
	call	?PutChar@Scanner@@QAEXD@Z		; Scanner::PutChar
$LN1@CASE_SYM_D@2:
; Line 236
	mov	eax, DWORD PTR _ptr$[ebp]
	add	eax, 272				; 00000110H
	push	eax
	push	12					; 0000000cH
	mov	ecx, DWORD PTR _ptr$[ebp]
	call	?MakeToken@Scanner@@QAEXW4TokenType@@ABV?$basic_string@DU?$char_traits@D@std@@V?$allocator@D@2@@std@@@Z ; Scanner::MakeToken
; Line 237
	mov	eax, 1
	jmp	SHORT $LN8@CASE_SYM_D@2
$LN3@CASE_SYM_D@2:
; Line 239
	mov	eax, DWORD PTR _ptr$[ebp]
	add	eax, 272				; 00000110H
	push	eax
	push	5
	mov	ecx, DWORD PTR _ptr$[ebp]
	call	?MakeToken@Scanner@@QAEXW4TokenType@@ABV?$basic_string@DU?$char_traits@D@std@@V?$allocator@D@2@@std@@@Z ; Scanner::MakeToken
; Line 240
	mov	eax, 1
	jmp	SHORT $LN8@CASE_SYM_D@2
$LN6@CASE_SYM_D@2:
; Line 243
	xor	eax, eax
$LN8@CASE_SYM_D@2:
; Line 244
	pop	edi
	pop	esi
	pop	ebx
	add	esp, 192				; 000000c0H
	cmp	ebp, esp
	call	__RTC_CheckEsp
	mov	esp, ebp
	pop	ebp
	ret	0
?CASE_SYM_DIV_FUNC@@YAHQAVScanner@@@Z ENDP		; CASE_SYM_DIV_FUNC
_TEXT	ENDS
PUBLIC	?CASE_DELIM_FUNC@@YAHQAVScanner@@@Z		; CASE_DELIM_FUNC
; Function compile flags: /Odtp /RTCsu /ZI
;	COMDAT ?CASE_DELIM_FUNC@@YAHQAVScanner@@@Z
_TEXT	SEGMENT
_ptr$ = 8						; size = 4
?CASE_DELIM_FUNC@@YAHQAVScanner@@@Z PROC		; CASE_DELIM_FUNC, COMDAT
; Line 247
	push	ebp
	mov	ebp, esp
	sub	esp, 192				; 000000c0H
	push	ebx
	push	esi
	push	edi
	lea	edi, DWORD PTR [ebp-192]
	mov	ecx, 48					; 00000030H
	mov	eax, -858993460				; ccccccccH
	rep stosd
; Line 248
	mov	ecx, DWORD PTR _ptr$[ebp]
	call	?isEof@Scanner@@QAE_NXZ			; Scanner::isEof
	movzx	eax, al
	test	eax, eax
	jne	SHORT $LN1@CASE_DELIM
	mov	eax, DWORD PTR _ptr$[ebp]
	movsx	ecx, BYTE PTR [eax+216]
	cmp	ecx, 10					; 0000000aH
	je	SHORT $LN1@CASE_DELIM
	mov	eax, DWORD PTR _ptr$[ebp]
	movzx	ecx, BYTE PTR [eax+216]
	push	ecx
	mov	ecx, DWORD PTR _ptr$[ebp]
	call	?PutChar@Scanner@@QAEXD@Z		; Scanner::PutChar
$LN1@CASE_DELIM:
; Line 249
	mov	eax, DWORD PTR _ptr$[ebp]
	add	eax, 272				; 00000110H
	push	eax
	push	1
	mov	ecx, DWORD PTR _ptr$[ebp]
	call	?MakeToken@Scanner@@QAEXW4TokenType@@ABV?$basic_string@DU?$char_traits@D@std@@V?$allocator@D@2@@std@@@Z ; Scanner::MakeToken
; Line 251
	mov	eax, 1
; Line 252
	pop	edi
	pop	esi
	pop	ebx
	add	esp, 192				; 000000c0H
	cmp	ebp, esp
	call	__RTC_CheckEsp
	mov	esp, ebp
	pop	ebp
	ret	0
?CASE_DELIM_FUNC@@YAHQAVScanner@@@Z ENDP		; CASE_DELIM_FUNC
_TEXT	ENDS
PUBLIC	?CASE_COMMA_FUNC@@YAHQAVScanner@@@Z		; CASE_COMMA_FUNC
; Function compile flags: /Odtp /RTCsu /ZI
;	COMDAT ?CASE_COMMA_FUNC@@YAHQAVScanner@@@Z
_TEXT	SEGMENT
_ptr$ = 8						; size = 4
?CASE_COMMA_FUNC@@YAHQAVScanner@@@Z PROC		; CASE_COMMA_FUNC, COMDAT
; Line 255
	push	ebp
	mov	ebp, esp
	sub	esp, 192				; 000000c0H
	push	ebx
	push	esi
	push	edi
	lea	edi, DWORD PTR [ebp-192]
	mov	ecx, 48					; 00000030H
	mov	eax, -858993460				; ccccccccH
	rep stosd
; Line 256
	mov	ecx, DWORD PTR _ptr$[ebp]
	call	?isEof@Scanner@@QAE_NXZ			; Scanner::isEof
	movzx	eax, al
	test	eax, eax
	jne	SHORT $LN1@CASE_COMMA
	mov	eax, DWORD PTR _ptr$[ebp]
	movsx	ecx, BYTE PTR [eax+216]
	cmp	ecx, 10					; 0000000aH
	je	SHORT $LN1@CASE_COMMA
	mov	eax, DWORD PTR _ptr$[ebp]
	movzx	ecx, BYTE PTR [eax+216]
	push	ecx
	mov	ecx, DWORD PTR _ptr$[ebp]
	call	?PutChar@Scanner@@QAEXD@Z		; Scanner::PutChar
$LN1@CASE_COMMA:
; Line 257
	mov	eax, DWORD PTR _ptr$[ebp]
	add	eax, 272				; 00000110H
	push	eax
	push	31					; 0000001fH
	mov	ecx, DWORD PTR _ptr$[ebp]
	call	?MakeToken@Scanner@@QAEXW4TokenType@@ABV?$basic_string@DU?$char_traits@D@std@@V?$allocator@D@2@@std@@@Z ; Scanner::MakeToken
; Line 259
	mov	eax, 1
; Line 260
	pop	edi
	pop	esi
	pop	ebx
	add	esp, 192				; 000000c0H
	cmp	ebp, esp
	call	__RTC_CheckEsp
	mov	esp, ebp
	pop	ebp
	ret	0
?CASE_COMMA_FUNC@@YAHQAVScanner@@@Z ENDP		; CASE_COMMA_FUNC
_TEXT	ENDS
PUBLIC	?CASE_SEMICOLON_FUNC@@YAHQAVScanner@@@Z		; CASE_SEMICOLON_FUNC
; Function compile flags: /Odtp /RTCsu /ZI
;	COMDAT ?CASE_SEMICOLON_FUNC@@YAHQAVScanner@@@Z
_TEXT	SEGMENT
_ptr$ = 8						; size = 4
?CASE_SEMICOLON_FUNC@@YAHQAVScanner@@@Z PROC		; CASE_SEMICOLON_FUNC, COMDAT
; Line 263
	push	ebp
	mov	ebp, esp
	sub	esp, 192				; 000000c0H
	push	ebx
	push	esi
	push	edi
	lea	edi, DWORD PTR [ebp-192]
	mov	ecx, 48					; 00000030H
	mov	eax, -858993460				; ccccccccH
	rep stosd
; Line 264
	mov	ecx, DWORD PTR _ptr$[ebp]
	call	?isEof@Scanner@@QAE_NXZ			; Scanner::isEof
	movzx	eax, al
	test	eax, eax
	jne	SHORT $LN1@CASE_SEMIC
	mov	eax, DWORD PTR _ptr$[ebp]
	movsx	ecx, BYTE PTR [eax+216]
	cmp	ecx, 10					; 0000000aH
	je	SHORT $LN1@CASE_SEMIC
	mov	eax, DWORD PTR _ptr$[ebp]
	movzx	ecx, BYTE PTR [eax+216]
	push	ecx
	mov	ecx, DWORD PTR _ptr$[ebp]
	call	?PutChar@Scanner@@QAEXD@Z		; Scanner::PutChar
$LN1@CASE_SEMIC:
; Line 265
	mov	eax, DWORD PTR _ptr$[ebp]
	add	eax, 272				; 00000110H
	push	eax
	push	34					; 00000022H
	mov	ecx, DWORD PTR _ptr$[ebp]
	call	?MakeToken@Scanner@@QAEXW4TokenType@@ABV?$basic_string@DU?$char_traits@D@std@@V?$allocator@D@2@@std@@@Z ; Scanner::MakeToken
; Line 267
	mov	eax, 1
; Line 268
	pop	edi
	pop	esi
	pop	ebx
	add	esp, 192				; 000000c0H
	cmp	ebp, esp
	call	__RTC_CheckEsp
	mov	esp, ebp
	pop	ebp
	ret	0
?CASE_SEMICOLON_FUNC@@YAHQAVScanner@@@Z ENDP		; CASE_SEMICOLON_FUNC
_TEXT	ENDS
PUBLIC	?CASE_COMMENT_LINE_FUNC@@YAHQAVScanner@@@Z	; CASE_COMMENT_LINE_FUNC
; Function compile flags: /Odtp /RTCsu /ZI
;	COMDAT ?CASE_COMMENT_LINE_FUNC@@YAHQAVScanner@@@Z
_TEXT	SEGMENT
_ptr$ = 8						; size = 4
?CASE_COMMENT_LINE_FUNC@@YAHQAVScanner@@@Z PROC		; CASE_COMMENT_LINE_FUNC, COMDAT
; Line 271
	push	ebp
	mov	ebp, esp
	sub	esp, 192				; 000000c0H
	push	ebx
	push	esi
	push	edi
	lea	edi, DWORD PTR [ebp-192]
	mov	ecx, 48					; 00000030H
	mov	eax, -858993460				; ccccccccH
	rep stosd
; Line 272
	mov	eax, DWORD PTR _ptr$[ebp]
	movsx	ecx, BYTE PTR [eax+216]
	cmp	ecx, 10					; 0000000aH
	je	SHORT $LN1@CASE_COMME
	mov	ecx, DWORD PTR _ptr$[ebp]
	call	?isEof@Scanner@@QAE_NXZ			; Scanner::isEof
	movzx	eax, al
	test	eax, eax
	je	SHORT $LN2@CASE_COMME
$LN1@CASE_COMME:
	mov	eax, DWORD PTR _ptr$[ebp]
	mov	ecx, DWORD PTR _ptr$[ebp]
	mov	edx, DWORD PTR [ecx+228]
	mov	DWORD PTR [eax+224], edx
$LN2@CASE_COMME:
; Line 273
	xor	eax, eax
; Line 274
	pop	edi
	pop	esi
	pop	ebx
	add	esp, 192				; 000000c0H
	cmp	ebp, esp
	call	__RTC_CheckEsp
	mov	esp, ebp
	pop	ebp
	ret	0
?CASE_COMMENT_LINE_FUNC@@YAHQAVScanner@@@Z ENDP		; CASE_COMMENT_LINE_FUNC
_TEXT	ENDS
PUBLIC	??_C@_0BJ@LJNGLABM@Comment?5must?5be?5finished?$AA@ ; `string'
PUBLIC	__$ArrayPad$
PUBLIC	?CASE_COMMENT_BRACE_FUNC@@YAHQAVScanner@@@Z	; CASE_COMMENT_BRACE_FUNC
;	COMDAT ??_C@_0BJ@LJNGLABM@Comment?5must?5be?5finished?$AA@
CONST	SEGMENT
??_C@_0BJ@LJNGLABM@Comment?5must?5be?5finished?$AA@ DB 'Comment must be f'
	DB	'inished', 00H				; `string'
CONST	ENDS
;	COMDAT xdata$x
xdata$x	SEGMENT
__unwindtable$?CASE_COMMENT_BRACE_FUNC@@YAHQAVScanner@@@Z DD 0ffffffffH
	DD	FLAT:__unwindfunclet$?CASE_COMMENT_BRACE_FUNC@@YAHQAVScanner@@@Z$0
__ehfuncinfo$?CASE_COMMENT_BRACE_FUNC@@YAHQAVScanner@@@Z DD 019930522H
	DD	01H
	DD	FLAT:__unwindtable$?CASE_COMMENT_BRACE_FUNC@@YAHQAVScanner@@@Z
	DD	2 DUP(00H)
	DD	2 DUP(00H)
	DD	00H
	DD	01H
; Function compile flags: /Odtp /RTCsu /ZI
xdata$x	ENDS
;	COMDAT ?CASE_COMMENT_BRACE_FUNC@@YAHQAVScanner@@@Z
_TEXT	SEGMENT
$T34853 = -288						; size = 32
$T34854 = -248						; size = 36
__$ArrayPad$ = -16					; size = 4
__$EHRec$ = -12						; size = 12
_ptr$ = 8						; size = 4
?CASE_COMMENT_BRACE_FUNC@@YAHQAVScanner@@@Z PROC	; CASE_COMMENT_BRACE_FUNC, COMDAT
; Line 277
	push	ebp
	mov	ebp, esp
	push	-1
	push	__ehhandler$?CASE_COMMENT_BRACE_FUNC@@YAHQAVScanner@@@Z
	mov	eax, DWORD PTR fs:0
	push	eax
	sub	esp, 280				; 00000118H
	push	ebx
	push	esi
	push	edi
	lea	edi, DWORD PTR [ebp-292]
	mov	ecx, 70					; 00000046H
	mov	eax, -858993460				; ccccccccH
	rep stosd
	mov	eax, DWORD PTR ___security_cookie
	xor	eax, ebp
	mov	DWORD PTR __$ArrayPad$[ebp], eax
	push	eax
	lea	eax, DWORD PTR __$EHRec$[ebp]
	mov	DWORD PTR fs:0, eax
; Line 278
	mov	ecx, DWORD PTR _ptr$[ebp]
	call	?isEof@Scanner@@QAE_NXZ			; Scanner::isEof
	movzx	eax, al
	test	eax, eax
	je	SHORT $LN2@CASE_COMME@2
	push	OFFSET ??_C@_0BJ@LJNGLABM@Comment?5must?5be?5finished?$AA@
	lea	ecx, DWORD PTR $T34853[ebp]
	call	??0?$basic_string@DU?$char_traits@D@std@@V?$allocator@D@2@@std@@QAE@PBD@Z ; std::basic_string<char,std::char_traits<char>,std::allocator<char> >::basic_string<char,std::char_traits<char>,std::allocator<char> >
	mov	DWORD PTR __$EHRec$[ebp+8], 0
	mov	eax, DWORD PTR _ptr$[ebp]
	mov	ecx, DWORD PTR [eax+204]
	sub	ecx, 1
	push	ecx
	mov	edx, DWORD PTR _ptr$[ebp]
	mov	eax, DWORD PTR [edx+200]
	push	eax
	lea	ecx, DWORD PTR $T34853[ebp]
	push	ecx
	lea	edx, DWORD PTR $T34854[ebp]
	push	edx
	call	?GenScannError@Error@@SA?AUSimpleError@@ABV?$basic_string@DU?$char_traits@D@std@@V?$allocator@D@2@@std@@HH@Z ; Error::GenScannError
	add	esp, 16					; 00000010H
	lea	ecx, DWORD PTR $T34854[ebp]
	call	??1SimpleError@@QAE@XZ
	mov	DWORD PTR __$EHRec$[ebp+8], -1
	lea	ecx, DWORD PTR $T34853[ebp]
	call	??1?$basic_string@DU?$char_traits@D@std@@V?$allocator@D@2@@std@@QAE@XZ ; std::basic_string<char,std::char_traits<char>,std::allocator<char> >::~basic_string<char,std::char_traits<char>,std::allocator<char> >
$LN2@CASE_COMME@2:
; Line 279
	mov	eax, DWORD PTR _ptr$[ebp]
	movsx	ecx, BYTE PTR [eax+216]
	cmp	ecx, 47					; 0000002fH
	jne	SHORT $LN1@CASE_COMME@2
	mov	ecx, DWORD PTR _ptr$[ebp]
	add	ecx, 272				; 00000110H
	call	?length@?$basic_string@DU?$char_traits@D@std@@V?$allocator@D@2@@std@@QBEIXZ ; std::basic_string<char,std::char_traits<char>,std::allocator<char> >::length
	sub	eax, 2
	push	eax
	mov	ecx, DWORD PTR _ptr$[ebp]
	add	ecx, 272				; 00000110H
	call	??A?$basic_string@DU?$char_traits@D@std@@V?$allocator@D@2@@std@@QAEAADI@Z ; std::basic_string<char,std::char_traits<char>,std::allocator<char> >::operator[]
	movsx	eax, BYTE PTR [eax]
	cmp	eax, 42					; 0000002aH
	jne	SHORT $LN1@CASE_COMME@2
	mov	eax, DWORD PTR _ptr$[ebp]
	mov	ecx, DWORD PTR _ptr$[ebp]
	mov	edx, DWORD PTR [ecx+228]
	mov	DWORD PTR [eax+224], edx
$LN1@CASE_COMME@2:
; Line 281
	xor	eax, eax
; Line 282
	mov	ecx, DWORD PTR __$EHRec$[ebp]
	mov	DWORD PTR fs:0, ecx
	pop	ecx
	pop	edi
	pop	esi
	pop	ebx
	mov	ecx, DWORD PTR __$ArrayPad$[ebp]
	xor	ecx, ebp
	call	@__security_check_cookie@4
	add	esp, 292				; 00000124H
	cmp	ebp, esp
	call	__RTC_CheckEsp
	mov	esp, ebp
	pop	ebp
	ret	0
_TEXT	ENDS
;	COMDAT text$x
text$x	SEGMENT
__unwindfunclet$?CASE_COMMENT_BRACE_FUNC@@YAHQAVScanner@@@Z$0:
	lea	ecx, DWORD PTR $T34853[ebp]
	jmp	??1?$basic_string@DU?$char_traits@D@std@@V?$allocator@D@2@@std@@QAE@XZ ; std::basic_string<char,std::char_traits<char>,std::allocator<char> >::~basic_string<char,std::char_traits<char>,std::allocator<char> >
__ehhandler$?CASE_COMMENT_BRACE_FUNC@@YAHQAVScanner@@@Z:
	mov	edx, DWORD PTR [esp+8]
	lea	eax, DWORD PTR [edx+12]
	mov	ecx, DWORD PTR [edx-296]
	xor	ecx, eax
	call	@__security_check_cookie@4
	mov	ecx, DWORD PTR [edx-4]
	xor	ecx, eax
	call	@__security_check_cookie@4
	mov	eax, OFFSET __ehfuncinfo$?CASE_COMMENT_BRACE_FUNC@@YAHQAVScanner@@@Z
	jmp	___CxxFrameHandler3
text$x	ENDS
?CASE_COMMENT_BRACE_FUNC@@YAHQAVScanner@@@Z ENDP	; CASE_COMMENT_BRACE_FUNC
PUBLIC	??Y?$basic_string@DU?$char_traits@D@std@@V?$allocator@D@2@@std@@QAEAAV01@ABV01@@Z ; std::basic_string<char,std::char_traits<char>,std::allocator<char> >::operator+=
PUBLIC	?ReadString@Scanner@@QAE?AV?$basic_string@DU?$char_traits@D@std@@V?$allocator@D@2@@std@@IABV23@@Z ; Scanner::ReadString
PUBLIC	??_C@_0CB@IGBECIFK@String?5constant?5must?5be?5finished@ ; `string'
PUBLIC	__$ArrayPad$
PUBLIC	?CASE_STRING_FUNC@@YAHQAVScanner@@@Z		; CASE_STRING_FUNC
;	COMDAT ??_C@_0CB@IGBECIFK@String?5constant?5must?5be?5finished@
CONST	SEGMENT
??_C@_0CB@IGBECIFK@String?5constant?5must?5be?5finished@ DB 'String const'
	DB	'ant must be finished', 00H			; `string'
CONST	ENDS
;	COMDAT xdata$x
xdata$x	SEGMENT
__unwindtable$?CASE_STRING_FUNC@@YAHQAVScanner@@@Z DD 0ffffffffH
	DD	FLAT:__unwindfunclet$?CASE_STRING_FUNC@@YAHQAVScanner@@@Z$0
	DD	0ffffffffH
	DD	FLAT:__unwindfunclet$?CASE_STRING_FUNC@@YAHQAVScanner@@@Z$2
__ehfuncinfo$?CASE_STRING_FUNC@@YAHQAVScanner@@@Z DD 019930522H
	DD	02H
	DD	FLAT:__unwindtable$?CASE_STRING_FUNC@@YAHQAVScanner@@@Z
	DD	2 DUP(00H)
	DD	2 DUP(00H)
	DD	00H
	DD	01H
; Function compile flags: /Odtp /RTCsu /ZI
xdata$x	ENDS
;	COMDAT ?CASE_STRING_FUNC@@YAHQAVScanner@@@Z
_TEXT	SEGMENT
tv149 = -352						; size = 4
tv75 = -348						; size = 4
$T34861 = -340						; size = 32
$T34862 = -300						; size = 36
$T34867 = -256						; size = 32
_size$ = -24						; size = 4
__$ArrayPad$ = -16					; size = 4
__$EHRec$ = -12						; size = 12
_ptr$ = 8						; size = 4
?CASE_STRING_FUNC@@YAHQAVScanner@@@Z PROC		; CASE_STRING_FUNC, COMDAT
; Line 285
	push	ebp
	mov	ebp, esp
	push	-1
	push	__ehhandler$?CASE_STRING_FUNC@@YAHQAVScanner@@@Z
	mov	eax, DWORD PTR fs:0
	push	eax
	sub	esp, 340				; 00000154H
	push	ebx
	push	esi
	push	edi
	lea	edi, DWORD PTR [ebp-352]
	mov	ecx, 85					; 00000055H
	mov	eax, -858993460				; ccccccccH
	rep stosd
	mov	eax, DWORD PTR ___security_cookie
	xor	eax, ebp
	mov	DWORD PTR __$ArrayPad$[ebp], eax
	push	eax
	lea	eax, DWORD PTR __$EHRec$[ebp]
	mov	DWORD PTR fs:0, eax
; Line 286
	mov	ecx, DWORD PTR _ptr$[ebp]
	call	?isEof@Scanner@@QAE_NXZ			; Scanner::isEof
	movzx	eax, al
	test	eax, eax
	je	SHORT $LN3@CASE_STRIN
	push	OFFSET ??_C@_0CB@IGBECIFK@String?5constant?5must?5be?5finished@
	lea	ecx, DWORD PTR $T34861[ebp]
	call	??0?$basic_string@DU?$char_traits@D@std@@V?$allocator@D@2@@std@@QAE@PBD@Z ; std::basic_string<char,std::char_traits<char>,std::allocator<char> >::basic_string<char,std::char_traits<char>,std::allocator<char> >
	mov	DWORD PTR __$EHRec$[ebp+8], 0
	mov	eax, DWORD PTR _ptr$[ebp]
	mov	ecx, DWORD PTR [eax+204]
	sub	ecx, 1
	push	ecx
	mov	edx, DWORD PTR _ptr$[ebp]
	mov	eax, DWORD PTR [edx+200]
	push	eax
	lea	ecx, DWORD PTR $T34861[ebp]
	push	ecx
	lea	edx, DWORD PTR $T34862[ebp]
	push	edx
	call	?GenScannError@Error@@SA?AUSimpleError@@ABV?$basic_string@DU?$char_traits@D@std@@V?$allocator@D@2@@std@@HH@Z ; Error::GenScannError
	add	esp, 16					; 00000010H
	lea	ecx, DWORD PTR $T34862[ebp]
	call	??1SimpleError@@QAE@XZ
	mov	DWORD PTR __$EHRec$[ebp+8], -1
	lea	ecx, DWORD PTR $T34861[ebp]
	call	??1?$basic_string@DU?$char_traits@D@std@@V?$allocator@D@2@@std@@QAE@XZ ; std::basic_string<char,std::char_traits<char>,std::allocator<char> >::~basic_string<char,std::char_traits<char>,std::allocator<char> >
$LN3@CASE_STRIN:
; Line 287
	mov	ecx, DWORD PTR _ptr$[ebp]
	add	ecx, 272				; 00000110H
	call	?length@?$basic_string@DU?$char_traits@D@std@@V?$allocator@D@2@@std@@QBEIXZ ; std::basic_string<char,std::char_traits<char>,std::allocator<char> >::length
	mov	DWORD PTR _size$[ebp], eax
; Line 289
	mov	eax, DWORD PTR _ptr$[ebp]
	movsx	ecx, BYTE PTR [eax+216]
	cmp	ecx, 34					; 00000022H
	jne	$LN2@CASE_STRIN
	mov	eax, DWORD PTR _size$[ebp]
	sub	eax, 2
	push	eax
	mov	ecx, DWORD PTR _ptr$[ebp]
	add	ecx, 272				; 00000110H
	call	??A?$basic_string@DU?$char_traits@D@std@@V?$allocator@D@2@@std@@QAEAADI@Z ; std::basic_string<char,std::char_traits<char>,std::allocator<char> >::operator[]
	movsx	ecx, BYTE PTR [eax]
	cmp	ecx, 92					; 0000005cH
	jne	SHORT $LN1@CASE_STRIN
	mov	eax, DWORD PTR _size$[ebp]
	sub	eax, 3
	push	eax
	mov	ecx, DWORD PTR _ptr$[ebp]
	add	ecx, 272				; 00000110H
	call	??A?$basic_string@DU?$char_traits@D@std@@V?$allocator@D@2@@std@@QAEAADI@Z ; std::basic_string<char,std::char_traits<char>,std::allocator<char> >::operator[]
	movsx	ecx, BYTE PTR [eax]
	cmp	ecx, 92					; 0000005cH
	jne	SHORT $LN2@CASE_STRIN
$LN1@CASE_STRIN:
; Line 291
	mov	eax, DWORD PTR _ptr$[ebp]
	mov	DWORD PTR [eax+224], 6
; Line 292
	mov	eax, DWORD PTR _ptr$[ebp]
	add	eax, 272				; 00000110H
	push	eax
	mov	ecx, DWORD PTR _ptr$[ebp]
	mov	edx, DWORD PTR [ecx+232]
	push	edx
	lea	eax, DWORD PTR $T34867[ebp]
	push	eax
	mov	ecx, DWORD PTR _ptr$[ebp]
	call	?ReadString@Scanner@@QAE?AV?$basic_string@DU?$char_traits@D@std@@V?$allocator@D@2@@std@@IABV23@@Z ; Scanner::ReadString
	mov	DWORD PTR tv75[ebp], eax
	mov	ecx, DWORD PTR tv75[ebp]
	mov	DWORD PTR tv149[ebp], ecx
	mov	DWORD PTR __$EHRec$[ebp+8], 1
	mov	edx, DWORD PTR tv149[ebp]
	push	edx
	mov	ecx, DWORD PTR _ptr$[ebp]
	add	ecx, 240				; 000000f0H
	call	??Y?$basic_string@DU?$char_traits@D@std@@V?$allocator@D@2@@std@@QAEAAV01@ABV01@@Z ; std::basic_string<char,std::char_traits<char>,std::allocator<char> >::operator+=
	mov	DWORD PTR __$EHRec$[ebp+8], -1
	lea	ecx, DWORD PTR $T34867[ebp]
	call	??1?$basic_string@DU?$char_traits@D@std@@V?$allocator@D@2@@std@@QAE@XZ ; std::basic_string<char,std::char_traits<char>,std::allocator<char> >::~basic_string<char,std::char_traits<char>,std::allocator<char> >
$LN2@CASE_STRIN:
; Line 295
	xor	eax, eax
; Line 296
	mov	ecx, DWORD PTR __$EHRec$[ebp]
	mov	DWORD PTR fs:0, ecx
	pop	ecx
	pop	edi
	pop	esi
	pop	ebx
	mov	ecx, DWORD PTR __$ArrayPad$[ebp]
	xor	ecx, ebp
	call	@__security_check_cookie@4
	add	esp, 352				; 00000160H
	cmp	ebp, esp
	call	__RTC_CheckEsp
	mov	esp, ebp
	pop	ebp
	ret	0
_TEXT	ENDS
;	COMDAT text$x
text$x	SEGMENT
__unwindfunclet$?CASE_STRING_FUNC@@YAHQAVScanner@@@Z$0:
	lea	ecx, DWORD PTR $T34861[ebp]
	jmp	??1?$basic_string@DU?$char_traits@D@std@@V?$allocator@D@2@@std@@QAE@XZ ; std::basic_string<char,std::char_traits<char>,std::allocator<char> >::~basic_string<char,std::char_traits<char>,std::allocator<char> >
__unwindfunclet$?CASE_STRING_FUNC@@YAHQAVScanner@@@Z$2:
	lea	ecx, DWORD PTR $T34867[ebp]
	jmp	??1?$basic_string@DU?$char_traits@D@std@@V?$allocator@D@2@@std@@QAE@XZ ; std::basic_string<char,std::char_traits<char>,std::allocator<char> >::~basic_string<char,std::char_traits<char>,std::allocator<char> >
__ehhandler$?CASE_STRING_FUNC@@YAHQAVScanner@@@Z:
	mov	edx, DWORD PTR [esp+8]
	lea	eax, DWORD PTR [edx+12]
	mov	ecx, DWORD PTR [edx-356]
	xor	ecx, eax
	call	@__security_check_cookie@4
	mov	ecx, DWORD PTR [edx-4]
	xor	ecx, eax
	call	@__security_check_cookie@4
	mov	eax, OFFSET __ehfuncinfo$?CASE_STRING_FUNC@@YAHQAVScanner@@@Z
	jmp	___CxxFrameHandler3
text$x	ENDS
?CASE_STRING_FUNC@@YAHQAVScanner@@@Z ENDP		; CASE_STRING_FUNC
PUBLIC	??$MakeToken@V?$basic_string@DU?$char_traits@D@std@@V?$allocator@D@2@@std@@@Scanner@@QAEXW4TokenType@@ABV?$basic_string@DU?$char_traits@D@std@@V?$allocator@D@2@@std@@1@Z ; Scanner::MakeToken<std::basic_string<char,std::char_traits<char>,std::allocator<char> > >
PUBLIC	?CASE_WAIT_STRING_FUNC@@YAHQAVScanner@@@Z	; CASE_WAIT_STRING_FUNC
; Function compile flags: /Odtp /RTCsu /ZI
;	COMDAT ?CASE_WAIT_STRING_FUNC@@YAHQAVScanner@@@Z
_TEXT	SEGMENT
_ptr$ = 8						; size = 4
?CASE_WAIT_STRING_FUNC@@YAHQAVScanner@@@Z PROC		; CASE_WAIT_STRING_FUNC, COMDAT
; Line 299
	push	ebp
	mov	ebp, esp
	sub	esp, 192				; 000000c0H
	push	ebx
	push	esi
	push	edi
	lea	edi, DWORD PTR [ebp-192]
	mov	ecx, 48					; 00000030H
	mov	eax, -858993460				; ccccccccH
	rep stosd
; Line 300
	mov	ecx, DWORD PTR _ptr$[ebp]
	call	?isEof@Scanner@@QAE_NXZ			; Scanner::isEof
	movzx	eax, al
	test	eax, eax
	jne	SHORT $LN6@CASE_WAIT_
	mov	eax, DWORD PTR _ptr$[ebp]
	movsx	ecx, BYTE PTR [eax+216]
	cmp	ecx, 34					; 00000022H
	je	$LN7@CASE_WAIT_
	mov	eax, DWORD PTR _ptr$[ebp]
	movzx	ecx, BYTE PTR [eax+216]
	push	ecx
	call	?isSpace@@YA_ND@Z			; isSpace
	add	esp, 4
	movzx	edx, al
	test	edx, edx
	jne	SHORT $LN7@CASE_WAIT_
	mov	eax, DWORD PTR _ptr$[ebp]
	movsx	ecx, BYTE PTR [eax+216]
	cmp	ecx, 47					; 0000002fH
	je	SHORT $LN7@CASE_WAIT_
$LN6@CASE_WAIT_:
; Line 302
	mov	ecx, DWORD PTR _ptr$[ebp]
	call	?isEof@Scanner@@QAE_NXZ			; Scanner::isEof
	movzx	eax, al
	test	eax, eax
	jne	SHORT $LN5@CASE_WAIT_
	mov	eax, DWORD PTR _ptr$[ebp]
	movsx	ecx, BYTE PTR [eax+216]
	cmp	ecx, 10					; 0000000aH
	je	SHORT $LN5@CASE_WAIT_
	mov	eax, DWORD PTR _ptr$[ebp]
	movzx	ecx, BYTE PTR [eax+216]
	push	ecx
	mov	ecx, DWORD PTR _ptr$[ebp]
	call	?PutChar@Scanner@@QAEXD@Z		; Scanner::PutChar
$LN5@CASE_WAIT_:
; Line 303
	mov	eax, DWORD PTR _ptr$[ebp]
	add	eax, 240				; 000000f0H
	push	eax
	mov	ecx, DWORD PTR _ptr$[ebp]
	add	ecx, 272				; 00000110H
	push	ecx
	push	8
	mov	ecx, DWORD PTR _ptr$[ebp]
	call	??$MakeToken@V?$basic_string@DU?$char_traits@D@std@@V?$allocator@D@2@@std@@@Scanner@@QAEXW4TokenType@@ABV?$basic_string@DU?$char_traits@D@std@@V?$allocator@D@2@@std@@1@Z ; Scanner::MakeToken<std::basic_string<char,std::char_traits<char>,std::allocator<char> > >
; Line 304
	mov	eax, 1
	jmp	$LN8@CASE_WAIT_
	jmp	$LN4@CASE_WAIT_
$LN7@CASE_WAIT_:
; Line 307
	mov	eax, DWORD PTR _ptr$[ebp]
	movsx	ecx, BYTE PTR [eax+216]
	cmp	ecx, 34					; 00000022H
	jne	SHORT $LN3@CASE_WAIT_
; Line 309
	mov	eax, DWORD PTR _ptr$[ebp]
	mov	DWORD PTR [eax+224], 5
; Line 310
	mov	ecx, DWORD PTR _ptr$[ebp]
	add	ecx, 272				; 00000110H
	call	?length@?$basic_string@DU?$char_traits@D@std@@V?$allocator@D@2@@std@@QBEIXZ ; std::basic_string<char,std::char_traits<char>,std::allocator<char> >::length
	sub	eax, 1
	mov	ecx, DWORD PTR _ptr$[ebp]
	mov	DWORD PTR [ecx+232], eax
; Line 311
	mov	eax, DWORD PTR _ptr$[ebp]
	movzx	ecx, BYTE PTR [eax+216]
	push	ecx
	mov	ecx, DWORD PTR _ptr$[ebp]
	call	?PutChar@Scanner@@QAEXD@Z		; Scanner::PutChar
; Line 312
	mov	eax, DWORD PTR _ptr$[ebp]
	add	eax, 240				; 000000f0H
	push	eax
	mov	ecx, DWORD PTR _ptr$[ebp]
	add	ecx, 272				; 00000110H
	push	ecx
	push	8
	mov	ecx, DWORD PTR _ptr$[ebp]
	call	??$MakeToken@V?$basic_string@DU?$char_traits@D@std@@V?$allocator@D@2@@std@@@Scanner@@QAEXW4TokenType@@ABV?$basic_string@DU?$char_traits@D@std@@V?$allocator@D@2@@std@@1@Z ; Scanner::MakeToken<std::basic_string<char,std::char_traits<char>,std::allocator<char> > >
; Line 313
	mov	eax, 1
	jmp	SHORT $LN8@CASE_WAIT_
	jmp	SHORT $LN4@CASE_WAIT_
$LN3@CASE_WAIT_:
; Line 316
	mov	eax, DWORD PTR _ptr$[ebp]
	movsx	ecx, BYTE PTR [eax+216]
	cmp	ecx, 47					; 0000002fH
	jne	SHORT $LN4@CASE_WAIT_
; Line 318
	mov	eax, DWORD PTR _ptr$[ebp]
	mov	DWORD PTR [eax+224], 8
; Line 319
	mov	eax, DWORD PTR _ptr$[ebp]
	mov	DWORD PTR [eax+228], 6
; Line 320
	mov	eax, DWORD PTR _ptr$[ebp]
	movzx	ecx, BYTE PTR [eax+216]
	push	ecx
	mov	ecx, DWORD PTR _ptr$[ebp]
	call	?PutChar@Scanner@@QAEXD@Z		; Scanner::PutChar
; Line 321
	mov	eax, DWORD PTR _ptr$[ebp]
	add	eax, 240				; 000000f0H
	push	eax
	mov	ecx, DWORD PTR _ptr$[ebp]
	add	ecx, 272				; 00000110H
	push	ecx
	push	8
	mov	ecx, DWORD PTR _ptr$[ebp]
	call	??$MakeToken@V?$basic_string@DU?$char_traits@D@std@@V?$allocator@D@2@@std@@@Scanner@@QAEXW4TokenType@@ABV?$basic_string@DU?$char_traits@D@std@@V?$allocator@D@2@@std@@1@Z ; Scanner::MakeToken<std::basic_string<char,std::char_traits<char>,std::allocator<char> > >
; Line 323
	mov	eax, 1
	jmp	SHORT $LN8@CASE_WAIT_
$LN4@CASE_WAIT_:
; Line 326
	xor	eax, eax
$LN8@CASE_WAIT_:
; Line 327
	pop	edi
	pop	esi
	pop	ebx
	add	esp, 192				; 000000c0H
	cmp	ebp, esp
	call	__RTC_CheckEsp
	mov	esp, ebp
	pop	ebp
	ret	0
?CASE_WAIT_STRING_FUNC@@YAHQAVScanner@@@Z ENDP		; CASE_WAIT_STRING_FUNC
_TEXT	ENDS
PUBLIC	??_C@_0BF@DHCICBOM@Incorrect?5char?5value?$AA@	; `string'
PUBLIC	??$MakeToken@D@Scanner@@QAEXW4TokenType@@ABV?$basic_string@DU?$char_traits@D@std@@V?$allocator@D@2@@std@@ABD@Z ; Scanner::MakeToken<char>
PUBLIC	??4?$basic_string@DU?$char_traits@D@std@@V?$allocator@D@2@@std@@QAEAAV01@$$QAV01@@Z ; std::basic_string<char,std::char_traits<char>,std::allocator<char> >::operator=
PUBLIC	??_C@_0BP@HOIFJCDB@Char?5constant?5must?5be?5finished?$AA@ ; `string'
PUBLIC	__$ArrayPad$
PUBLIC	?CASE_CHAR_FUNC@@YAHQAVScanner@@@Z		; CASE_CHAR_FUNC
;	COMDAT ??_C@_0BF@DHCICBOM@Incorrect?5char?5value?$AA@
CONST	SEGMENT
??_C@_0BF@DHCICBOM@Incorrect?5char?5value?$AA@ DB 'Incorrect char value', 00H ; `string'
CONST	ENDS
;	COMDAT ??_C@_0BP@HOIFJCDB@Char?5constant?5must?5be?5finished?$AA@
CONST	SEGMENT
??_C@_0BP@HOIFJCDB@Char?5constant?5must?5be?5finished?$AA@ DB 'Char const'
	DB	'ant must be finished', 00H			; `string'
CONST	ENDS
;	COMDAT xdata$x
xdata$x	SEGMENT
__unwindtable$?CASE_CHAR_FUNC@@YAHQAVScanner@@@Z DD 0ffffffffH
	DD	FLAT:__unwindfunclet$?CASE_CHAR_FUNC@@YAHQAVScanner@@@Z$0
	DD	0ffffffffH
	DD	FLAT:__unwindfunclet$?CASE_CHAR_FUNC@@YAHQAVScanner@@@Z$2
	DD	0ffffffffH
	DD	FLAT:__unwindfunclet$?CASE_CHAR_FUNC@@YAHQAVScanner@@@Z$3
__ehfuncinfo$?CASE_CHAR_FUNC@@YAHQAVScanner@@@Z DD 019930522H
	DD	03H
	DD	FLAT:__unwindtable$?CASE_CHAR_FUNC@@YAHQAVScanner@@@Z
	DD	2 DUP(00H)
	DD	2 DUP(00H)
	DD	00H
	DD	01H
; Function compile flags: /Odtp /RTCsu /ZI
xdata$x	ENDS
;	COMDAT ?CASE_CHAR_FUNC@@YAHQAVScanner@@@Z
_TEXT	SEGMENT
tv155 = -424						; size = 4
tv75 = -420						; size = 4
$T34890 = -412						; size = 32
$T34891 = -372						; size = 36
$T34894 = -328						; size = 32
$T34903 = -288						; size = 32
$T34904 = -248						; size = 36
__$ArrayPad$ = -16					; size = 4
__$EHRec$ = -12						; size = 12
_ptr$ = 8						; size = 4
?CASE_CHAR_FUNC@@YAHQAVScanner@@@Z PROC			; CASE_CHAR_FUNC, COMDAT
; Line 330
	push	ebp
	mov	ebp, esp
	push	-1
	push	__ehhandler$?CASE_CHAR_FUNC@@YAHQAVScanner@@@Z
	mov	eax, DWORD PTR fs:0
	push	eax
	sub	esp, 412				; 0000019cH
	push	ebx
	push	esi
	push	edi
	lea	edi, DWORD PTR [ebp-424]
	mov	ecx, 103				; 00000067H
	mov	eax, -858993460				; ccccccccH
	rep stosd
	mov	eax, DWORD PTR ___security_cookie
	xor	eax, ebp
	mov	DWORD PTR __$ArrayPad$[ebp], eax
	push	eax
	lea	eax, DWORD PTR __$EHRec$[ebp]
	mov	DWORD PTR fs:0, eax
; Line 331
	mov	ecx, DWORD PTR _ptr$[ebp]
	call	?isEof@Scanner@@QAE_NXZ			; Scanner::isEof
	movzx	eax, al
	test	eax, eax
	je	SHORT $LN4@CASE_CHAR_
	push	OFFSET ??_C@_0BP@HOIFJCDB@Char?5constant?5must?5be?5finished?$AA@
	lea	ecx, DWORD PTR $T34890[ebp]
	call	??0?$basic_string@DU?$char_traits@D@std@@V?$allocator@D@2@@std@@QAE@PBD@Z ; std::basic_string<char,std::char_traits<char>,std::allocator<char> >::basic_string<char,std::char_traits<char>,std::allocator<char> >
	mov	DWORD PTR __$EHRec$[ebp+8], 0
	mov	eax, DWORD PTR _ptr$[ebp]
	mov	ecx, DWORD PTR [eax+204]
	sub	ecx, 1
	push	ecx
	mov	edx, DWORD PTR _ptr$[ebp]
	mov	eax, DWORD PTR [edx+200]
	push	eax
	lea	ecx, DWORD PTR $T34890[ebp]
	push	ecx
	lea	edx, DWORD PTR $T34891[ebp]
	push	edx
	call	?GenScannError@Error@@SA?AUSimpleError@@ABV?$basic_string@DU?$char_traits@D@std@@V?$allocator@D@2@@std@@HH@Z ; Error::GenScannError
	add	esp, 16					; 00000010H
	lea	ecx, DWORD PTR $T34891[ebp]
	call	??1SimpleError@@QAE@XZ
	mov	DWORD PTR __$EHRec$[ebp+8], -1
	lea	ecx, DWORD PTR $T34890[ebp]
	call	??1?$basic_string@DU?$char_traits@D@std@@V?$allocator@D@2@@std@@QAE@XZ ; std::basic_string<char,std::char_traits<char>,std::allocator<char> >::~basic_string<char,std::char_traits<char>,std::allocator<char> >
$LN4@CASE_CHAR_:
; Line 332
	mov	eax, DWORD PTR _ptr$[ebp]
	movsx	ecx, BYTE PTR [eax+216]
	cmp	ecx, 39					; 00000027H
	jne	$LN3@CASE_CHAR_
; Line 334
	mov	eax, DWORD PTR _ptr$[ebp]
	add	eax, 272				; 00000110H
	push	eax
	push	0
	lea	ecx, DWORD PTR $T34894[ebp]
	push	ecx
	mov	ecx, DWORD PTR _ptr$[ebp]
	call	?ReadString@Scanner@@QAE?AV?$basic_string@DU?$char_traits@D@std@@V?$allocator@D@2@@std@@IABV23@@Z ; Scanner::ReadString
	mov	DWORD PTR tv75[ebp], eax
	mov	edx, DWORD PTR tv75[ebp]
	mov	DWORD PTR tv155[ebp], edx
	mov	DWORD PTR __$EHRec$[ebp+8], 1
	mov	eax, DWORD PTR tv155[ebp]
	push	eax
	mov	ecx, DWORD PTR _ptr$[ebp]
	add	ecx, 240				; 000000f0H
	call	??4?$basic_string@DU?$char_traits@D@std@@V?$allocator@D@2@@std@@QAEAAV01@$$QAV01@@Z ; std::basic_string<char,std::char_traits<char>,std::allocator<char> >::operator=
	mov	DWORD PTR __$EHRec$[ebp+8], -1
	lea	ecx, DWORD PTR $T34894[ebp]
	call	??1?$basic_string@DU?$char_traits@D@std@@V?$allocator@D@2@@std@@QAE@XZ ; std::basic_string<char,std::char_traits<char>,std::allocator<char> >::~basic_string<char,std::char_traits<char>,std::allocator<char> >
; Line 335
	mov	ecx, DWORD PTR _ptr$[ebp]
	add	ecx, 240				; 000000f0H
	call	?length@?$basic_string@DU?$char_traits@D@std@@V?$allocator@D@2@@std@@QBEIXZ ; std::basic_string<char,std::char_traits<char>,std::allocator<char> >::length
	cmp	eax, 1
	jne	SHORT $LN2@CASE_CHAR_
; Line 337
	push	0
	mov	ecx, DWORD PTR _ptr$[ebp]
	add	ecx, 240				; 000000f0H
	call	??A?$basic_string@DU?$char_traits@D@std@@V?$allocator@D@2@@std@@QAEAADI@Z ; std::basic_string<char,std::char_traits<char>,std::allocator<char> >::operator[]
	push	eax
	mov	eax, DWORD PTR _ptr$[ebp]
	add	eax, 272				; 00000110H
	push	eax
	push	0
	mov	ecx, DWORD PTR _ptr$[ebp]
	call	??$MakeToken@D@Scanner@@QAEXW4TokenType@@ABV?$basic_string@DU?$char_traits@D@std@@V?$allocator@D@2@@std@@ABD@Z ; Scanner::MakeToken<char>
; Line 338
	mov	eax, 1
	jmp	SHORT $LN5@CASE_CHAR_
	jmp	SHORT $LN3@CASE_CHAR_
$LN2@CASE_CHAR_:
; Line 340
	push	OFFSET ??_C@_0BF@DHCICBOM@Incorrect?5char?5value?$AA@
	lea	ecx, DWORD PTR $T34903[ebp]
	call	??0?$basic_string@DU?$char_traits@D@std@@V?$allocator@D@2@@std@@QAE@PBD@Z ; std::basic_string<char,std::char_traits<char>,std::allocator<char> >::basic_string<char,std::char_traits<char>,std::allocator<char> >
	mov	DWORD PTR __$EHRec$[ebp+8], 2
	mov	eax, DWORD PTR _ptr$[ebp]
	mov	ecx, DWORD PTR [eax+204]
	push	ecx
	mov	edx, DWORD PTR _ptr$[ebp]
	mov	eax, DWORD PTR [edx+200]
	push	eax
	lea	ecx, DWORD PTR $T34903[ebp]
	push	ecx
	lea	edx, DWORD PTR $T34904[ebp]
	push	edx
	call	?GenScannError@Error@@SA?AUSimpleError@@ABV?$basic_string@DU?$char_traits@D@std@@V?$allocator@D@2@@std@@HH@Z ; Error::GenScannError
	add	esp, 16					; 00000010H
	lea	ecx, DWORD PTR $T34904[ebp]
	call	??1SimpleError@@QAE@XZ
	mov	DWORD PTR __$EHRec$[ebp+8], -1
	lea	ecx, DWORD PTR $T34903[ebp]
	call	??1?$basic_string@DU?$char_traits@D@std@@V?$allocator@D@2@@std@@QAE@XZ ; std::basic_string<char,std::char_traits<char>,std::allocator<char> >::~basic_string<char,std::char_traits<char>,std::allocator<char> >
$LN3@CASE_CHAR_:
; Line 343
	xor	eax, eax
$LN5@CASE_CHAR_:
; Line 344
	mov	ecx, DWORD PTR __$EHRec$[ebp]
	mov	DWORD PTR fs:0, ecx
	pop	ecx
	pop	edi
	pop	esi
	pop	ebx
	mov	ecx, DWORD PTR __$ArrayPad$[ebp]
	xor	ecx, ebp
	call	@__security_check_cookie@4
	add	esp, 424				; 000001a8H
	cmp	ebp, esp
	call	__RTC_CheckEsp
	mov	esp, ebp
	pop	ebp
	ret	0
_TEXT	ENDS
;	COMDAT text$x
text$x	SEGMENT
__unwindfunclet$?CASE_CHAR_FUNC@@YAHQAVScanner@@@Z$0:
	lea	ecx, DWORD PTR $T34890[ebp]
	jmp	??1?$basic_string@DU?$char_traits@D@std@@V?$allocator@D@2@@std@@QAE@XZ ; std::basic_string<char,std::char_traits<char>,std::allocator<char> >::~basic_string<char,std::char_traits<char>,std::allocator<char> >
__unwindfunclet$?CASE_CHAR_FUNC@@YAHQAVScanner@@@Z$2:
	lea	ecx, DWORD PTR $T34894[ebp]
	jmp	??1?$basic_string@DU?$char_traits@D@std@@V?$allocator@D@2@@std@@QAE@XZ ; std::basic_string<char,std::char_traits<char>,std::allocator<char> >::~basic_string<char,std::char_traits<char>,std::allocator<char> >
__unwindfunclet$?CASE_CHAR_FUNC@@YAHQAVScanner@@@Z$3:
	lea	ecx, DWORD PTR $T34903[ebp]
	jmp	??1?$basic_string@DU?$char_traits@D@std@@V?$allocator@D@2@@std@@QAE@XZ ; std::basic_string<char,std::char_traits<char>,std::allocator<char> >::~basic_string<char,std::char_traits<char>,std::allocator<char> >
__ehhandler$?CASE_CHAR_FUNC@@YAHQAVScanner@@@Z:
	mov	edx, DWORD PTR [esp+8]
	lea	eax, DWORD PTR [edx+12]
	mov	ecx, DWORD PTR [edx-428]
	xor	ecx, eax
	call	@__security_check_cookie@4
	mov	ecx, DWORD PTR [edx-4]
	xor	ecx, eax
	call	@__security_check_cookie@4
	mov	eax, OFFSET __ehfuncinfo$?CASE_CHAR_FUNC@@YAHQAVScanner@@@Z
	jmp	___CxxFrameHandler3
text$x	ENDS
?CASE_CHAR_FUNC@@YAHQAVScanner@@@Z ENDP			; CASE_CHAR_FUNC
PUBLIC	??_C@_01NEMOKFLO@?$DN?$AA@			; `string'
PUBLIC	?CASE_MAYBE_EQUAL_FUNC@@YAHQAVScanner@@@Z	; CASE_MAYBE_EQUAL_FUNC
;	COMDAT ??_C@_01NEMOKFLO@?$DN?$AA@
CONST	SEGMENT
??_C@_01NEMOKFLO@?$DN?$AA@ DB '=', 00H			; `string'
; Function compile flags: /Odtp /RTCsu /ZI
CONST	ENDS
;	COMDAT ?CASE_MAYBE_EQUAL_FUNC@@YAHQAVScanner@@@Z
_TEXT	SEGMENT
_ptr$ = 8						; size = 4
?CASE_MAYBE_EQUAL_FUNC@@YAHQAVScanner@@@Z PROC		; CASE_MAYBE_EQUAL_FUNC, COMDAT
; Line 347
	push	ebp
	mov	ebp, esp
	sub	esp, 192				; 000000c0H
	push	ebx
	push	esi
	push	edi
	lea	edi, DWORD PTR [ebp-192]
	mov	ecx, 48					; 00000030H
	mov	eax, -858993460				; ccccccccH
	rep stosd
; Line 348
	mov	eax, DWORD PTR _ptr$[ebp]
	cmp	DWORD PTR [eax+220], 1
	jne	SHORT $LN7@CASE_MAYBE
; Line 350
	mov	ecx, DWORD PTR _ptr$[ebp]
	call	?isEof@Scanner@@QAE_NXZ			; Scanner::isEof
	movzx	eax, al
	test	eax, eax
	jne	SHORT $LN6@CASE_MAYBE
	mov	eax, DWORD PTR _ptr$[ebp]
	movsx	ecx, BYTE PTR [eax+216]
	cmp	ecx, 10					; 0000000aH
	je	SHORT $LN6@CASE_MAYBE
	mov	eax, DWORD PTR _ptr$[ebp]
	movzx	ecx, BYTE PTR [eax+216]
	push	ecx
	mov	ecx, DWORD PTR _ptr$[ebp]
	call	?PutChar@Scanner@@QAEXD@Z		; Scanner::PutChar
$LN6@CASE_MAYBE:
; Line 351
	mov	eax, DWORD PTR _ptr$[ebp]
	add	eax, 272				; 00000110H
	push	eax
	push	21					; 00000015H
	mov	ecx, DWORD PTR _ptr$[ebp]
	call	?MakeToken@Scanner@@QAEXW4TokenType@@ABV?$basic_string@DU?$char_traits@D@std@@V?$allocator@D@2@@std@@@Z ; Scanner::MakeToken
; Line 352
	mov	eax, 1
	jmp	$LN8@CASE_MAYBE
$LN7@CASE_MAYBE:
; Line 355
	mov	ecx, DWORD PTR _ptr$[ebp]
	call	?isEof@Scanner@@QAE_NXZ			; Scanner::isEof
	movzx	eax, al
	test	eax, eax
	jne	SHORT $LN4@CASE_MAYBE
	mov	eax, DWORD PTR _ptr$[ebp]
	movsx	ecx, BYTE PTR [eax+216]
	cmp	ecx, 61					; 0000003dH
	je	SHORT $LN5@CASE_MAYBE
$LN4@CASE_MAYBE:
; Line 357
	mov	ecx, DWORD PTR _ptr$[ebp]
	call	?isEof@Scanner@@QAE_NXZ			; Scanner::isEof
	movzx	eax, al
	test	eax, eax
	jne	SHORT $LN3@CASE_MAYBE
	mov	eax, DWORD PTR _ptr$[ebp]
	movsx	ecx, BYTE PTR [eax+216]
	cmp	ecx, 10					; 0000000aH
	je	SHORT $LN3@CASE_MAYBE
	mov	eax, DWORD PTR _ptr$[ebp]
	movzx	ecx, BYTE PTR [eax+216]
	push	ecx
	mov	ecx, DWORD PTR _ptr$[ebp]
	call	?PutChar@Scanner@@QAEXD@Z		; Scanner::PutChar
$LN3@CASE_MAYBE:
; Line 358
	push	OFFSET ??_C@_01NEMOKFLO@?$DN?$AA@
	mov	eax, DWORD PTR _ptr$[ebp]
	add	eax, 272				; 00000110H
	push	eax
	call	??$?8DU?$char_traits@D@std@@V?$allocator@D@1@@std@@YA_NABV?$basic_string@DU?$char_traits@D@std@@V?$allocator@D@2@@0@PBD@Z ; std::operator==<char,std::char_traits<char>,std::allocator<char> >
	add	esp, 8
	movzx	ecx, al
	test	ecx, ecx
	je	SHORT $LN2@CASE_MAYBE
	mov	eax, DWORD PTR _ptr$[ebp]
	add	eax, 272				; 00000110H
	push	eax
	push	32					; 00000020H
	mov	ecx, DWORD PTR _ptr$[ebp]
	call	?MakeToken@Scanner@@QAEXW4TokenType@@ABV?$basic_string@DU?$char_traits@D@std@@V?$allocator@D@2@@std@@@Z ; Scanner::MakeToken
	jmp	SHORT $LN1@CASE_MAYBE
$LN2@CASE_MAYBE:
; Line 359
	mov	eax, DWORD PTR _ptr$[ebp]
	add	eax, 272				; 00000110H
	push	eax
	push	5
	mov	ecx, DWORD PTR _ptr$[ebp]
	call	?MakeToken@Scanner@@QAEXW4TokenType@@ABV?$basic_string@DU?$char_traits@D@std@@V?$allocator@D@2@@std@@@Z ; Scanner::MakeToken
$LN1@CASE_MAYBE:
; Line 360
	mov	eax, 1
	jmp	SHORT $LN8@CASE_MAYBE
$LN5@CASE_MAYBE:
; Line 363
	mov	eax, DWORD PTR _ptr$[ebp]
	mov	ecx, DWORD PTR [eax+220]
	add	ecx, 1
	mov	edx, DWORD PTR _ptr$[ebp]
	mov	DWORD PTR [edx+220], ecx
; Line 365
	xor	eax, eax
$LN8@CASE_MAYBE:
; Line 366
	pop	edi
	pop	esi
	pop	ebx
	add	esp, 192				; 000000c0H
	cmp	ebp, esp
	call	__RTC_CheckEsp
	mov	esp, ebp
	pop	ebp
	ret	0
?CASE_MAYBE_EQUAL_FUNC@@YAHQAVScanner@@@Z ENDP		; CASE_MAYBE_EQUAL_FUNC
_TEXT	ENDS
PUBLIC	?CASE_MAYBE_dPLUS_FUNC@@YAHQAVScanner@@@Z	; CASE_MAYBE_dPLUS_FUNC
; Function compile flags: /Odtp /RTCsu /ZI
;	COMDAT ?CASE_MAYBE_dPLUS_FUNC@@YAHQAVScanner@@@Z
_TEXT	SEGMENT
_ptr$ = 8						; size = 4
?CASE_MAYBE_dPLUS_FUNC@@YAHQAVScanner@@@Z PROC		; CASE_MAYBE_dPLUS_FUNC, COMDAT
; Line 369
	push	ebp
	mov	ebp, esp
	sub	esp, 192				; 000000c0H
	push	ebx
	push	esi
	push	edi
	lea	edi, DWORD PTR [ebp-192]
	mov	ecx, 48					; 00000030H
	mov	eax, -858993460				; ccccccccH
	rep stosd
; Line 370
	mov	eax, DWORD PTR _ptr$[ebp]
	cmp	DWORD PTR [eax+220], 1
	jne	SHORT $LN5@CASE_MAYBE@2
; Line 372
	mov	ecx, DWORD PTR _ptr$[ebp]
	call	?isEof@Scanner@@QAE_NXZ			; Scanner::isEof
	movzx	eax, al
	test	eax, eax
	jne	SHORT $LN4@CASE_MAYBE@2
	mov	eax, DWORD PTR _ptr$[ebp]
	movsx	ecx, BYTE PTR [eax+216]
	cmp	ecx, 10					; 0000000aH
	je	SHORT $LN4@CASE_MAYBE@2
	mov	eax, DWORD PTR _ptr$[ebp]
	movzx	ecx, BYTE PTR [eax+216]
	push	ecx
	mov	ecx, DWORD PTR _ptr$[ebp]
	call	?PutChar@Scanner@@QAEXD@Z		; Scanner::PutChar
$LN4@CASE_MAYBE@2:
; Line 373
	mov	eax, DWORD PTR _ptr$[ebp]
	add	eax, 272				; 00000110H
	push	eax
	push	5
	mov	ecx, DWORD PTR _ptr$[ebp]
	call	?MakeToken@Scanner@@QAEXW4TokenType@@ABV?$basic_string@DU?$char_traits@D@std@@V?$allocator@D@2@@std@@@Z ; Scanner::MakeToken
; Line 374
	mov	eax, 1
	jmp	$LN6@CASE_MAYBE@2
$LN5@CASE_MAYBE@2:
; Line 377
	mov	ecx, DWORD PTR _ptr$[ebp]
	call	?isEof@Scanner@@QAE_NXZ			; Scanner::isEof
	movzx	eax, al
	test	eax, eax
	jne	SHORT $LN2@CASE_MAYBE@2
	mov	eax, DWORD PTR _ptr$[ebp]
	movsx	ecx, BYTE PTR [eax+216]
	cmp	ecx, 43					; 0000002bH
	je	SHORT $LN3@CASE_MAYBE@2
	mov	eax, DWORD PTR _ptr$[ebp]
	movsx	ecx, BYTE PTR [eax+216]
	cmp	ecx, 61					; 0000003dH
	je	SHORT $LN3@CASE_MAYBE@2
$LN2@CASE_MAYBE@2:
; Line 379
	mov	ecx, DWORD PTR _ptr$[ebp]
	call	?isEof@Scanner@@QAE_NXZ			; Scanner::isEof
	movzx	eax, al
	test	eax, eax
	jne	SHORT $LN1@CASE_MAYBE@2
	mov	eax, DWORD PTR _ptr$[ebp]
	movsx	ecx, BYTE PTR [eax+216]
	cmp	ecx, 10					; 0000000aH
	je	SHORT $LN1@CASE_MAYBE@2
	mov	eax, DWORD PTR _ptr$[ebp]
	movzx	ecx, BYTE PTR [eax+216]
	push	ecx
	mov	ecx, DWORD PTR _ptr$[ebp]
	call	?PutChar@Scanner@@QAEXD@Z		; Scanner::PutChar
$LN1@CASE_MAYBE@2:
; Line 380
	mov	eax, DWORD PTR _ptr$[ebp]
	add	eax, 272				; 00000110H
	push	eax
	push	9
	mov	ecx, DWORD PTR _ptr$[ebp]
	call	?MakeToken@Scanner@@QAEXW4TokenType@@ABV?$basic_string@DU?$char_traits@D@std@@V?$allocator@D@2@@std@@@Z ; Scanner::MakeToken
; Line 381
	mov	eax, 1
	jmp	SHORT $LN6@CASE_MAYBE@2
$LN3@CASE_MAYBE@2:
; Line 383
	mov	eax, DWORD PTR _ptr$[ebp]
	mov	ecx, DWORD PTR [eax+220]
	add	ecx, 1
	mov	edx, DWORD PTR _ptr$[ebp]
	mov	DWORD PTR [edx+220], ecx
; Line 385
	xor	eax, eax
$LN6@CASE_MAYBE@2:
; Line 386
	pop	edi
	pop	esi
	pop	ebx
	add	esp, 192				; 000000c0H
	cmp	ebp, esp
	call	__RTC_CheckEsp
	mov	esp, ebp
	pop	ebp
	ret	0
?CASE_MAYBE_dPLUS_FUNC@@YAHQAVScanner@@@Z ENDP		; CASE_MAYBE_dPLUS_FUNC
_TEXT	ENDS
PUBLIC	?CASE_MAYBE_dMINUS_FUNC@@YAHQAVScanner@@@Z	; CASE_MAYBE_dMINUS_FUNC
; Function compile flags: /Odtp /RTCsu /ZI
;	COMDAT ?CASE_MAYBE_dMINUS_FUNC@@YAHQAVScanner@@@Z
_TEXT	SEGMENT
_ptr$ = 8						; size = 4
?CASE_MAYBE_dMINUS_FUNC@@YAHQAVScanner@@@Z PROC		; CASE_MAYBE_dMINUS_FUNC, COMDAT
; Line 389
	push	ebp
	mov	ebp, esp
	sub	esp, 192				; 000000c0H
	push	ebx
	push	esi
	push	edi
	lea	edi, DWORD PTR [ebp-192]
	mov	ecx, 48					; 00000030H
	mov	eax, -858993460				; ccccccccH
	rep stosd
; Line 390
	mov	eax, DWORD PTR _ptr$[ebp]
	cmp	DWORD PTR [eax+220], 1
	jne	SHORT $LN5@CASE_MAYBE@3
; Line 392
	mov	ecx, DWORD PTR _ptr$[ebp]
	call	?isEof@Scanner@@QAE_NXZ			; Scanner::isEof
	movzx	eax, al
	test	eax, eax
	jne	SHORT $LN4@CASE_MAYBE@3
	mov	eax, DWORD PTR _ptr$[ebp]
	movsx	ecx, BYTE PTR [eax+216]
	cmp	ecx, 10					; 0000000aH
	je	SHORT $LN4@CASE_MAYBE@3
	mov	eax, DWORD PTR _ptr$[ebp]
	movzx	ecx, BYTE PTR [eax+216]
	push	ecx
	mov	ecx, DWORD PTR _ptr$[ebp]
	call	?PutChar@Scanner@@QAEXD@Z		; Scanner::PutChar
$LN4@CASE_MAYBE@3:
; Line 393
	mov	eax, DWORD PTR _ptr$[ebp]
	add	eax, 272				; 00000110H
	push	eax
	push	5
	mov	ecx, DWORD PTR _ptr$[ebp]
	call	?MakeToken@Scanner@@QAEXW4TokenType@@ABV?$basic_string@DU?$char_traits@D@std@@V?$allocator@D@2@@std@@@Z ; Scanner::MakeToken
; Line 394
	mov	eax, 1
	jmp	$LN6@CASE_MAYBE@3
$LN5@CASE_MAYBE@3:
; Line 397
	mov	ecx, DWORD PTR _ptr$[ebp]
	call	?isEof@Scanner@@QAE_NXZ			; Scanner::isEof
	movzx	eax, al
	test	eax, eax
	jne	SHORT $LN2@CASE_MAYBE@3
	mov	eax, DWORD PTR _ptr$[ebp]
	movsx	ecx, BYTE PTR [eax+216]
	cmp	ecx, 45					; 0000002dH
	je	SHORT $LN3@CASE_MAYBE@3
	mov	eax, DWORD PTR _ptr$[ebp]
	movsx	ecx, BYTE PTR [eax+216]
	cmp	ecx, 62					; 0000003eH
	je	SHORT $LN3@CASE_MAYBE@3
	mov	eax, DWORD PTR _ptr$[ebp]
	movsx	ecx, BYTE PTR [eax+216]
	cmp	ecx, 61					; 0000003dH
	je	SHORT $LN3@CASE_MAYBE@3
$LN2@CASE_MAYBE@3:
; Line 399
	mov	ecx, DWORD PTR _ptr$[ebp]
	call	?isEof@Scanner@@QAE_NXZ			; Scanner::isEof
	movzx	eax, al
	test	eax, eax
	jne	SHORT $LN1@CASE_MAYBE@3
	mov	eax, DWORD PTR _ptr$[ebp]
	movsx	ecx, BYTE PTR [eax+216]
	cmp	ecx, 10					; 0000000aH
	je	SHORT $LN1@CASE_MAYBE@3
	mov	eax, DWORD PTR _ptr$[ebp]
	movzx	ecx, BYTE PTR [eax+216]
	push	ecx
	mov	ecx, DWORD PTR _ptr$[ebp]
	call	?PutChar@Scanner@@QAEXD@Z		; Scanner::PutChar
$LN1@CASE_MAYBE@3:
; Line 400
	mov	eax, DWORD PTR _ptr$[ebp]
	add	eax, 272				; 00000110H
	push	eax
	push	10					; 0000000aH
	mov	ecx, DWORD PTR _ptr$[ebp]
	call	?MakeToken@Scanner@@QAEXW4TokenType@@ABV?$basic_string@DU?$char_traits@D@std@@V?$allocator@D@2@@std@@@Z ; Scanner::MakeToken
; Line 401
	mov	eax, 1
	jmp	SHORT $LN6@CASE_MAYBE@3
$LN3@CASE_MAYBE@3:
; Line 403
	mov	eax, DWORD PTR _ptr$[ebp]
	mov	ecx, DWORD PTR [eax+220]
	add	ecx, 1
	mov	edx, DWORD PTR _ptr$[ebp]
	mov	DWORD PTR [edx+220], ecx
; Line 405
	xor	eax, eax
$LN6@CASE_MAYBE@3:
; Line 406
	pop	edi
	pop	esi
	pop	ebx
	add	esp, 192				; 000000c0H
	cmp	ebp, esp
	call	__RTC_CheckEsp
	mov	esp, ebp
	pop	ebp
	ret	0
?CASE_MAYBE_dMINUS_FUNC@@YAHQAVScanner@@@Z ENDP		; CASE_MAYBE_dMINUS_FUNC
_TEXT	ENDS
PUBLIC	?CASE_MAYBE_dAMP_FUNC@@YAHQAVScanner@@@Z	; CASE_MAYBE_dAMP_FUNC
; Function compile flags: /Odtp /RTCsu /ZI
;	COMDAT ?CASE_MAYBE_dAMP_FUNC@@YAHQAVScanner@@@Z
_TEXT	SEGMENT
_ptr$ = 8						; size = 4
?CASE_MAYBE_dAMP_FUNC@@YAHQAVScanner@@@Z PROC		; CASE_MAYBE_dAMP_FUNC, COMDAT
; Line 409
	push	ebp
	mov	ebp, esp
	sub	esp, 192				; 000000c0H
	push	ebx
	push	esi
	push	edi
	lea	edi, DWORD PTR [ebp-192]
	mov	ecx, 48					; 00000030H
	mov	eax, -858993460				; ccccccccH
	rep stosd
; Line 410
	mov	eax, DWORD PTR _ptr$[ebp]
	cmp	DWORD PTR [eax+220], 1
	jne	SHORT $LN5@CASE_MAYBE@4
; Line 412
	mov	ecx, DWORD PTR _ptr$[ebp]
	call	?isEof@Scanner@@QAE_NXZ			; Scanner::isEof
	movzx	eax, al
	test	eax, eax
	jne	SHORT $LN4@CASE_MAYBE@4
	mov	eax, DWORD PTR _ptr$[ebp]
	movsx	ecx, BYTE PTR [eax+216]
	cmp	ecx, 10					; 0000000aH
	je	SHORT $LN4@CASE_MAYBE@4
	mov	eax, DWORD PTR _ptr$[ebp]
	movzx	ecx, BYTE PTR [eax+216]
	push	ecx
	mov	ecx, DWORD PTR _ptr$[ebp]
	call	?PutChar@Scanner@@QAEXD@Z		; Scanner::PutChar
$LN4@CASE_MAYBE@4:
; Line 413
	mov	eax, DWORD PTR _ptr$[ebp]
	add	eax, 272				; 00000110H
	push	eax
	push	26					; 0000001aH
	mov	ecx, DWORD PTR _ptr$[ebp]
	call	?MakeToken@Scanner@@QAEXW4TokenType@@ABV?$basic_string@DU?$char_traits@D@std@@V?$allocator@D@2@@std@@@Z ; Scanner::MakeToken
; Line 414
	mov	eax, 1
	jmp	$LN6@CASE_MAYBE@4
$LN5@CASE_MAYBE@4:
; Line 417
	mov	ecx, DWORD PTR _ptr$[ebp]
	call	?isEof@Scanner@@QAE_NXZ			; Scanner::isEof
	movzx	eax, al
	test	eax, eax
	jne	SHORT $LN2@CASE_MAYBE@4
	mov	eax, DWORD PTR _ptr$[ebp]
	movsx	ecx, BYTE PTR [eax+216]
	cmp	ecx, 38					; 00000026H
	je	SHORT $LN3@CASE_MAYBE@4
	mov	eax, DWORD PTR _ptr$[ebp]
	movsx	ecx, BYTE PTR [eax+216]
	cmp	ecx, 61					; 0000003dH
	je	SHORT $LN3@CASE_MAYBE@4
$LN2@CASE_MAYBE@4:
; Line 419
	mov	ecx, DWORD PTR _ptr$[ebp]
	call	?isEof@Scanner@@QAE_NXZ			; Scanner::isEof
	movzx	eax, al
	test	eax, eax
	jne	SHORT $LN1@CASE_MAYBE@4
	mov	eax, DWORD PTR _ptr$[ebp]
	movsx	ecx, BYTE PTR [eax+216]
	cmp	ecx, 10					; 0000000aH
	je	SHORT $LN1@CASE_MAYBE@4
	mov	eax, DWORD PTR _ptr$[ebp]
	movzx	ecx, BYTE PTR [eax+216]
	push	ecx
	mov	ecx, DWORD PTR _ptr$[ebp]
	call	?PutChar@Scanner@@QAEXD@Z		; Scanner::PutChar
$LN1@CASE_MAYBE@4:
; Line 420
	mov	eax, DWORD PTR _ptr$[ebp]
	add	eax, 272				; 00000110H
	push	eax
	push	23					; 00000017H
	mov	ecx, DWORD PTR _ptr$[ebp]
	call	?MakeToken@Scanner@@QAEXW4TokenType@@ABV?$basic_string@DU?$char_traits@D@std@@V?$allocator@D@2@@std@@@Z ; Scanner::MakeToken
; Line 421
	mov	eax, 1
	jmp	SHORT $LN6@CASE_MAYBE@4
$LN3@CASE_MAYBE@4:
; Line 423
	mov	eax, DWORD PTR _ptr$[ebp]
	mov	ecx, DWORD PTR [eax+220]
	add	ecx, 1
	mov	edx, DWORD PTR _ptr$[ebp]
	mov	DWORD PTR [edx+220], ecx
; Line 425
	xor	eax, eax
$LN6@CASE_MAYBE@4:
; Line 426
	pop	edi
	pop	esi
	pop	ebx
	add	esp, 192				; 000000c0H
	cmp	ebp, esp
	call	__RTC_CheckEsp
	mov	esp, ebp
	pop	ebp
	ret	0
?CASE_MAYBE_dAMP_FUNC@@YAHQAVScanner@@@Z ENDP		; CASE_MAYBE_dAMP_FUNC
_TEXT	ENDS
PUBLIC	?CASE_MAYBE_dVERT_FUNC@@YAHQAVScanner@@@Z	; CASE_MAYBE_dVERT_FUNC
; Function compile flags: /Odtp /RTCsu /ZI
;	COMDAT ?CASE_MAYBE_dVERT_FUNC@@YAHQAVScanner@@@Z
_TEXT	SEGMENT
_ptr$ = 8						; size = 4
?CASE_MAYBE_dVERT_FUNC@@YAHQAVScanner@@@Z PROC		; CASE_MAYBE_dVERT_FUNC, COMDAT
; Line 429
	push	ebp
	mov	ebp, esp
	sub	esp, 192				; 000000c0H
	push	ebx
	push	esi
	push	edi
	lea	edi, DWORD PTR [ebp-192]
	mov	ecx, 48					; 00000030H
	mov	eax, -858993460				; ccccccccH
	rep stosd
; Line 430
	mov	eax, DWORD PTR _ptr$[ebp]
	cmp	DWORD PTR [eax+220], 1
	jne	SHORT $LN5@CASE_MAYBE@5
; Line 432
	mov	ecx, DWORD PTR _ptr$[ebp]
	call	?isEof@Scanner@@QAE_NXZ			; Scanner::isEof
	movzx	eax, al
	test	eax, eax
	jne	SHORT $LN4@CASE_MAYBE@5
	mov	eax, DWORD PTR _ptr$[ebp]
	movsx	ecx, BYTE PTR [eax+216]
	cmp	ecx, 10					; 0000000aH
	je	SHORT $LN4@CASE_MAYBE@5
	mov	eax, DWORD PTR _ptr$[ebp]
	movzx	ecx, BYTE PTR [eax+216]
	push	ecx
	mov	ecx, DWORD PTR _ptr$[ebp]
	call	?PutChar@Scanner@@QAEXD@Z		; Scanner::PutChar
$LN4@CASE_MAYBE@5:
; Line 433
	mov	eax, DWORD PTR _ptr$[ebp]
	add	eax, 272				; 00000110H
	push	eax
	push	27					; 0000001bH
	mov	ecx, DWORD PTR _ptr$[ebp]
	call	?MakeToken@Scanner@@QAEXW4TokenType@@ABV?$basic_string@DU?$char_traits@D@std@@V?$allocator@D@2@@std@@@Z ; Scanner::MakeToken
; Line 434
	mov	eax, 1
	jmp	$LN6@CASE_MAYBE@5
$LN5@CASE_MAYBE@5:
; Line 437
	mov	ecx, DWORD PTR _ptr$[ebp]
	call	?isEof@Scanner@@QAE_NXZ			; Scanner::isEof
	movzx	eax, al
	test	eax, eax
	jne	SHORT $LN2@CASE_MAYBE@5
	mov	eax, DWORD PTR _ptr$[ebp]
	movsx	ecx, BYTE PTR [eax+216]
	cmp	ecx, 124				; 0000007cH
	je	SHORT $LN3@CASE_MAYBE@5
	mov	eax, DWORD PTR _ptr$[ebp]
	movsx	ecx, BYTE PTR [eax+216]
	cmp	ecx, 61					; 0000003dH
	je	SHORT $LN3@CASE_MAYBE@5
$LN2@CASE_MAYBE@5:
; Line 439
	mov	ecx, DWORD PTR _ptr$[ebp]
	call	?isEof@Scanner@@QAE_NXZ			; Scanner::isEof
	movzx	eax, al
	test	eax, eax
	jne	SHORT $LN1@CASE_MAYBE@5
	mov	eax, DWORD PTR _ptr$[ebp]
	movsx	ecx, BYTE PTR [eax+216]
	cmp	ecx, 10					; 0000000aH
	je	SHORT $LN1@CASE_MAYBE@5
	mov	eax, DWORD PTR _ptr$[ebp]
	movzx	ecx, BYTE PTR [eax+216]
	push	ecx
	mov	ecx, DWORD PTR _ptr$[ebp]
	call	?PutChar@Scanner@@QAEXD@Z		; Scanner::PutChar
$LN1@CASE_MAYBE@5:
; Line 440
	mov	eax, DWORD PTR _ptr$[ebp]
	add	eax, 272				; 00000110H
	push	eax
	push	25					; 00000019H
	mov	ecx, DWORD PTR _ptr$[ebp]
	call	?MakeToken@Scanner@@QAEXW4TokenType@@ABV?$basic_string@DU?$char_traits@D@std@@V?$allocator@D@2@@std@@@Z ; Scanner::MakeToken
; Line 441
	mov	eax, 1
	jmp	SHORT $LN6@CASE_MAYBE@5
$LN3@CASE_MAYBE@5:
; Line 443
	mov	eax, DWORD PTR _ptr$[ebp]
	mov	ecx, DWORD PTR [eax+220]
	add	ecx, 1
	mov	edx, DWORD PTR _ptr$[ebp]
	mov	DWORD PTR [edx+220], ecx
; Line 445
	xor	eax, eax
$LN6@CASE_MAYBE@5:
; Line 446
	pop	edi
	pop	esi
	pop	ebx
	add	esp, 192				; 000000c0H
	cmp	ebp, esp
	call	__RTC_CheckEsp
	mov	esp, ebp
	pop	ebp
	ret	0
?CASE_MAYBE_dVERT_FUNC@@YAHQAVScanner@@@Z ENDP		; CASE_MAYBE_dVERT_FUNC
_TEXT	ENDS
PUBLIC	??_C@_02EHCHHCKH@?$DM?$DN?$AA@			; `string'
PUBLIC	??_C@_01MNNFJEPP@?$DM?$AA@			; `string'
PUBLIC	?CASE_MAYBE_SHL_FUNC@@YAHQAVScanner@@@Z		; CASE_MAYBE_SHL_FUNC
;	COMDAT ??_C@_02EHCHHCKH@?$DM?$DN?$AA@
CONST	SEGMENT
??_C@_02EHCHHCKH@?$DM?$DN?$AA@ DB '<=', 00H		; `string'
CONST	ENDS
;	COMDAT ??_C@_01MNNFJEPP@?$DM?$AA@
CONST	SEGMENT
??_C@_01MNNFJEPP@?$DM?$AA@ DB '<', 00H			; `string'
; Function compile flags: /Odtp /RTCsu /ZI
CONST	ENDS
;	COMDAT ?CASE_MAYBE_SHL_FUNC@@YAHQAVScanner@@@Z
_TEXT	SEGMENT
_ptr$ = 8						; size = 4
?CASE_MAYBE_SHL_FUNC@@YAHQAVScanner@@@Z PROC		; CASE_MAYBE_SHL_FUNC, COMDAT
; Line 449
	push	ebp
	mov	ebp, esp
	sub	esp, 192				; 000000c0H
	push	ebx
	push	esi
	push	edi
	lea	edi, DWORD PTR [ebp-192]
	mov	ecx, 48					; 00000030H
	mov	eax, -858993460				; ccccccccH
	rep stosd
; Line 450
	mov	eax, DWORD PTR _ptr$[ebp]
	cmp	DWORD PTR [eax+220], 1
	jne	SHORT $LN7@CASE_MAYBE@6
; Line 452
	mov	ecx, DWORD PTR _ptr$[ebp]
	call	?isEof@Scanner@@QAE_NXZ			; Scanner::isEof
	movzx	eax, al
	test	eax, eax
	jne	SHORT $LN6@CASE_MAYBE@6
	mov	eax, DWORD PTR _ptr$[ebp]
	movsx	ecx, BYTE PTR [eax+216]
	cmp	ecx, 10					; 0000000aH
	je	SHORT $LN6@CASE_MAYBE@6
	mov	eax, DWORD PTR _ptr$[ebp]
	movzx	ecx, BYTE PTR [eax+216]
	push	ecx
	mov	ecx, DWORD PTR _ptr$[ebp]
	call	?PutChar@Scanner@@QAEXD@Z		; Scanner::PutChar
$LN6@CASE_MAYBE@6:
; Line 453
	mov	eax, DWORD PTR _ptr$[ebp]
	add	eax, 272				; 00000110H
	push	eax
	push	15					; 0000000fH
	mov	ecx, DWORD PTR _ptr$[ebp]
	call	?MakeToken@Scanner@@QAEXW4TokenType@@ABV?$basic_string@DU?$char_traits@D@std@@V?$allocator@D@2@@std@@@Z ; Scanner::MakeToken
; Line 454
	mov	eax, 1
	jmp	$LN8@CASE_MAYBE@6
$LN7@CASE_MAYBE@6:
; Line 457
	mov	ecx, DWORD PTR _ptr$[ebp]
	call	?isEof@Scanner@@QAE_NXZ			; Scanner::isEof
	movzx	eax, al
	test	eax, eax
	jne	SHORT $LN4@CASE_MAYBE@6
	mov	eax, DWORD PTR _ptr$[ebp]
	movsx	ecx, BYTE PTR [eax+216]
	cmp	ecx, 60					; 0000003cH
	je	$LN5@CASE_MAYBE@6
	mov	eax, DWORD PTR _ptr$[ebp]
	movsx	ecx, BYTE PTR [eax+216]
	cmp	ecx, 61					; 0000003dH
	je	$LN5@CASE_MAYBE@6
$LN4@CASE_MAYBE@6:
; Line 459
	mov	ecx, DWORD PTR _ptr$[ebp]
	call	?isEof@Scanner@@QAE_NXZ			; Scanner::isEof
	movzx	eax, al
	test	eax, eax
	jne	SHORT $LN3@CASE_MAYBE@6
	mov	eax, DWORD PTR _ptr$[ebp]
	movsx	ecx, BYTE PTR [eax+216]
	cmp	ecx, 10					; 0000000aH
	je	SHORT $LN3@CASE_MAYBE@6
	mov	eax, DWORD PTR _ptr$[ebp]
	movzx	ecx, BYTE PTR [eax+216]
	push	ecx
	mov	ecx, DWORD PTR _ptr$[ebp]
	call	?PutChar@Scanner@@QAEXD@Z		; Scanner::PutChar
$LN3@CASE_MAYBE@6:
; Line 461
	push	OFFSET ??_C@_01MNNFJEPP@?$DM?$AA@
	mov	eax, DWORD PTR _ptr$[ebp]
	add	eax, 272				; 00000110H
	push	eax
	call	??$?8DU?$char_traits@D@std@@V?$allocator@D@1@@std@@YA_NABV?$basic_string@DU?$char_traits@D@std@@V?$allocator@D@2@@0@PBD@Z ; std::operator==<char,std::char_traits<char>,std::allocator<char> >
	add	esp, 8
	movzx	ecx, al
	test	ecx, ecx
	je	SHORT $LN2@CASE_MAYBE@6
; Line 462
	mov	eax, DWORD PTR _ptr$[ebp]
	add	eax, 272				; 00000110H
	push	eax
	push	17					; 00000011H
	mov	ecx, DWORD PTR _ptr$[ebp]
	call	?MakeToken@Scanner@@QAEXW4TokenType@@ABV?$basic_string@DU?$char_traits@D@std@@V?$allocator@D@2@@std@@@Z ; Scanner::MakeToken
$LN2@CASE_MAYBE@6:
; Line 463
	push	OFFSET ??_C@_02EHCHHCKH@?$DM?$DN?$AA@
	mov	eax, DWORD PTR _ptr$[ebp]
	add	eax, 272				; 00000110H
	push	eax
	call	??$?8DU?$char_traits@D@std@@V?$allocator@D@1@@std@@YA_NABV?$basic_string@DU?$char_traits@D@std@@V?$allocator@D@2@@0@PBD@Z ; std::operator==<char,std::char_traits<char>,std::allocator<char> >
	add	esp, 8
	movzx	ecx, al
	test	ecx, ecx
	je	SHORT $LN1@CASE_MAYBE@6
; Line 464
	mov	eax, DWORD PTR _ptr$[ebp]
	add	eax, 272				; 00000110H
	push	eax
	push	18					; 00000012H
	mov	ecx, DWORD PTR _ptr$[ebp]
	call	?MakeToken@Scanner@@QAEXW4TokenType@@ABV?$basic_string@DU?$char_traits@D@std@@V?$allocator@D@2@@std@@@Z ; Scanner::MakeToken
$LN1@CASE_MAYBE@6:
; Line 465
	mov	eax, 1
	jmp	SHORT $LN8@CASE_MAYBE@6
$LN5@CASE_MAYBE@6:
; Line 467
	mov	eax, DWORD PTR _ptr$[ebp]
	mov	ecx, DWORD PTR [eax+220]
	add	ecx, 1
	mov	edx, DWORD PTR _ptr$[ebp]
	mov	DWORD PTR [edx+220], ecx
; Line 469
	xor	eax, eax
$LN8@CASE_MAYBE@6:
; Line 470
	pop	edi
	pop	esi
	pop	ebx
	add	esp, 192				; 000000c0H
	cmp	ebp, esp
	call	__RTC_CheckEsp
	mov	esp, ebp
	pop	ebp
	ret	0
?CASE_MAYBE_SHL_FUNC@@YAHQAVScanner@@@Z ENDP		; CASE_MAYBE_SHL_FUNC
_TEXT	ENDS
PUBLIC	??_C@_02EEKDKGMJ@?$DO?$DN?$AA@			; `string'
PUBLIC	??_C@_01PPODPGHN@?$DO?$AA@			; `string'
PUBLIC	?CASE_MAYBE_SHR_FUNC@@YAHQAVScanner@@@Z		; CASE_MAYBE_SHR_FUNC
;	COMDAT ??_C@_02EEKDKGMJ@?$DO?$DN?$AA@
CONST	SEGMENT
??_C@_02EEKDKGMJ@?$DO?$DN?$AA@ DB '>=', 00H		; `string'
CONST	ENDS
;	COMDAT ??_C@_01PPODPGHN@?$DO?$AA@
CONST	SEGMENT
??_C@_01PPODPGHN@?$DO?$AA@ DB '>', 00H			; `string'
; Function compile flags: /Odtp /RTCsu /ZI
CONST	ENDS
;	COMDAT ?CASE_MAYBE_SHR_FUNC@@YAHQAVScanner@@@Z
_TEXT	SEGMENT
_ptr$ = 8						; size = 4
?CASE_MAYBE_SHR_FUNC@@YAHQAVScanner@@@Z PROC		; CASE_MAYBE_SHR_FUNC, COMDAT
; Line 473
	push	ebp
	mov	ebp, esp
	sub	esp, 192				; 000000c0H
	push	ebx
	push	esi
	push	edi
	lea	edi, DWORD PTR [ebp-192]
	mov	ecx, 48					; 00000030H
	mov	eax, -858993460				; ccccccccH
	rep stosd
; Line 475
	mov	eax, DWORD PTR _ptr$[ebp]
	cmp	DWORD PTR [eax+220], 1
	jne	SHORT $LN7@CASE_MAYBE@7
; Line 477
	mov	ecx, DWORD PTR _ptr$[ebp]
	call	?isEof@Scanner@@QAE_NXZ			; Scanner::isEof
	movzx	eax, al
	test	eax, eax
	jne	SHORT $LN6@CASE_MAYBE@7
	mov	eax, DWORD PTR _ptr$[ebp]
	movsx	ecx, BYTE PTR [eax+216]
	cmp	ecx, 10					; 0000000aH
	je	SHORT $LN6@CASE_MAYBE@7
	mov	eax, DWORD PTR _ptr$[ebp]
	movzx	ecx, BYTE PTR [eax+216]
	push	ecx
	mov	ecx, DWORD PTR _ptr$[ebp]
	call	?PutChar@Scanner@@QAEXD@Z		; Scanner::PutChar
$LN6@CASE_MAYBE@7:
; Line 478
	mov	eax, DWORD PTR _ptr$[ebp]
	add	eax, 272				; 00000110H
	push	eax
	push	16					; 00000010H
	mov	ecx, DWORD PTR _ptr$[ebp]
	call	?MakeToken@Scanner@@QAEXW4TokenType@@ABV?$basic_string@DU?$char_traits@D@std@@V?$allocator@D@2@@std@@@Z ; Scanner::MakeToken
; Line 479
	mov	eax, 1
	jmp	$LN8@CASE_MAYBE@7
$LN7@CASE_MAYBE@7:
; Line 482
	mov	ecx, DWORD PTR _ptr$[ebp]
	call	?isEof@Scanner@@QAE_NXZ			; Scanner::isEof
	movzx	eax, al
	test	eax, eax
	jne	SHORT $LN4@CASE_MAYBE@7
	mov	eax, DWORD PTR _ptr$[ebp]
	movsx	ecx, BYTE PTR [eax+216]
	cmp	ecx, 62					; 0000003eH
	je	$LN5@CASE_MAYBE@7
	mov	eax, DWORD PTR _ptr$[ebp]
	movsx	ecx, BYTE PTR [eax+216]
	cmp	ecx, 61					; 0000003dH
	je	$LN5@CASE_MAYBE@7
$LN4@CASE_MAYBE@7:
; Line 484
	mov	ecx, DWORD PTR _ptr$[ebp]
	call	?isEof@Scanner@@QAE_NXZ			; Scanner::isEof
	movzx	eax, al
	test	eax, eax
	jne	SHORT $LN3@CASE_MAYBE@7
	mov	eax, DWORD PTR _ptr$[ebp]
	movsx	ecx, BYTE PTR [eax+216]
	cmp	ecx, 10					; 0000000aH
	je	SHORT $LN3@CASE_MAYBE@7
	mov	eax, DWORD PTR _ptr$[ebp]
	movzx	ecx, BYTE PTR [eax+216]
	push	ecx
	mov	ecx, DWORD PTR _ptr$[ebp]
	call	?PutChar@Scanner@@QAEXD@Z		; Scanner::PutChar
$LN3@CASE_MAYBE@7:
; Line 486
	push	OFFSET ??_C@_01PPODPGHN@?$DO?$AA@
	mov	eax, DWORD PTR _ptr$[ebp]
	add	eax, 272				; 00000110H
	push	eax
	call	??$?8DU?$char_traits@D@std@@V?$allocator@D@1@@std@@YA_NABV?$basic_string@DU?$char_traits@D@std@@V?$allocator@D@2@@0@PBD@Z ; std::operator==<char,std::char_traits<char>,std::allocator<char> >
	add	esp, 8
	movzx	ecx, al
	test	ecx, ecx
	je	SHORT $LN2@CASE_MAYBE@7
; Line 487
	mov	eax, DWORD PTR _ptr$[ebp]
	add	eax, 272				; 00000110H
	push	eax
	push	19					; 00000013H
	mov	ecx, DWORD PTR _ptr$[ebp]
	call	?MakeToken@Scanner@@QAEXW4TokenType@@ABV?$basic_string@DU?$char_traits@D@std@@V?$allocator@D@2@@std@@@Z ; Scanner::MakeToken
$LN2@CASE_MAYBE@7:
; Line 488
	push	OFFSET ??_C@_02EEKDKGMJ@?$DO?$DN?$AA@
	mov	eax, DWORD PTR _ptr$[ebp]
	add	eax, 272				; 00000110H
	push	eax
	call	??$?8DU?$char_traits@D@std@@V?$allocator@D@1@@std@@YA_NABV?$basic_string@DU?$char_traits@D@std@@V?$allocator@D@2@@0@PBD@Z ; std::operator==<char,std::char_traits<char>,std::allocator<char> >
	add	esp, 8
	movzx	ecx, al
	test	ecx, ecx
	je	SHORT $LN1@CASE_MAYBE@7
; Line 489
	mov	eax, DWORD PTR _ptr$[ebp]
	add	eax, 272				; 00000110H
	push	eax
	push	20					; 00000014H
	mov	ecx, DWORD PTR _ptr$[ebp]
	call	?MakeToken@Scanner@@QAEXW4TokenType@@ABV?$basic_string@DU?$char_traits@D@std@@V?$allocator@D@2@@std@@@Z ; Scanner::MakeToken
$LN1@CASE_MAYBE@7:
; Line 490
	mov	eax, 1
	jmp	SHORT $LN8@CASE_MAYBE@7
$LN5@CASE_MAYBE@7:
; Line 492
	mov	eax, DWORD PTR _ptr$[ebp]
	mov	ecx, DWORD PTR [eax+220]
	add	ecx, 1
	mov	edx, DWORD PTR _ptr$[ebp]
	mov	DWORD PTR [edx+220], ecx
; Line 494
	xor	eax, eax
$LN8@CASE_MAYBE@7:
; Line 495
	pop	edi
	pop	esi
	pop	ebx
	add	esp, 192				; 000000c0H
	cmp	ebp, esp
	call	__RTC_CheckEsp
	mov	esp, ebp
	pop	ebp
	ret	0
?CASE_MAYBE_SHR_FUNC@@YAHQAVScanner@@@Z ENDP		; CASE_MAYBE_SHR_FUNC
_TEXT	ENDS
PUBLIC	?CASE_MAYBE_NOT_EQUAL_FUNC@@YAHQAVScanner@@@Z	; CASE_MAYBE_NOT_EQUAL_FUNC
; Function compile flags: /Odtp /RTCsu /ZI
;	COMDAT ?CASE_MAYBE_NOT_EQUAL_FUNC@@YAHQAVScanner@@@Z
_TEXT	SEGMENT
_ptr$ = 8						; size = 4
?CASE_MAYBE_NOT_EQUAL_FUNC@@YAHQAVScanner@@@Z PROC	; CASE_MAYBE_NOT_EQUAL_FUNC, COMDAT
; Line 498
	push	ebp
	mov	ebp, esp
	sub	esp, 192				; 000000c0H
	push	ebx
	push	esi
	push	edi
	lea	edi, DWORD PTR [ebp-192]
	mov	ecx, 48					; 00000030H
	mov	eax, -858993460				; ccccccccH
	rep stosd
; Line 499
	mov	eax, DWORD PTR _ptr$[ebp]
	cmp	DWORD PTR [eax+220], 1
	jne	SHORT $LN5@CASE_MAYBE@8
; Line 501
	mov	ecx, DWORD PTR _ptr$[ebp]
	call	?isEof@Scanner@@QAE_NXZ			; Scanner::isEof
	movzx	eax, al
	test	eax, eax
	jne	SHORT $LN4@CASE_MAYBE@8
	mov	eax, DWORD PTR _ptr$[ebp]
	movsx	ecx, BYTE PTR [eax+216]
	cmp	ecx, 10					; 0000000aH
	je	SHORT $LN4@CASE_MAYBE@8
	mov	eax, DWORD PTR _ptr$[ebp]
	movzx	ecx, BYTE PTR [eax+216]
	push	ecx
	mov	ecx, DWORD PTR _ptr$[ebp]
	call	?PutChar@Scanner@@QAEXD@Z		; Scanner::PutChar
$LN4@CASE_MAYBE@8:
; Line 502
	mov	eax, DWORD PTR _ptr$[ebp]
	add	eax, 272				; 00000110H
	push	eax
	push	22					; 00000016H
	mov	ecx, DWORD PTR _ptr$[ebp]
	call	?MakeToken@Scanner@@QAEXW4TokenType@@ABV?$basic_string@DU?$char_traits@D@std@@V?$allocator@D@2@@std@@@Z ; Scanner::MakeToken
; Line 503
	mov	eax, 1
	jmp	$LN6@CASE_MAYBE@8
$LN5@CASE_MAYBE@8:
; Line 506
	mov	ecx, DWORD PTR _ptr$[ebp]
	call	?isEof@Scanner@@QAE_NXZ			; Scanner::isEof
	movzx	eax, al
	test	eax, eax
	jne	SHORT $LN2@CASE_MAYBE@8
	mov	eax, DWORD PTR _ptr$[ebp]
	movsx	ecx, BYTE PTR [eax+216]
	cmp	ecx, 61					; 0000003dH
	je	SHORT $LN3@CASE_MAYBE@8
$LN2@CASE_MAYBE@8:
; Line 508
	mov	ecx, DWORD PTR _ptr$[ebp]
	call	?isEof@Scanner@@QAE_NXZ			; Scanner::isEof
	movzx	eax, al
	test	eax, eax
	jne	SHORT $LN1@CASE_MAYBE@8
	mov	eax, DWORD PTR _ptr$[ebp]
	movsx	ecx, BYTE PTR [eax+216]
	cmp	ecx, 10					; 0000000aH
	je	SHORT $LN1@CASE_MAYBE@8
	mov	eax, DWORD PTR _ptr$[ebp]
	movzx	ecx, BYTE PTR [eax+216]
	push	ecx
	mov	ecx, DWORD PTR _ptr$[ebp]
	call	?PutChar@Scanner@@QAEXD@Z		; Scanner::PutChar
$LN1@CASE_MAYBE@8:
; Line 509
	mov	eax, DWORD PTR _ptr$[ebp]
	add	eax, 272				; 00000110H
	push	eax
	push	5
	mov	ecx, DWORD PTR _ptr$[ebp]
	call	?MakeToken@Scanner@@QAEXW4TokenType@@ABV?$basic_string@DU?$char_traits@D@std@@V?$allocator@D@2@@std@@@Z ; Scanner::MakeToken
; Line 510
	mov	eax, 1
	jmp	SHORT $LN6@CASE_MAYBE@8
$LN3@CASE_MAYBE@8:
; Line 512
	mov	eax, DWORD PTR _ptr$[ebp]
	mov	ecx, DWORD PTR [eax+220]
	add	ecx, 1
	mov	edx, DWORD PTR _ptr$[ebp]
	mov	DWORD PTR [edx+220], ecx
; Line 514
	xor	eax, eax
$LN6@CASE_MAYBE@8:
; Line 515
	pop	edi
	pop	esi
	pop	ebx
	add	esp, 192				; 000000c0H
	cmp	ebp, esp
	call	__RTC_CheckEsp
	mov	esp, ebp
	pop	ebp
	ret	0
?CASE_MAYBE_NOT_EQUAL_FUNC@@YAHQAVScanner@@@Z ENDP	; CASE_MAYBE_NOT_EQUAL_FUNC
_TEXT	ENDS
PUBLIC	?CASE_MUL_FUNC@@YAHQAVScanner@@@Z		; CASE_MUL_FUNC
; Function compile flags: /Odtp /RTCsu /ZI
;	COMDAT ?CASE_MUL_FUNC@@YAHQAVScanner@@@Z
_TEXT	SEGMENT
_ptr$ = 8						; size = 4
?CASE_MUL_FUNC@@YAHQAVScanner@@@Z PROC			; CASE_MUL_FUNC, COMDAT
; Line 518
	push	ebp
	mov	ebp, esp
	sub	esp, 192				; 000000c0H
	push	ebx
	push	esi
	push	edi
	lea	edi, DWORD PTR [ebp-192]
	mov	ecx, 48					; 00000030H
	mov	eax, -858993460				; ccccccccH
	rep stosd
; Line 519
	mov	eax, DWORD PTR _ptr$[ebp]
	cmp	DWORD PTR [eax+220], 1
	jne	SHORT $LN5@CASE_MUL_F
; Line 521
	mov	ecx, DWORD PTR _ptr$[ebp]
	call	?isEof@Scanner@@QAE_NXZ			; Scanner::isEof
	movzx	eax, al
	test	eax, eax
	jne	SHORT $LN4@CASE_MUL_F
	mov	eax, DWORD PTR _ptr$[ebp]
	movsx	ecx, BYTE PTR [eax+216]
	cmp	ecx, 10					; 0000000aH
	je	SHORT $LN4@CASE_MUL_F
	mov	eax, DWORD PTR _ptr$[ebp]
	movzx	ecx, BYTE PTR [eax+216]
	push	ecx
	mov	ecx, DWORD PTR _ptr$[ebp]
	call	?PutChar@Scanner@@QAEXD@Z		; Scanner::PutChar
$LN4@CASE_MUL_F:
; Line 522
	mov	eax, DWORD PTR _ptr$[ebp]
	add	eax, 272				; 00000110H
	push	eax
	push	5
	mov	ecx, DWORD PTR _ptr$[ebp]
	call	?MakeToken@Scanner@@QAEXW4TokenType@@ABV?$basic_string@DU?$char_traits@D@std@@V?$allocator@D@2@@std@@@Z ; Scanner::MakeToken
; Line 523
	mov	eax, 1
	jmp	$LN6@CASE_MUL_F
$LN5@CASE_MUL_F:
; Line 526
	mov	ecx, DWORD PTR _ptr$[ebp]
	call	?isEof@Scanner@@QAE_NXZ			; Scanner::isEof
	movzx	eax, al
	test	eax, eax
	jne	SHORT $LN2@CASE_MUL_F
	mov	eax, DWORD PTR _ptr$[ebp]
	movsx	ecx, BYTE PTR [eax+216]
	cmp	ecx, 61					; 0000003dH
	je	SHORT $LN3@CASE_MUL_F
$LN2@CASE_MUL_F:
; Line 528
	mov	ecx, DWORD PTR _ptr$[ebp]
	call	?isEof@Scanner@@QAE_NXZ			; Scanner::isEof
	movzx	eax, al
	test	eax, eax
	jne	SHORT $LN1@CASE_MUL_F
	mov	eax, DWORD PTR _ptr$[ebp]
	movsx	ecx, BYTE PTR [eax+216]
	cmp	ecx, 10					; 0000000aH
	je	SHORT $LN1@CASE_MUL_F
	mov	eax, DWORD PTR _ptr$[ebp]
	movzx	ecx, BYTE PTR [eax+216]
	push	ecx
	mov	ecx, DWORD PTR _ptr$[ebp]
	call	?PutChar@Scanner@@QAEXD@Z		; Scanner::PutChar
$LN1@CASE_MUL_F:
; Line 529
	mov	eax, DWORD PTR _ptr$[ebp]
	add	eax, 272				; 00000110H
	push	eax
	push	11					; 0000000bH
	mov	ecx, DWORD PTR _ptr$[ebp]
	call	?MakeToken@Scanner@@QAEXW4TokenType@@ABV?$basic_string@DU?$char_traits@D@std@@V?$allocator@D@2@@std@@@Z ; Scanner::MakeToken
; Line 530
	mov	eax, 1
	jmp	SHORT $LN6@CASE_MUL_F
$LN3@CASE_MUL_F:
; Line 532
	mov	eax, DWORD PTR _ptr$[ebp]
	mov	ecx, DWORD PTR [eax+220]
	add	ecx, 1
	mov	edx, DWORD PTR _ptr$[ebp]
	mov	DWORD PTR [edx+220], ecx
; Line 534
	xor	eax, eax
$LN6@CASE_MUL_F:
; Line 535
	pop	edi
	pop	esi
	pop	ebx
	add	esp, 192				; 000000c0H
	cmp	ebp, esp
	call	__RTC_CheckEsp
	mov	esp, ebp
	pop	ebp
	ret	0
?CASE_MUL_FUNC@@YAHQAVScanner@@@Z ENDP			; CASE_MUL_FUNC
_TEXT	ENDS
PUBLIC	?CASE_CIRCUMFLEX_FUNC@@YAHQAVScanner@@@Z	; CASE_CIRCUMFLEX_FUNC
; Function compile flags: /Odtp /RTCsu /ZI
;	COMDAT ?CASE_CIRCUMFLEX_FUNC@@YAHQAVScanner@@@Z
_TEXT	SEGMENT
_ptr$ = 8						; size = 4
?CASE_CIRCUMFLEX_FUNC@@YAHQAVScanner@@@Z PROC		; CASE_CIRCUMFLEX_FUNC, COMDAT
; Line 538
	push	ebp
	mov	ebp, esp
	sub	esp, 192				; 000000c0H
	push	ebx
	push	esi
	push	edi
	lea	edi, DWORD PTR [ebp-192]
	mov	ecx, 48					; 00000030H
	mov	eax, -858993460				; ccccccccH
	rep stosd
; Line 539
	mov	eax, DWORD PTR _ptr$[ebp]
	cmp	DWORD PTR [eax+220], 1
	jne	SHORT $LN5@CASE_CIRCU
; Line 541
	mov	ecx, DWORD PTR _ptr$[ebp]
	call	?isEof@Scanner@@QAE_NXZ			; Scanner::isEof
	movzx	eax, al
	test	eax, eax
	jne	SHORT $LN4@CASE_CIRCU
	mov	eax, DWORD PTR _ptr$[ebp]
	movsx	ecx, BYTE PTR [eax+216]
	cmp	ecx, 10					; 0000000aH
	je	SHORT $LN4@CASE_CIRCU
	mov	eax, DWORD PTR _ptr$[ebp]
	movzx	ecx, BYTE PTR [eax+216]
	push	ecx
	mov	ecx, DWORD PTR _ptr$[ebp]
	call	?PutChar@Scanner@@QAEXD@Z		; Scanner::PutChar
$LN4@CASE_CIRCU:
; Line 542
	mov	eax, DWORD PTR _ptr$[ebp]
	add	eax, 272				; 00000110H
	push	eax
	push	21					; 00000015H
	mov	ecx, DWORD PTR _ptr$[ebp]
	call	?MakeToken@Scanner@@QAEXW4TokenType@@ABV?$basic_string@DU?$char_traits@D@std@@V?$allocator@D@2@@std@@@Z ; Scanner::MakeToken
; Line 543
	mov	eax, 1
	jmp	$LN6@CASE_CIRCU
$LN5@CASE_CIRCU:
; Line 546
	mov	ecx, DWORD PTR _ptr$[ebp]
	call	?isEof@Scanner@@QAE_NXZ			; Scanner::isEof
	movzx	eax, al
	test	eax, eax
	jne	SHORT $LN2@CASE_CIRCU
	mov	eax, DWORD PTR _ptr$[ebp]
	movsx	ecx, BYTE PTR [eax+216]
	cmp	ecx, 61					; 0000003dH
	je	SHORT $LN3@CASE_CIRCU
$LN2@CASE_CIRCU:
; Line 548
	mov	ecx, DWORD PTR _ptr$[ebp]
	call	?isEof@Scanner@@QAE_NXZ			; Scanner::isEof
	movzx	eax, al
	test	eax, eax
	jne	SHORT $LN1@CASE_CIRCU
	mov	eax, DWORD PTR _ptr$[ebp]
	movsx	ecx, BYTE PTR [eax+216]
	cmp	ecx, 10					; 0000000aH
	je	SHORT $LN1@CASE_CIRCU
	mov	eax, DWORD PTR _ptr$[ebp]
	movzx	ecx, BYTE PTR [eax+216]
	push	ecx
	mov	ecx, DWORD PTR _ptr$[ebp]
	call	?PutChar@Scanner@@QAEXD@Z		; Scanner::PutChar
$LN1@CASE_CIRCU:
; Line 549
	mov	eax, DWORD PTR _ptr$[ebp]
	add	eax, 272				; 00000110H
	push	eax
	push	24					; 00000018H
	mov	ecx, DWORD PTR _ptr$[ebp]
	call	?MakeToken@Scanner@@QAEXW4TokenType@@ABV?$basic_string@DU?$char_traits@D@std@@V?$allocator@D@2@@std@@@Z ; Scanner::MakeToken
; Line 550
	mov	eax, 1
	jmp	SHORT $LN6@CASE_CIRCU
$LN3@CASE_CIRCU:
; Line 552
	mov	eax, DWORD PTR _ptr$[ebp]
	mov	ecx, DWORD PTR [eax+220]
	add	ecx, 1
	mov	edx, DWORD PTR _ptr$[ebp]
	mov	DWORD PTR [edx+220], ecx
; Line 554
	xor	eax, eax
$LN6@CASE_CIRCU:
; Line 555
	pop	edi
	pop	esi
	pop	ebx
	add	esp, 192				; 000000c0H
	cmp	ebp, esp
	call	__RTC_CheckEsp
	mov	esp, ebp
	pop	ebp
	ret	0
?CASE_CIRCUMFLEX_FUNC@@YAHQAVScanner@@@Z ENDP		; CASE_CIRCUMFLEX_FUNC
_TEXT	ENDS
PUBLIC	?CASE_OPEN_BRACKET_FUNC@@YAHQAVScanner@@@Z	; CASE_OPEN_BRACKET_FUNC
; Function compile flags: /Odtp /RTCsu /ZI
;	COMDAT ?CASE_OPEN_BRACKET_FUNC@@YAHQAVScanner@@@Z
_TEXT	SEGMENT
_ptr$ = 8						; size = 4
?CASE_OPEN_BRACKET_FUNC@@YAHQAVScanner@@@Z PROC		; CASE_OPEN_BRACKET_FUNC, COMDAT
; Line 558
	push	ebp
	mov	ebp, esp
	sub	esp, 192				; 000000c0H
	push	ebx
	push	esi
	push	edi
	lea	edi, DWORD PTR [ebp-192]
	mov	ecx, 48					; 00000030H
	mov	eax, -858993460				; ccccccccH
	rep stosd
; Line 559
	mov	ecx, DWORD PTR _ptr$[ebp]
	call	?isEof@Scanner@@QAE_NXZ			; Scanner::isEof
	movzx	eax, al
	test	eax, eax
	jne	SHORT $LN1@CASE_OPEN_
	mov	eax, DWORD PTR _ptr$[ebp]
	movsx	ecx, BYTE PTR [eax+216]
	cmp	ecx, 10					; 0000000aH
	je	SHORT $LN1@CASE_OPEN_
	mov	eax, DWORD PTR _ptr$[ebp]
	movzx	ecx, BYTE PTR [eax+216]
	push	ecx
	mov	ecx, DWORD PTR _ptr$[ebp]
	call	?PutChar@Scanner@@QAEXD@Z		; Scanner::PutChar
$LN1@CASE_OPEN_:
; Line 560
	mov	eax, DWORD PTR _ptr$[ebp]
	add	eax, 272				; 00000110H
	push	eax
	push	13					; 0000000dH
	mov	ecx, DWORD PTR _ptr$[ebp]
	call	?MakeToken@Scanner@@QAEXW4TokenType@@ABV?$basic_string@DU?$char_traits@D@std@@V?$allocator@D@2@@std@@@Z ; Scanner::MakeToken
; Line 562
	mov	eax, 1
; Line 563
	pop	edi
	pop	esi
	pop	ebx
	add	esp, 192				; 000000c0H
	cmp	ebp, esp
	call	__RTC_CheckEsp
	mov	esp, ebp
	pop	ebp
	ret	0
?CASE_OPEN_BRACKET_FUNC@@YAHQAVScanner@@@Z ENDP		; CASE_OPEN_BRACKET_FUNC
_TEXT	ENDS
PUBLIC	?CASE_CLOSING_BRACKET_FUNC@@YAHQAVScanner@@@Z	; CASE_CLOSING_BRACKET_FUNC
; Function compile flags: /Odtp /RTCsu /ZI
;	COMDAT ?CASE_CLOSING_BRACKET_FUNC@@YAHQAVScanner@@@Z
_TEXT	SEGMENT
_ptr$ = 8						; size = 4
?CASE_CLOSING_BRACKET_FUNC@@YAHQAVScanner@@@Z PROC	; CASE_CLOSING_BRACKET_FUNC, COMDAT
; Line 566
	push	ebp
	mov	ebp, esp
	sub	esp, 192				; 000000c0H
	push	ebx
	push	esi
	push	edi
	lea	edi, DWORD PTR [ebp-192]
	mov	ecx, 48					; 00000030H
	mov	eax, -858993460				; ccccccccH
	rep stosd
; Line 567
	mov	ecx, DWORD PTR _ptr$[ebp]
	call	?isEof@Scanner@@QAE_NXZ			; Scanner::isEof
	movzx	eax, al
	test	eax, eax
	jne	SHORT $LN1@CASE_CLOSI
	mov	eax, DWORD PTR _ptr$[ebp]
	movsx	ecx, BYTE PTR [eax+216]
	cmp	ecx, 10					; 0000000aH
	je	SHORT $LN1@CASE_CLOSI
	mov	eax, DWORD PTR _ptr$[ebp]
	movzx	ecx, BYTE PTR [eax+216]
	push	ecx
	mov	ecx, DWORD PTR _ptr$[ebp]
	call	?PutChar@Scanner@@QAEXD@Z		; Scanner::PutChar
$LN1@CASE_CLOSI:
; Line 568
	mov	eax, DWORD PTR _ptr$[ebp]
	add	eax, 272				; 00000110H
	push	eax
	push	14					; 0000000eH
	mov	ecx, DWORD PTR _ptr$[ebp]
	call	?MakeToken@Scanner@@QAEXW4TokenType@@ABV?$basic_string@DU?$char_traits@D@std@@V?$allocator@D@2@@std@@@Z ; Scanner::MakeToken
; Line 570
	mov	eax, 1
; Line 571
	pop	edi
	pop	esi
	pop	ebx
	add	esp, 192				; 000000c0H
	cmp	ebp, esp
	call	__RTC_CheckEsp
	mov	esp, ebp
	pop	ebp
	ret	0
?CASE_CLOSING_BRACKET_FUNC@@YAHQAVScanner@@@Z ENDP	; CASE_CLOSING_BRACKET_FUNC
_TEXT	ENDS
PUBLIC	?CASE_OPEN_SQUARE_BRACKET_FUNC@@YAHQAVScanner@@@Z ; CASE_OPEN_SQUARE_BRACKET_FUNC
; Function compile flags: /Odtp /RTCsu /ZI
;	COMDAT ?CASE_OPEN_SQUARE_BRACKET_FUNC@@YAHQAVScanner@@@Z
_TEXT	SEGMENT
_ptr$ = 8						; size = 4
?CASE_OPEN_SQUARE_BRACKET_FUNC@@YAHQAVScanner@@@Z PROC	; CASE_OPEN_SQUARE_BRACKET_FUNC, COMDAT
; Line 574
	push	ebp
	mov	ebp, esp
	sub	esp, 192				; 000000c0H
	push	ebx
	push	esi
	push	edi
	lea	edi, DWORD PTR [ebp-192]
	mov	ecx, 48					; 00000030H
	mov	eax, -858993460				; ccccccccH
	rep stosd
; Line 575
	mov	ecx, DWORD PTR _ptr$[ebp]
	call	?isEof@Scanner@@QAE_NXZ			; Scanner::isEof
	movzx	eax, al
	test	eax, eax
	jne	SHORT $LN1@CASE_OPEN_@2
	mov	eax, DWORD PTR _ptr$[ebp]
	movsx	ecx, BYTE PTR [eax+216]
	cmp	ecx, 10					; 0000000aH
	je	SHORT $LN1@CASE_OPEN_@2
	mov	eax, DWORD PTR _ptr$[ebp]
	movzx	ecx, BYTE PTR [eax+216]
	push	ecx
	mov	ecx, DWORD PTR _ptr$[ebp]
	call	?PutChar@Scanner@@QAEXD@Z		; Scanner::PutChar
$LN1@CASE_OPEN_@2:
; Line 576
	mov	eax, DWORD PTR _ptr$[ebp]
	add	eax, 272				; 00000110H
	push	eax
	push	28					; 0000001cH
	mov	ecx, DWORD PTR _ptr$[ebp]
	call	?MakeToken@Scanner@@QAEXW4TokenType@@ABV?$basic_string@DU?$char_traits@D@std@@V?$allocator@D@2@@std@@@Z ; Scanner::MakeToken
; Line 578
	mov	eax, 1
; Line 579
	pop	edi
	pop	esi
	pop	ebx
	add	esp, 192				; 000000c0H
	cmp	ebp, esp
	call	__RTC_CheckEsp
	mov	esp, ebp
	pop	ebp
	ret	0
?CASE_OPEN_SQUARE_BRACKET_FUNC@@YAHQAVScanner@@@Z ENDP	; CASE_OPEN_SQUARE_BRACKET_FUNC
_TEXT	ENDS
PUBLIC	?CASE_CLOSING_SQUARE_BRACKET_FUNC@@YAHQAVScanner@@@Z ; CASE_CLOSING_SQUARE_BRACKET_FUNC
; Function compile flags: /Odtp /RTCsu /ZI
;	COMDAT ?CASE_CLOSING_SQUARE_BRACKET_FUNC@@YAHQAVScanner@@@Z
_TEXT	SEGMENT
_ptr$ = 8						; size = 4
?CASE_CLOSING_SQUARE_BRACKET_FUNC@@YAHQAVScanner@@@Z PROC ; CASE_CLOSING_SQUARE_BRACKET_FUNC, COMDAT
; Line 582
	push	ebp
	mov	ebp, esp
	sub	esp, 192				; 000000c0H
	push	ebx
	push	esi
	push	edi
	lea	edi, DWORD PTR [ebp-192]
	mov	ecx, 48					; 00000030H
	mov	eax, -858993460				; ccccccccH
	rep stosd
; Line 583
	mov	ecx, DWORD PTR _ptr$[ebp]
	call	?isEof@Scanner@@QAE_NXZ			; Scanner::isEof
	movzx	eax, al
	test	eax, eax
	jne	SHORT $LN1@CASE_CLOSI@2
	mov	eax, DWORD PTR _ptr$[ebp]
	movsx	ecx, BYTE PTR [eax+216]
	cmp	ecx, 10					; 0000000aH
	je	SHORT $LN1@CASE_CLOSI@2
	mov	eax, DWORD PTR _ptr$[ebp]
	movzx	ecx, BYTE PTR [eax+216]
	push	ecx
	mov	ecx, DWORD PTR _ptr$[ebp]
	call	?PutChar@Scanner@@QAEXD@Z		; Scanner::PutChar
$LN1@CASE_CLOSI@2:
; Line 584
	mov	eax, DWORD PTR _ptr$[ebp]
	add	eax, 272				; 00000110H
	push	eax
	push	29					; 0000001dH
	mov	ecx, DWORD PTR _ptr$[ebp]
	call	?MakeToken@Scanner@@QAEXW4TokenType@@ABV?$basic_string@DU?$char_traits@D@std@@V?$allocator@D@2@@std@@@Z ; Scanner::MakeToken
; Line 586
	mov	eax, 1
; Line 587
	pop	edi
	pop	esi
	pop	ebx
	add	esp, 192				; 000000c0H
	cmp	ebp, esp
	call	__RTC_CheckEsp
	mov	esp, ebp
	pop	ebp
	ret	0
?CASE_CLOSING_SQUARE_BRACKET_FUNC@@YAHQAVScanner@@@Z ENDP ; CASE_CLOSING_SQUARE_BRACKET_FUNC
_TEXT	ENDS
PUBLIC	?CASE_OPEN_FIGURE_BRACKET_FUNC@@YAHQAVScanner@@@Z ; CASE_OPEN_FIGURE_BRACKET_FUNC
; Function compile flags: /Odtp /RTCsu /ZI
;	COMDAT ?CASE_OPEN_FIGURE_BRACKET_FUNC@@YAHQAVScanner@@@Z
_TEXT	SEGMENT
_ptr$ = 8						; size = 4
?CASE_OPEN_FIGURE_BRACKET_FUNC@@YAHQAVScanner@@@Z PROC	; CASE_OPEN_FIGURE_BRACKET_FUNC, COMDAT
; Line 590
	push	ebp
	mov	ebp, esp
	sub	esp, 192				; 000000c0H
	push	ebx
	push	esi
	push	edi
	lea	edi, DWORD PTR [ebp-192]
	mov	ecx, 48					; 00000030H
	mov	eax, -858993460				; ccccccccH
	rep stosd
; Line 591
	mov	ecx, DWORD PTR _ptr$[ebp]
	call	?isEof@Scanner@@QAE_NXZ			; Scanner::isEof
	movzx	eax, al
	test	eax, eax
	jne	SHORT $LN1@CASE_OPEN_@3
	mov	eax, DWORD PTR _ptr$[ebp]
	movsx	ecx, BYTE PTR [eax+216]
	cmp	ecx, 10					; 0000000aH
	je	SHORT $LN1@CASE_OPEN_@3
	mov	eax, DWORD PTR _ptr$[ebp]
	movzx	ecx, BYTE PTR [eax+216]
	push	ecx
	mov	ecx, DWORD PTR _ptr$[ebp]
	call	?PutChar@Scanner@@QAEXD@Z		; Scanner::PutChar
$LN1@CASE_OPEN_@3:
; Line 592
	mov	eax, DWORD PTR _ptr$[ebp]
	add	eax, 272				; 00000110H
	push	eax
	push	36					; 00000024H
	mov	ecx, DWORD PTR _ptr$[ebp]
	call	?MakeToken@Scanner@@QAEXW4TokenType@@ABV?$basic_string@DU?$char_traits@D@std@@V?$allocator@D@2@@std@@@Z ; Scanner::MakeToken
; Line 594
	mov	eax, 1
; Line 595
	pop	edi
	pop	esi
	pop	ebx
	add	esp, 192				; 000000c0H
	cmp	ebp, esp
	call	__RTC_CheckEsp
	mov	esp, ebp
	pop	ebp
	ret	0
?CASE_OPEN_FIGURE_BRACKET_FUNC@@YAHQAVScanner@@@Z ENDP	; CASE_OPEN_FIGURE_BRACKET_FUNC
_TEXT	ENDS
PUBLIC	?CASE_CLOSING_FIGURE_BRACKET_FUNC@@YAHQAVScanner@@@Z ; CASE_CLOSING_FIGURE_BRACKET_FUNC
; Function compile flags: /Odtp /RTCsu /ZI
;	COMDAT ?CASE_CLOSING_FIGURE_BRACKET_FUNC@@YAHQAVScanner@@@Z
_TEXT	SEGMENT
_ptr$ = 8						; size = 4
?CASE_CLOSING_FIGURE_BRACKET_FUNC@@YAHQAVScanner@@@Z PROC ; CASE_CLOSING_FIGURE_BRACKET_FUNC, COMDAT
; Line 598
	push	ebp
	mov	ebp, esp
	sub	esp, 192				; 000000c0H
	push	ebx
	push	esi
	push	edi
	lea	edi, DWORD PTR [ebp-192]
	mov	ecx, 48					; 00000030H
	mov	eax, -858993460				; ccccccccH
	rep stosd
; Line 599
	mov	ecx, DWORD PTR _ptr$[ebp]
	call	?isEof@Scanner@@QAE_NXZ			; Scanner::isEof
	movzx	eax, al
	test	eax, eax
	jne	SHORT $LN1@CASE_CLOSI@3
	mov	eax, DWORD PTR _ptr$[ebp]
	movsx	ecx, BYTE PTR [eax+216]
	cmp	ecx, 10					; 0000000aH
	je	SHORT $LN1@CASE_CLOSI@3
	mov	eax, DWORD PTR _ptr$[ebp]
	movzx	ecx, BYTE PTR [eax+216]
	push	ecx
	mov	ecx, DWORD PTR _ptr$[ebp]
	call	?PutChar@Scanner@@QAEXD@Z		; Scanner::PutChar
$LN1@CASE_CLOSI@3:
; Line 600
	mov	eax, DWORD PTR _ptr$[ebp]
	add	eax, 272				; 00000110H
	push	eax
	push	37					; 00000025H
	mov	ecx, DWORD PTR _ptr$[ebp]
	call	?MakeToken@Scanner@@QAEXW4TokenType@@ABV?$basic_string@DU?$char_traits@D@std@@V?$allocator@D@2@@std@@@Z ; Scanner::MakeToken
; Line 602
	mov	eax, 1
; Line 603
	pop	edi
	pop	esi
	pop	ebx
	add	esp, 192				; 000000c0H
	cmp	ebp, esp
	call	__RTC_CheckEsp
	mov	esp, ebp
	pop	ebp
	ret	0
?CASE_CLOSING_FIGURE_BRACKET_FUNC@@YAHQAVScanner@@@Z ENDP ; CASE_CLOSING_FIGURE_BRACKET_FUNC
_TEXT	ENDS
PUBLIC	??Y?$basic_string@DU?$char_traits@D@std@@V?$allocator@D@2@@std@@QAEAAV01@D@Z ; std::basic_string<char,std::char_traits<char>,std::allocator<char> >::operator+=
PUBLIC	?pop@?$stack@DV?$deque@DV?$allocator@D@std@@@std@@@std@@QAEXXZ ; std::stack<char,std::deque<char,std::allocator<char> > >::pop
PUBLIC	?top@?$stack@DV?$deque@DV?$allocator@D@std@@@std@@@std@@QAEAADXZ ; std::stack<char,std::deque<char,std::allocator<char> > >::top
PUBLIC	?read@?$basic_istream@DU?$char_traits@D@std@@@std@@QAEAAV12@PAD_J@Z ; std::basic_istream<char,std::char_traits<char> >::read
PUBLIC	?GetChar@Scanner@@QAEDXZ			; Scanner::GetChar
; Function compile flags: /Odtp /RTCsu /ZI
;	COMDAT ?GetChar@Scanner@@QAEDXZ
_TEXT	SEGMENT
_ch$ = -17						; size = 1
_this$ = -8						; size = 4
?GetChar@Scanner@@QAEDXZ PROC				; Scanner::GetChar, COMDAT
; _this$ = ecx
; File c:\users\дмитрий\documents\visual studio 2010\projects\scanner\scanner\scanner.cpp
; Line 7
	push	ebp
	mov	ebp, esp
	sub	esp, 216				; 000000d8H
	push	ebx
	push	esi
	push	edi
	push	ecx
	lea	edi, DWORD PTR [ebp-216]
	mov	ecx, 54					; 00000036H
	mov	eax, -858993460				; ccccccccH
	rep stosd
	pop	ecx
	mov	DWORD PTR _this$[ebp], ecx
; Line 9
	mov	ecx, DWORD PTR _this$[ebp]
	add	ecx, 176				; 000000b0H
	call	?empty@?$stack@DV?$deque@DV?$allocator@D@std@@@std@@@std@@QBE_NXZ ; std::stack<char,std::deque<char,std::allocator<char> > >::empty
	movzx	eax, al
	test	eax, eax
	je	SHORT $LN5@GetChar
; Line 11
	push	0
	push	1
	lea	eax, DWORD PTR _ch$[ebp]
	push	eax
	mov	ecx, DWORD PTR _this$[ebp]
	call	?read@?$basic_istream@DU?$char_traits@D@std@@@std@@QAEAAV12@PAD_J@Z ; std::basic_istream<char,std::char_traits<char> >::read
; Line 12
	movzx	eax, BYTE PTR _ch$[ebp]
	push	eax
	call	?isEol@@YA_ND@Z				; isEol
	add	esp, 4
	movzx	ecx, al
	test	ecx, ecx
	je	SHORT $LN4@GetChar
; Line 14
	mov	eax, DWORD PTR _this$[ebp]
	mov	ecx, DWORD PTR [eax+200]
	add	ecx, 1
	mov	edx, DWORD PTR _this$[ebp]
	mov	DWORD PTR [edx+200], ecx
; Line 15
	mov	eax, DWORD PTR _this$[ebp]
	mov	DWORD PTR [eax+204], 1
; Line 16
	mov	al, 10					; 0000000aH
	jmp	SHORT $LN6@GetChar
	jmp	SHORT $LN3@GetChar
$LN4@GetChar:
; Line 18
	mov	eax, DWORD PTR _this$[ebp]
	mov	ecx, DWORD PTR [eax+204]
	add	ecx, 1
	mov	edx, DWORD PTR _this$[ebp]
	mov	DWORD PTR [edx+204], ecx
$LN3@GetChar:
; Line 20
	jmp	SHORT $LN2@GetChar
$LN5@GetChar:
; Line 22
	mov	ecx, DWORD PTR _this$[ebp]
	add	ecx, 176				; 000000b0H
	call	?top@?$stack@DV?$deque@DV?$allocator@D@std@@@std@@@std@@QAEAADXZ ; std::stack<char,std::deque<char,std::allocator<char> > >::top
	mov	al, BYTE PTR [eax]
	mov	BYTE PTR _ch$[ebp], al
; Line 23
	mov	ecx, DWORD PTR _this$[ebp]
	add	ecx, 176				; 000000b0H
	call	?pop@?$stack@DV?$deque@DV?$allocator@D@std@@@std@@@std@@QAEXXZ ; std::stack<char,std::deque<char,std::allocator<char> > >::pop
$LN2@GetChar:
; Line 26
	mov	eax, DWORD PTR _this$[ebp]
	mov	ecx, DWORD PTR [eax]
	mov	edx, DWORD PTR _this$[ebp]
	add	edx, DWORD PTR [ecx+4]
	mov	ecx, edx
	call	?eof@ios_base@std@@QBE_NXZ		; std::ios_base::eof
	movzx	eax, al
	test	eax, eax
	je	SHORT $LN1@GetChar
	xor	al, al
	jmp	SHORT $LN6@GetChar
$LN1@GetChar:
; Line 27
	movzx	eax, BYTE PTR _ch$[ebp]
	push	eax
	mov	ecx, DWORD PTR _this$[ebp]
	add	ecx, 272				; 00000110H
	call	??Y?$basic_string@DU?$char_traits@D@std@@V?$allocator@D@2@@std@@QAEAAV01@D@Z ; std::basic_string<char,std::char_traits<char>,std::allocator<char> >::operator+=
; Line 28
	mov	al, BYTE PTR _ch$[ebp]
$LN6@GetChar:
; Line 29
	push	edx
	mov	ecx, ebp
	push	eax
	lea	edx, DWORD PTR $LN10@GetChar
	call	@_RTC_CheckStackVars@8
	pop	eax
	pop	edx
	pop	edi
	pop	esi
	pop	ebx
	add	esp, 216				; 000000d8H
	cmp	ebp, esp
	call	__RTC_CheckEsp
	mov	esp, ebp
	pop	ebp
	ret	0
$LN10@GetChar:
	DD	1
	DD	$LN9@GetChar
$LN9@GetChar:
	DD	-17					; ffffffefH
	DD	1
	DD	$LN8@GetChar
$LN8@GetChar:
	DB	99					; 00000063H
	DB	104					; 00000068H
	DB	0
?GetChar@Scanner@@QAEDXZ ENDP				; Scanner::GetChar
_TEXT	ENDS
PUBLIC	?push@?$stack@DV?$deque@DV?$allocator@D@std@@@std@@@std@@QAEXABD@Z ; std::stack<char,std::deque<char,std::allocator<char> > >::push
PUBLIC	?erase@?$basic_string@DU?$char_traits@D@std@@V?$allocator@D@2@@std@@QAEAAV12@II@Z ; std::basic_string<char,std::char_traits<char>,std::allocator<char> >::erase
PUBLIC	?npos@?$basic_string@DU?$char_traits@D@std@@V?$allocator@D@2@@std@@2IB ; std::basic_string<char,std::char_traits<char>,std::allocator<char> >::npos
;	COMDAT ?npos@?$basic_string@DU?$char_traits@D@std@@V?$allocator@D@2@@std@@2IB
CONST	SEGMENT
?npos@?$basic_string@DU?$char_traits@D@std@@V?$allocator@D@2@@std@@2IB DD 0ffffffffH ; std::basic_string<char,std::char_traits<char>,std::allocator<char> >::npos
; Function compile flags: /Odtp /RTCsu /ZI
CONST	ENDS
;	COMDAT ?PutChar@Scanner@@QAEXD@Z
_TEXT	SEGMENT
_this$ = -8						; size = 4
_ch$ = 8						; size = 1
?PutChar@Scanner@@QAEXD@Z PROC				; Scanner::PutChar, COMDAT
; _this$ = ecx
; Line 34
	push	ebp
	mov	ebp, esp
	sub	esp, 204				; 000000ccH
	push	ebx
	push	esi
	push	edi
	push	ecx
	lea	edi, DWORD PTR [ebp-204]
	mov	ecx, 51					; 00000033H
	mov	eax, -858993460				; ccccccccH
	rep stosd
	pop	ecx
	mov	DWORD PTR _this$[ebp], ecx
; Line 35
	mov	eax, DWORD PTR ?npos@?$basic_string@DU?$char_traits@D@std@@V?$allocator@D@2@@std@@2IB ; std::basic_string<char,std::char_traits<char>,std::allocator<char> >::npos
	push	eax
	mov	ecx, DWORD PTR _this$[ebp]
	add	ecx, 272				; 00000110H
	call	?length@?$basic_string@DU?$char_traits@D@std@@V?$allocator@D@2@@std@@QBEIXZ ; std::basic_string<char,std::char_traits<char>,std::allocator<char> >::length
	sub	eax, 1
	push	eax
	mov	ecx, DWORD PTR _this$[ebp]
	add	ecx, 272				; 00000110H
	call	?erase@?$basic_string@DU?$char_traits@D@std@@V?$allocator@D@2@@std@@QAEAAV12@II@Z ; std::basic_string<char,std::char_traits<char>,std::allocator<char> >::erase
; Line 36
	lea	eax, DWORD PTR _ch$[ebp]
	push	eax
	mov	ecx, DWORD PTR _this$[ebp]
	add	ecx, 176				; 000000b0H
	call	?push@?$stack@DV?$deque@DV?$allocator@D@std@@@std@@@std@@QAEXABD@Z ; std::stack<char,std::deque<char,std::allocator<char> > >::push
; Line 37
	pop	edi
	pop	esi
	pop	ebx
	add	esp, 204				; 000000ccH
	cmp	ebp, esp
	call	__RTC_CheckEsp
	mov	esp, ebp
	pop	ebp
	ret	4
?PutChar@Scanner@@QAEXD@Z ENDP				; Scanner::PutChar
_TEXT	ENDS
PUBLIC	?oct@std@@YAAAVios_base@1@AAV21@@Z		; std::oct
PUBLIC	??_D?$basic_istringstream@DU?$char_traits@D@std@@V?$allocator@D@2@@std@@QAEXXZ ; std::basic_istringstream<char,std::char_traits<char>,std::allocator<char> >::`vbase destructor'
PUBLIC	??5?$basic_istream@DU?$char_traits@D@std@@@std@@QAEAAV01@AAH@Z ; std::basic_istream<char,std::char_traits<char> >::operator>>
PUBLIC	??5?$basic_istream@DU?$char_traits@D@std@@@std@@QAEAAV01@P6AAAVios_base@1@AAV21@@Z@Z ; std::basic_istream<char,std::char_traits<char> >::operator>>
PUBLIC	?hex@std@@YAAAVios_base@1@AAV21@@Z		; std::hex
PUBLIC	??0?$basic_istringstream@DU?$char_traits@D@std@@V?$allocator@D@2@@std@@QAE@ABV?$basic_string@DU?$char_traits@D@std@@V?$allocator@D@2@@1@H@Z ; std::basic_istringstream<char,std::char_traits<char>,std::allocator<char> >::basic_istringstream<char,std::char_traits<char>,std::allocator<char> >
PUBLIC	?GetNumber@Scanner@@QAEHABV?$basic_string@DU?$char_traits@D@std@@V?$allocator@D@2@@std@@H@Z ; Scanner::GetNumber
;	COMDAT xdata$x
xdata$x	SEGMENT
__unwindtable$?GetNumber@Scanner@@QAEHABV?$basic_string@DU?$char_traits@D@std@@V?$allocator@D@2@@std@@H@Z DD 0ffffffffH
	DD	FLAT:__unwindfunclet$?GetNumber@Scanner@@QAEHABV?$basic_string@DU?$char_traits@D@std@@V?$allocator@D@2@@std@@H@Z$0
__ehfuncinfo$?GetNumber@Scanner@@QAEHABV?$basic_string@DU?$char_traits@D@std@@V?$allocator@D@2@@std@@H@Z DD 019930522H
	DD	01H
	DD	FLAT:__unwindtable$?GetNumber@Scanner@@QAEHABV?$basic_string@DU?$char_traits@D@std@@V?$allocator@D@2@@std@@H@Z
	DD	2 DUP(00H)
	DD	2 DUP(00H)
	DD	00H
	DD	01H
; Function compile flags: /Odtp /RTCsu /ZI
xdata$x	ENDS
;	COMDAT ?GetNumber@Scanner@@QAEHABV?$basic_string@DU?$char_traits@D@std@@V?$allocator@D@2@@std@@H@Z
_TEXT	SEGMENT
$T44004 = -428						; size = 4
$T44005 = -416						; size = 4
$T44006 = -404						; size = 4
_sstr$ = -200						; size = 160
_res$ = -32						; size = 4
_this$ = -20						; size = 4
__$EHRec$ = -12						; size = 12
_str$ = 8						; size = 4
_param$ = 12						; size = 4
?GetNumber@Scanner@@QAEHABV?$basic_string@DU?$char_traits@D@std@@V?$allocator@D@2@@std@@H@Z PROC ; Scanner::GetNumber, COMDAT
; _this$ = ecx
; Line 50
	push	ebp
	mov	ebp, esp
	push	-1
	push	__ehhandler$?GetNumber@Scanner@@QAEHABV?$basic_string@DU?$char_traits@D@std@@V?$allocator@D@2@@std@@H@Z
	mov	eax, DWORD PTR fs:0
	push	eax
	sub	esp, 420				; 000001a4H
	push	ebx
	push	esi
	push	edi
	push	ecx
	lea	edi, DWORD PTR [ebp-432]
	mov	ecx, 105				; 00000069H
	mov	eax, -858993460				; ccccccccH
	rep stosd
	pop	ecx
	mov	eax, DWORD PTR ___security_cookie
	xor	eax, ebp
	push	eax
	lea	eax, DWORD PTR __$EHRec$[ebp]
	mov	DWORD PTR fs:0, eax
	mov	DWORD PTR _this$[ebp], ecx
; Line 52
	push	1
	push	1
	mov	eax, DWORD PTR _str$[ebp]
	push	eax
	lea	ecx, DWORD PTR _sstr$[ebp]
	call	??0?$basic_istringstream@DU?$char_traits@D@std@@V?$allocator@D@2@@std@@QAE@ABV?$basic_string@DU?$char_traits@D@std@@V?$allocator@D@2@@1@H@Z ; std::basic_istringstream<char,std::char_traits<char>,std::allocator<char> >::basic_istringstream<char,std::char_traits<char>,std::allocator<char> >
	mov	DWORD PTR __$EHRec$[ebp+8], 0
; Line 54
	cmp	DWORD PTR _param$[ebp], 16		; 00000010H
	jne	SHORT $LN2@GetNumber
; Line 56
	lea	eax, DWORD PTR _res$[ebp]
	push	eax
	push	OFFSET ?hex@std@@YAAAVios_base@1@AAV21@@Z ; std::hex
	lea	ecx, DWORD PTR _sstr$[ebp]
	call	??5?$basic_istream@DU?$char_traits@D@std@@@std@@QAEAAV01@P6AAAVios_base@1@AAV21@@Z@Z ; std::basic_istream<char,std::char_traits<char> >::operator>>
	mov	ecx, eax
	call	??5?$basic_istream@DU?$char_traits@D@std@@@std@@QAEAAV01@AAH@Z ; std::basic_istream<char,std::char_traits<char> >::operator>>
; Line 57
	mov	eax, DWORD PTR _res$[ebp]
	mov	DWORD PTR $T44004[ebp], eax
	mov	DWORD PTR __$EHRec$[ebp+8], -1
	lea	ecx, DWORD PTR _sstr$[ebp]
	call	??_D?$basic_istringstream@DU?$char_traits@D@std@@V?$allocator@D@2@@std@@QAEXXZ
	mov	eax, DWORD PTR $T44004[ebp]
	jmp	SHORT $LN3@GetNumber
$LN2@GetNumber:
; Line 60
	cmp	DWORD PTR _param$[ebp], 8
	jne	SHORT $LN1@GetNumber
; Line 62
	lea	eax, DWORD PTR _res$[ebp]
	push	eax
	push	OFFSET ?oct@std@@YAAAVios_base@1@AAV21@@Z ; std::oct
	lea	ecx, DWORD PTR _sstr$[ebp]
	call	??5?$basic_istream@DU?$char_traits@D@std@@@std@@QAEAAV01@P6AAAVios_base@1@AAV21@@Z@Z ; std::basic_istream<char,std::char_traits<char> >::operator>>
	mov	ecx, eax
	call	??5?$basic_istream@DU?$char_traits@D@std@@@std@@QAEAAV01@AAH@Z ; std::basic_istream<char,std::char_traits<char> >::operator>>
; Line 63
	mov	eax, DWORD PTR _res$[ebp]
	mov	DWORD PTR $T44005[ebp], eax
	mov	DWORD PTR __$EHRec$[ebp+8], -1
	lea	ecx, DWORD PTR _sstr$[ebp]
	call	??_D?$basic_istringstream@DU?$char_traits@D@std@@V?$allocator@D@2@@std@@QAEXXZ
	mov	eax, DWORD PTR $T44005[ebp]
	jmp	SHORT $LN3@GetNumber
$LN1@GetNumber:
; Line 66
	mov	DWORD PTR $T44006[ebp], 0
	mov	DWORD PTR __$EHRec$[ebp+8], -1
	lea	ecx, DWORD PTR _sstr$[ebp]
	call	??_D?$basic_istringstream@DU?$char_traits@D@std@@V?$allocator@D@2@@std@@QAEXXZ
	mov	eax, DWORD PTR $T44006[ebp]
$LN3@GetNumber:
; Line 67
	push	edx
	mov	ecx, ebp
	push	eax
	lea	edx, DWORD PTR $LN10@GetNumber
	call	@_RTC_CheckStackVars@8
	pop	eax
	pop	edx
	mov	ecx, DWORD PTR __$EHRec$[ebp]
	mov	DWORD PTR fs:0, ecx
	pop	ecx
	pop	edi
	pop	esi
	pop	ebx
	add	esp, 432				; 000001b0H
	cmp	ebp, esp
	call	__RTC_CheckEsp
	mov	esp, ebp
	pop	ebp
	ret	8
$LN10@GetNumber:
	DD	2
	DD	$LN9@GetNumber
$LN9@GetNumber:
	DD	-32					; ffffffe0H
	DD	4
	DD	$LN6@GetNumber
	DD	-200					; ffffff38H
	DD	160					; 000000a0H
	DD	$LN7@GetNumber
$LN7@GetNumber:
	DB	115					; 00000073H
	DB	115					; 00000073H
	DB	116					; 00000074H
	DB	114					; 00000072H
	DB	0
$LN6@GetNumber:
	DB	114					; 00000072H
	DB	101					; 00000065H
	DB	115					; 00000073H
	DB	0
_TEXT	ENDS
;	COMDAT text$x
text$x	SEGMENT
__unwindfunclet$?GetNumber@Scanner@@QAEHABV?$basic_string@DU?$char_traits@D@std@@V?$allocator@D@2@@std@@H@Z$0:
	lea	ecx, DWORD PTR _sstr$[ebp]
	jmp	??_D?$basic_istringstream@DU?$char_traits@D@std@@V?$allocator@D@2@@std@@QAEXXZ
__ehhandler$?GetNumber@Scanner@@QAEHABV?$basic_string@DU?$char_traits@D@std@@V?$allocator@D@2@@std@@H@Z:
	mov	edx, DWORD PTR [esp+8]
	lea	eax, DWORD PTR [edx+12]
	mov	ecx, DWORD PTR [edx-436]
	xor	ecx, eax
	call	@__security_check_cookie@4
	mov	eax, OFFSET __ehfuncinfo$?GetNumber@Scanner@@QAEHABV?$basic_string@DU?$char_traits@D@std@@V?$allocator@D@2@@std@@H@Z
	jmp	___CxxFrameHandler3
text$x	ENDS
?GetNumber@Scanner@@QAEHABV?$basic_string@DU?$char_traits@D@std@@V?$allocator@D@2@@std@@H@Z ENDP ; Scanner::GetNumber
PUBLIC	?setf@ios_base@std@@QAEHHH@Z			; std::ios_base::setf
; Function compile flags: /Odtp /RTCsu /ZI
;	COMDAT ?hex@std@@YAAAVios_base@1@AAV21@@Z
_TEXT	SEGMENT
__Iosbase$ = 8						; size = 4
?hex@std@@YAAAVios_base@1@AAV21@@Z PROC			; std::hex, COMDAT
; File c:\program files\microsoft visual studio 10.0\vc\include\ios
; Line 219
	push	ebp
	mov	ebp, esp
	sub	esp, 192				; 000000c0H
	push	ebx
	push	esi
	push	edi
	lea	edi, DWORD PTR [ebp-192]
	mov	ecx, 48					; 00000030H
	mov	eax, -858993460				; ccccccccH
	rep stosd
; Line 220
	push	3584					; 00000e00H
	push	2048					; 00000800H
	mov	ecx, DWORD PTR __Iosbase$[ebp]
	call	?setf@ios_base@std@@QAEHHH@Z		; std::ios_base::setf
; Line 221
	mov	eax, DWORD PTR __Iosbase$[ebp]
; Line 222
	pop	edi
	pop	esi
	pop	ebx
	add	esp, 192				; 000000c0H
	cmp	ebp, esp
	call	__RTC_CheckEsp
	mov	esp, ebp
	pop	ebp
	ret	0
?hex@std@@YAAAVios_base@1@AAV21@@Z ENDP			; std::hex
; Function compile flags: /Odtp /RTCsu /ZI
_TEXT	ENDS
;	COMDAT ?setf@ios_base@std@@QAEHHH@Z
_TEXT	SEGMENT
__Oldfmtflags$ = -20					; size = 4
_this$ = -8						; size = 4
__Newfmtflags$ = 8					; size = 4
__Mask$ = 12						; size = 4
?setf@ios_base@std@@QAEHHH@Z PROC			; std::ios_base::setf, COMDAT
; _this$ = ecx
; File c:\program files\microsoft visual studio 10.0\vc\include\xiosbase
; Line 414
	push	ebp
	mov	ebp, esp
	sub	esp, 216				; 000000d8H
	push	ebx
	push	esi
	push	edi
	push	ecx
	lea	edi, DWORD PTR [ebp-216]
	mov	ecx, 54					; 00000036H
	mov	eax, -858993460				; ccccccccH
	rep stosd
	pop	ecx
	mov	DWORD PTR _this$[ebp], ecx
; Line 415
	mov	eax, DWORD PTR _this$[ebp]
	mov	ecx, DWORD PTR [eax+20]
	mov	DWORD PTR __Oldfmtflags$[ebp], ecx
; Line 417
	mov	eax, DWORD PTR __Mask$[ebp]
	not	eax
	mov	ecx, DWORD PTR _this$[ebp]
	and	eax, DWORD PTR [ecx+20]
	mov	edx, DWORD PTR __Newfmtflags$[ebp]
	and	edx, DWORD PTR __Mask$[ebp]
	and	edx, 65535				; 0000ffffH
	or	eax, edx
	mov	ecx, DWORD PTR _this$[ebp]
	mov	DWORD PTR [ecx+20], eax
; Line 418
	mov	eax, DWORD PTR __Oldfmtflags$[ebp]
; Line 419
	pop	edi
	pop	esi
	pop	ebx
	mov	esp, ebp
	pop	ebp
	ret	8
?setf@ios_base@std@@QAEHHH@Z ENDP			; std::ios_base::setf
; Function compile flags: /Odtp /RTCsu /ZI
_TEXT	ENDS
;	COMDAT ?oct@std@@YAAAVios_base@1@AAV21@@Z
_TEXT	SEGMENT
__Iosbase$ = 8						; size = 4
?oct@std@@YAAAVios_base@1@AAV21@@Z PROC			; std::oct, COMDAT
; File c:\program files\microsoft visual studio 10.0\vc\include\ios
; Line 295
	push	ebp
	mov	ebp, esp
	sub	esp, 192				; 000000c0H
	push	ebx
	push	esi
	push	edi
	lea	edi, DWORD PTR [ebp-192]
	mov	ecx, 48					; 00000030H
	mov	eax, -858993460				; ccccccccH
	rep stosd
; Line 296
	push	3584					; 00000e00H
	push	1024					; 00000400H
	mov	ecx, DWORD PTR __Iosbase$[ebp]
	call	?setf@ios_base@std@@QAEHHH@Z		; std::ios_base::setf
; Line 297
	mov	eax, DWORD PTR __Iosbase$[ebp]
; Line 298
	pop	edi
	pop	esi
	pop	ebx
	add	esp, 192				; 000000c0H
	cmp	ebp, esp
	call	__RTC_CheckEsp
	mov	esp, ebp
	pop	ebp
	ret	0
?oct@std@@YAAAVios_base@1@AAV21@@Z ENDP			; std::oct
_TEXT	ENDS
PUBLIC	??1?$basic_ios@DU?$char_traits@D@std@@@std@@UAE@XZ ; std::basic_ios<char,std::char_traits<char> >::~basic_ios<char,std::char_traits<char> >
PUBLIC	??1?$basic_istringstream@DU?$char_traits@D@std@@V?$allocator@D@2@@std@@UAE@XZ ; std::basic_istringstream<char,std::char_traits<char>,std::allocator<char> >::~basic_istringstream<char,std::char_traits<char>,std::allocator<char> >
; Function compile flags: /Odtp /RTCsu /ZI
;	COMDAT ??_D?$basic_istringstream@DU?$char_traits@D@std@@V?$allocator@D@2@@std@@QAEXXZ
_TEXT	SEGMENT
_this$ = -8						; size = 4
??_D?$basic_istringstream@DU?$char_traits@D@std@@V?$allocator@D@2@@std@@QAEXXZ PROC ; std::basic_istringstream<char,std::char_traits<char>,std::allocator<char> >::`vbase destructor', COMDAT
; _this$ = ecx
	push	ebp
	mov	ebp, esp
	sub	esp, 204				; 000000ccH
	push	ebx
	push	esi
	push	edi
	push	ecx
	lea	edi, DWORD PTR [ebp-204]
	mov	ecx, 51					; 00000033H
	mov	eax, -858993460				; ccccccccH
	rep stosd
	pop	ecx
	mov	DWORD PTR _this$[ebp], ecx
	mov	ecx, DWORD PTR _this$[ebp]
	add	ecx, 88					; 00000058H
	call	??1?$basic_istringstream@DU?$char_traits@D@std@@V?$allocator@D@2@@std@@UAE@XZ ; std::basic_istringstream<char,std::char_traits<char>,std::allocator<char> >::~basic_istringstream<char,std::char_traits<char>,std::allocator<char> >
	mov	ecx, DWORD PTR _this$[ebp]
	add	ecx, 88					; 00000058H
	call	??1?$basic_ios@DU?$char_traits@D@std@@@std@@UAE@XZ ; std::basic_ios<char,std::char_traits<char> >::~basic_ios<char,std::char_traits<char> >
	pop	edi
	pop	esi
	pop	ebx
	add	esp, 204				; 000000ccH
	cmp	ebp, esp
	call	__RTC_CheckEsp
	mov	esp, ebp
	pop	ebp
	ret	0
??_D?$basic_istringstream@DU?$char_traits@D@std@@V?$allocator@D@2@@std@@QAEXXZ ENDP ; std::basic_istringstream<char,std::char_traits<char>,std::allocator<char> >::`vbase destructor'
_TEXT	ENDS
PUBLIC	??0?$basic_string@DU?$char_traits@D@std@@V?$allocator@D@2@@std@@QAE@$$QAV01@@Z ; std::basic_string<char,std::char_traits<char>,std::allocator<char> >::basic_string<char,std::char_traits<char>,std::allocator<char> >
PUBLIC	?find_first_not_of@?$basic_string@DU?$char_traits@D@std@@V?$allocator@D@2@@std@@QBEIDI@Z ; std::basic_string<char,std::char_traits<char>,std::allocator<char> >::find_first_not_of
PUBLIC	?replace@?$basic_string@DU?$char_traits@D@std@@V?$allocator@D@2@@std@@QAEAAV12@IIID@Z ; std::basic_string<char,std::char_traits<char>,std::allocator<char> >::replace
PUBLIC	?find@?$basic_string@DU?$char_traits@D@std@@V?$allocator@D@2@@std@@QBEIDI@Z ; std::basic_string<char,std::char_traits<char>,std::allocator<char> >::find
PUBLIC	?substr@?$basic_string@DU?$char_traits@D@std@@V?$allocator@D@2@@std@@QBE?AV12@II@Z ; std::basic_string<char,std::char_traits<char>,std::allocator<char> >::substr
PUBLIC	__$ArrayPad$
